(dp1
S'id_to_char'
p2
(dp3
I0
Ve
sI1
Vi
sI2
Vt
sI3
Vn
sI4
Va
sI5
Vo
sI6
Vr
sI7
Vs
sI8
Vc
sI9
Vd
sI10
Vl
sI11
Vh
sI12
Vm
sI13
Vu
sI14
Vp
sI15
Vf
sI16
Vy
sI17
Vg
sI18
Vb
sI19
Vv
sI20
Vw
sI21
V.
sI22
V9
sI23
VA
sI24
VC
sI25
Vx
sI26
VI
sI27
Vz
sI28
VT
sI29
V-
sI30
Vk
sI31
VP
sI32
V(
sI33
V)
sI34
VD
sI35
VN
sI36
VS
sI37
VE
sI38
V:
sI39
VR
sI40
VO
sI41
VL
sI42
VM
sI43
VY
sI44
V%
sI45
V/
sI46
VB
sI47
Vq
sI48
VH
sI49
VU
sI50
VV
sI51
Vj
sI52
V;
sI53
VF
sI54
VG
sI55
VX
sI56
VW
sI57
VK
sI58
VQ
sI59
VZ
sI60
V=
sI61
V[
sI62
V]
sI63
V*
sI64
VJ
sI65
V'
sI66
V~
sI67
V+
sI68
V_
sI69
V#
sI70
V<
sI71
V`
sI72
V>
sI73
V?
ssS'id_to_tag'
p4
(dp5
I0
VO
sI1
VS-Drug
p6
sI2
VS-Group
p7
sI3
VB-Group
p8
sI4
VE-Group
p9
sI5
VS-Brand
p10
sI6
VB-Drug
p11
sI7
VE-Drug
p12
sI8
VI-Group
p13
sI9
VS-Drug_n
p14
sI10
VB-Brand
p15
sI11
VE-Brand
p16
sI12
VI-Drug
p17
sI13
VB-Drug_n
p18
sI14
VE-Drug_n
p19
sI15
VI-Brand
p20
ssS'id_to_word'
p21
(dp22
I0
S'<UNK>'
p23
sI1
V.
sI2
Vof
p24
sI3
Vthe
p25
sI4
Vand
p26
sI5
V9
sI6
Vin
p27
sI7
Vwith
p28
sI8
V-
sI9
Vto
p29
sI10
V(
sI11
V)
sI12
Vbe
p30
sI13
Vor
p31
sI14
Vmay
p32
sI15
Vis
p33
sI16
Va
sI17
V:
sI18
Vnot
p34
sI19
Vshould
p35
sI20
Vpatients
p36
sI21
Vbeen
p37
sI22
Vdrugs
p38
sI23
Vby
p39
sI24
Vhave
p40
sI25
Vthat
p41
sI26
Vfor
p42
sI27
Vother
p43
sI28
Von
p44
sI29
V/
sI30
V%
sI31
Vmg
p45
sI32
VThe
p46
sI33
Vare
p47
sI34
Vwhen
p48
sI35
Vas
p49
sI36
Vadministration
p50
sI37
Vplasma
p51
sI38
Veffect
p52
sI39
Vhas
p53
sI40
Veffects
p54
sI41
Vdose
p55
sI42
Vincrease
p56
sI43
Vdrug
p57
sI44
Vagents
p58
sI45
Vlevels
p59
sI46
VIn
p60
sI47
Vadministered
p61
sI48
Vincreased
p62
sI49
V;
sI50
Vwas
p63
sI51
Vsuch
p64
sI52
Vuse
p65
sI53
Vused
p66
sI54
Vstudies
p67
sI55
Van
p68
sI56
Vthese
p69
sI57
Vconcentrations
p70
sI58
Vwere
p71
sI59
Vconcomitant
p72
sI60
Vinhibitors
p73
sI61
Vno
p74
sI62
Vreceiving
p75
sI63
Vinteraction
p76
sI64
Vtherapy
p77
sI65
Vreported
p78
sI66
VCYP9A9
p79
sI67
Vclinical
p80
sI68
Voral
p81
sI69
Vconcomitantly
p82
sI70
Vdecrease
p83
sI71
Vinteractions
p84
sI72
Vserum
p85
sI73
Vwarfarin
p86
sI74
Ve.g.
p87
sI75
Vat
p88
sI76
Vgiven
p89
sI77
Vmetabolism
p90
sI78
Vdoses
p91
sI79
Vphenytoin
p92
sI80
Vclearance
p93
sI81
Vdigoxin
p94
sI82
Vobserved
p95
sI83
Vrecommended
p96
sI84
Vfrom
p97
sI85
Vthis
p98
sI86
Vsignificant
p99
sI87
Vdecreased
p100
sI88
VDrug
p101
sI89
Vstudy
p102
sI90
VAUC
p103
sI91
VNo
p104
sI92
VP9
p105
sI93
Vif
p106
sI94
Vpharmacokinetics
p107
sI95
Vcan
p108
sI96
Vcombination
p109
sI97
Vcaution
p110
sI98
Vtreatment
p111
sI99
Vrenal
p112
sI100
Vfollowing
p113
sI101
Vknown
p114
sI102
Vblood
p115
sI103
Vtime
p116
sI104
VTherefore
p117
sI105
Vwhich
p118
sI106
Vafter
p119
sI107
VDrugs
p120
sI108
Vday
p121
sI109
Vtaking
p122
sI110
Vvitro
p123
sI111
Vpotential
p124
sI112
Vincluding
p125
sI113
Vacid
p126
sI114
Vdosage
p127
sI115
Vmetabolized
p128
sI116
VInteractions
p129
sI117
Veither
p130
sI118
Vlithium
p131
sI119
Vresult
p132
sI120
Valso
p133
sI121
Vconcentration
p134
sI122
Vit
p135
sI123
Vdays
p136
sI124
Vdid
p137
sI125
Vduring
p138
sI126
Vabsorption
p139
sI127
Vcytochrome
p140
sI128
Vreduced
p141
sI129
Vits
p142
sI130
Vbeta
p143
sI131
Vpatient
p144
sI132
Vmonitored
p145
sI133
Vclinically
p146
sI134
Vconcurrently
p147
sI135
Vinhibit
p148
sI136
Vtoxicity
p149
sI137
Vcause
p150
sI138
Vsome
p151
sI139
Vtheophylline
p152
sI140
VConcomitant
p153
sI141
Vactivity
p154
sI142
Vapproximately
p155
sI143
Vco
p156
sI144
Vbetween
p157
sI145
VCNS
p158
sI146
Vdiuretics
p159
sI147
Vprothrombin
p160
sI148
Vthan
p161
sI149
Vantidepressants
p162
sI150
Vrisk
p163
sI151
Vshown
p164
sI152
Vcoadministered
p165
sI153
Vhours
p166
sI154
Vinhibitor
p167
sI155
Vwho
p168
sI156
Vhealthy
p169
sI157
Vblocking
p170
sI158
VThere
p171
sI159
Vmedications
p172
sI160
Vone
p173
sI161
Vtricyclic
p174
sI162
Valcohol
p175
sI163
Vdaily
p176
sI164
Vsubjects
p177
sI165
Vblockers
p178
sI166
Vcontaining
p179
sI167
Vketoconazole
p180
sI168
Vpharmacokinetic
p181
sI169
Vthere
p182
sI170
Vtreated
p183
sI171
VA
sI172
Vincreases
p184
sI173
VPatients
p185
sI174
Vsingle
p186
sI175
VThis
p187
sI176
VOther
p188
sI177
Vany
p189
sI178
Vbut
p190
sI179
Vpossible
p191
sI180
Vassociated
p192
sI181
Vbecause
p193
sI182
VWhen
p194
sI183
Voccur
p195
sI184
Vsodium
p196
sI185
Vadverse
p197
sI186
Vaffect
p198
sI187
Vexpected
p199
sI188
V9A9
p200
sI189
Vbinding
p201
sI190
Venzyme
p202
sI191
Vcoadministration
p203
sI192
Vreduce
p204
sI193
Vresponse
p205
sI194
Vanti
p206
sI195
Vanticoagulants
p207
sI196
Vaspirin
p208
sI197
Vtherapeutic
p209
sI198
Vadditive
p210
sI199
Vcarbamazepine
p211
sI200
Vboth
p212
sI201
Vcalcium
p213
sI202
Venzymes
p214
sI203
Vinterfere
p215
sI204
Vstudied
p216
sI205
Vvitamin
p217
sI206
Vvolunteers
p218
sI207
VHowever
p219
sI208
Vaction
p220
sI209
Vcontraceptives
p221
sI210
Vfunction
p222
sI211
Vresulted
p223
sI212
VIf
p224
sI213
Vbefore
p225
sI214
Vfold
p226
sI215
Vmonitoring
p227
sI216
VAlthough
p228
sI217
VIt
p229
sI218
Vadjustment
p230
sI219
Valone
p231
sI220
Vcimetidine
p232
sI221
Vnecessary
p233
sI222
Vsystem
p234
sI223
Vanticoagulant
p235
sI224
Vdata
p236
sI225
Vhuman
p237
sI226
Vinhibition
p238
sI227
Vreduction
p239
sI228
VCoadministration
p240
sI229
Vclosely
p241
sI230
Vconducted
p242
sI231
Vcyclosporine
p243
sI232
Vtaken
p244
sI233
Vconcurrent
p245
sI234
Vchanges
p246
sI235
Vdoes
p247
sI236
Vglucose
p248
sI237
Vstate
p249
sI238
VBecause
p250
sI239
VThese
p251
sI240
Vbleeding
p252
sI241
Vmean
p253
sI242
Vreports
p254
sI243
Vhad
p255
sI244
Vtheir
p256
sI245
Vadrenergic
p257
sI246
Vpotassium
p258
sI247
Vsevere
p259
sI248
VNSAIDs
p260
sI249
Vconsidered
p261
sI250
Verythromycin
p262
sI251
Vmethotrexate
p263
sI252
Vsimilar
p264
sI253
VCYP
p265
sI254
VCmax
p266
sI255
VLaboratory
p267
sI256
Vnormal
p268
sI257
Voxidase
p269
sI258
Vtrials
p270
sI259
VCYP9D9
p271
sI260
Vantibiotics
p272
sI261
Vcorticosteroids
p273
sI262
Vliver
p274
sI263
Vlower
p275
sI264
Vreactions
p276
sI265
Vsignificantly
p277
sI266
Vusing
p278
sI267
VCaution
p279
sI268
VMAO
p280
sI269
Vdue
p281
sI270
Vefficacy
p282
sI271
Vprotein
p283
sI272
Vsteady
p284
sI273
Valter
p285
sI274
Vantihypertensive
p286
sI275
Venhance
p287
sI276
Vhigh
p288
sI277
Vphenobarbital
p289
sI278
Vresults
p290
sI279
Vanticholinergic
p291
sI280
Vhalf
p292
sI281
Vinteract
p293
sI282
Vkg
p294
sI283
Vlife
p295
sI284
Vpotentiate
p296
sI285
Vrequired
p297
sI286
Vtests
p298
sI287
Vtwo
p299
sI288
Vwell
p300
sI289
V9D9
p301
sI290
Vavoided
p302
sI291
Vcertain
p303
sI292
Vhigher
p304
sI293
Vinflammatory
p305
sI294
Vproduce
p306
sI295
Vtest
p307
sI296
VTest
p308
sI297
Vaddition
p309
sI298
Vcardiac
p310
sI299
Vexposure
p311
sI300
Vtherefore
p312
sI301
Vexcretion
p313
sI302
Vmore
p314
sI303
Vrifampin
p315
sI304
Vwithout
p316
sI305
VACE
p317
sI306
Vquinidine
p318
sI307
Vthyroid
p319
sI308
VAgents
p320
sI309
VCYP9C9
p321
sI310
VSince
p322
sI311
Vhepatic
p323
sI312
Vresulting
p324
sI313
Vevidence
p325
sI314
Vphenothiazines
p326
sI315
Vsubstrate
p327
sI316
Vcould
p328
sI317
Vpropranolol
p329
sI318
VInhibitors
p330
sI319
Vamiodarone
p331
sI320
Vhypotension
p332
sI321
Vindicate
p333
sI322
Vinduce
p334
sI323
Vthey
p335
sI324
Vtimes
p336
sI325
Vgastrointestinal
p337
sI326
Vmetabolite
p338
sI327
Vpotent
p339
sI328
Vreaction
p340
sI329
Vthose
p341
sI330
VCo
p342
sI331
Vbarbiturates
p343
sI332
Vsecretion
p344
sI333
Vabout
p345
sI334
Vcompared
p346
sI335
Veg
p347
sI336
Vperformed
p348
sI337
Vpressure
p349
sI338
Vproducts
p350
sI339
Vrate
p351
sI340
VD
sI341
Vactive
p352
sI342
Vadvised
p353
sI343
Vdiazepam
p354
sI344
Vinducers
p355
sI345
Vleast
p356
sI346
Vprior
p357
sI347
Vterfenadine
p358
sI348
VConcurrent
p359
sI349
Vbenzodiazepines
p360
sI350
Vbioavailability
p361
sI351
Vbound
p362
sI352
Vestradiol
p363
sI353
Vfurosemide
p364
sI354
Vhydrochloride
p365
sI355
Vlevel
p366
sI356
VmL
p367
sI357
Vmonoamine
p368
sI358
Vrespectively
p369
sI359
V[
sI360
V]
sI361
Vaffected
p370
sI362
Vchange
p371
sI363
Vdepressants
p372
sI364
Vlead
p373
sI365
Vnon
p374
sI366
Vproduced
p375
sI367
Vserious
p376
sI368
Vvivo
p377
sI369
V9C9
p378
sI370
VAprepitant
p379
sI371
Vantacids
p380
sI372
Vantagonists
p381
sI373
Vbased
p382
sI374
Vdiuretic
p383
sI375
Vexercised
p384
sI376
Vhowever
p385
sI377
Vpreparations
p386
sI378
Vurine
p387
sI379
Vagent
p388
sI380
Vcontrol
p389
sI381
Vcontrolled
p390
sI382
Velimination
p391
sI383
Vevaluated
p392
sI384
Vevents
p393
sI385
Vexperience
p394
sI386
Vfluconazole
p395
sI387
Vinclude
p396
sI388
Vmagnesium
p397
sI389
Vmultiple
p398
sI390
Vpotentiated
p399
sI391
Vprolongation
p400
sI392
Vside
p401
sI393
Vwould
p402
sI394
VKetoconazole
p403
sI395
Vdepression
p404
sI396
Vdiltiazem
p405
sI397
Vdosing
p406
sI398
Vinterval
p407
sI399
Vintravenous
p408
sI400
Vmuscle
p409
sI401
Vparticularly
p410
sI402
Vsubstrates
p411
sI403
Vurinary
p412
sI404
Vweeks
p413
sI405
VCimetidine
p414
sI406
VOral
p415
sI407
VPhenytoin
p416
sI408
Vcombined
p417
sI409
Vdemonstrated
p418
sI410
Vestablished
p419
sI411
Vextent
p420
sI412
Vformal
p421
sI413
Vfound
p422
sI414
Vinsulin
p423
sI415
Vlaboratory
p424
sI416
Vneuromuscular
p425
sI417
Vonce
p426
sI418
Vpossibility
p427
sI419
Vpresence
p428
sI420
Vsigns
p429
sI421
Vsmall
p430
sI422
Vsuggest
p431
sI423
Vsystemic
p432
sI424
Vthiazide
p433
sI425
Vtotal
p434
sI426
Vtype
p435
sI427
Vunknown
p436
sI428
Vwithin
p437
sI429
Vcisapride
p438
sI430
Vcoumarin
p439
sI431
Vespecially
p440
sI432
Vfluoxetine
p441
sI433
Vindinavir
p442
sI434
Vplatelet
p443
sI435
Vprolonged
p444
sI436
Vrelated
p445
sI437
Vritonavir
p446
sI438
Vseen
p447
sI439
Vup
p448
sI440
VHCl
p449
sI441
VINR
p450
sI442
Vadministering
p451
sI443
Vanesthetics
p452
sI444
Vantihistamines
p453
sI445
Vcarefully
p454
sI446
Vcompounds
p455
sI447
Vdigitalis
p456
sI448
Velevated
p457
sI449
Vfluvoxamine
p458
sI450
Vimportant
p459
sI451
Vindicated
p460
sI452
Vrequire
p461
sI453
Vsignificance
p462
sI454
VTCA
p463
sI455
VUse
p464
sI456
Vcareful
p465
sI457
Vchronic
p466
sI458
Vclass
p467
sI459
Vglyburide
p468
sI460
Vincidence
p469
sI461
Vincreasing
p470
sI462
Vpotentially
p471
sI463
Vrange
p472
sI464
Vsymptoms
p473
sI465
Vtablets
p474
sI466
Vwhile
p475
sI467
VLithium
p476
sI468
Vanother
p477
sI469
Vavailable
p478
sI470
Vchannel
p479
sI471
Vdepressant
p480
sI472
Vhypotensive
p481
sI473
Vlike
p482
sI474
Vn=9
p483
sI475
Vprobenecid
p484
sI476
Vprolong
p485
sI477
Vsafety
p486
sI478
Vunder
p487
sI479
Vvalues
p488
sI480
VAn
p489
sI481
VAs
p490
sI482
VBID
p491
sI483
VTablets
p492
sI484
Valuminum
p493
sI485
Varrhythmias
p494
sI486
Vbeing
p495
sI487
Vclarithromycin
p496
sI488
Vethinyl
p497
sI489
Vhormone
p498
sI490
Vindomethacin
p499
sI491
Vless
p500
sI492
Vmidazolam
p501
sI493
Vnifedipine
p502
sI494
Vpositive
p503
sI495
Vreceived
p504
sI496
Vwill
p505
sI497
VP
sI498
Valtered
p506
sI499
Vavoid
p507
sI500
Vcontraceptive
p508
sI501
Vheart
p509
sI502
Vhypertension
p510
sI503
Vitraconazole
p511
sI504
Vlikely
p512
sI505
Vonly
p513
sI506
Vsame
p514
sI507
VDigoxin
p515
sI508
VInteraction
p516
sI509
Vagonists
p517
sI510
Vall
p518
sI511
Valprazolam
p519
sI512
Vantidepressant
p520
sI513
Vappropriate
p521
sI514
Vdecreases
p522
sI515
Vdiscontinued
p523
sI516
Vdisease
p524
sI517
Vdopamine
p525
sI518
Vheparin
p526
sI519
Vhour
p527
sI520
Vinhibits
p528
sI521
Vinitiation
p529
sI522
Viron
p530
sI523
Vlow
p531
sI524
Vmetabolizers
p532
sI525
Vverapamil
p533
sI526
VB
sI527
VClinical
p534
sI528
VVardenafil
p535
sI529
Vacetaminophen
p536
sI530
Vcases
p537
sI531
Vhighly
p538
sI532
Vhypoglycemic
p539
sI533
Vsince
p540
sI534
Vspecific
p541
sI535
Vunlikely
p542
sI536
VAdministration
p543
sI537
VAnticoagulants
p544
sI538
VIncreased
p545
sI539
Vanalgesics
p546
sI540
Vcoagulation
p547
sI541
Vderivatives
p548
sI542
Veach
p549
sI543
Veffectiveness
p550
sI544
Vgreater
p551
sI545
Vinducer
p552
sI546
Vmust
p553
sI547
Vnonsteroidal
p554
sI548
Vrelaxants
p555
sI549
Vrelevant
p556
sI550
Vsalicylate
p557
sI551
Vstable
p558
sI552
Vsupplements
p559
sI553
Vtubular
p560
sI554
Vvaldecoxib
p561
sI555
VAspirin
p562
sI556
VCoA
p563
sI557
VHMG
p564
sI558
VK
sI559
VTAXOL
p565
sI560
Vatorvastatin
p566
sI561
Vcaused
p567
sI562
Vcommonly
p568
sI563
Vcontraindicated
p569
sI564
Vepinephrine
p570
sI565
Vgastric
p571
sI566
Vinduced
p572
sI567
Vleading
p573
sI568
Vmechanism
p574
sI569
Vmediated
p575
sI570
Vmedication
p576
sI571
Vpressor
p577
sI572
Vsuccinylcholine
p578
sI573
Vtwice
p579
sI574
Vyou
p580
sI575
VL
sI576
VSerum
p581
sI577
Vadjustments
p582
sI578
Vallopurinol
p583
sI579
Vcaffeine
p584
sI580
Vcentral
p585
sI581
Vfalse
p586
sI582
Vg
sI583
Vgeneral
p587
sI584
Vibuprofen
p588
sI585
Vinfluence
p589
sI586
Vinitial
p590
sI587
Vloss
p591
sI588
Vnervous
p592
sI589
Vparoxetine
p593
sI590
Vperiod
p594
sI591
Vregimen
p595
sI592
Vtoxic
p596
sI593
Vusual
p597
sI594
Vvalproate
p598
sI595
VINDOCIN
p599
sI596
VProbenecid
p600
sI597
VQT
p601
sI598
VWarfarin
p602
sI599
Vadjusted
p603
sI600
Vdesired
p604
sI601
Venhanced
p605
sI602
Vhypoglycemia
p606
sI603
Visoniazid
p607
sI604
Vmale
p608
sI605
Vmaximum
p609
sI606
Vmetabolic
p610
sI607
Vmetabolites
p611
sI608
Vparameters
p612
sI609
Vprimarily
p613
sI610
Vproteins
p614
sI611
Vsedative
p615
sI612
Vsee
p616
sI613
Vserotonin
p617
sI614
Vstrong
p618
sI615
Vsynthesis
p619
sI616
Vtolbutamide
p620
sI617
Vwithdrawn
p621
sI618
Vzalcitabine
p622
sI619
VC
sI620
VDay
p623
sI621
VH9
p624
sI622
VMay
p625
sI623
VQTc
p626
sI624
VT9
p627
sI625
VThus
p628
sI626
VWhile
p629
sI627
Varipiprazole
p630
sI628
Vcautiously
p631
sI629
Vciprofloxacin
p632
sI630
Vclonidine
p633
sI631
Vdexamethasone
p634
sI632
Velevations
p635
sI633
Vescitalopram
p636
sI634
Vfelodipine
p637
sI635
Vhypokalemia
p638
sI636
Vinformation
p639
sI637
Vinhibited
p640
sI638
Vinitiating
p641
sI639
Vinjection
p642
sI640
Vmedicines
p643
sI641
Vminutes
p644
sI642
Vnaproxen
p645
sI643
Vneed
p646
sI644
Vnelfinavir
p647
sI645
Vnorepinephrine
p648
sI646
Vpeak
p649
sI647
Vpharmacodynamic
p650
sI648
Vpoor
p651
sI649
Vprofile
p652
sI650
Vprotease
p653
sI651
Vreserpine
p654
sI652
Vrifabutin
p655
sI653
Vsaquinavir
p656
sI654
Vshowed
p657
sI655
Vsites
p658
sI656
Vsparing
p659
sI657
Vsympathomimetic
p660
sI658
Vtogether
p661
sI659
Vtranquilizers
p662
sI660
Vventricular
p663
sI661
Vvia
p664
sI662
Vweek
p665
sI663
VHIV
p666
sI664
VInjection
p667
sI665
VSSRIs
p668
sI666
VSUSTIVA
p669
sI667
VVIRACEPT
p670
sI668
VWith
p671
sI669
Vappear
p672
sI670
Vbody
p673
sI671
Vcardiovascular
p674
sI672
Vdegree
p675
sI673
Vdiclofenac
p676
sI674
Vestrogens
p677
sI675
Vfailure
p678
sI676
Vfirst
p679
sI677
Vflecainide
p680
sI678
Vhormonal
p681
sI679
Vhydrochlorothiazide
p682
sI680
Vlovastatin
p683
sI681
Vmost
p684
sI682
Vobtained
p685
sI683
Voccurred
p686
sI684
Vperipheral
p687
sI685
Vquinolones
p688
sI686
Vranitidine
p689
sI687
Vreceptor
p690
sI688
Vreductase
p691
sI689
Vsedation
p692
sI690
Vsedatives
p693
sI691
Vselective
p694
sI692
Vseveral
p695
sI693
Vsteroidal
p696
sI694
Vsteroids
p697
sI695
Vthree
p698
sI696
Vthrough
p699
sI697
Vtiagabine
p700
sI698
Vwhether
p701
sI699
V*
sI700
VBased
p702
sI701
VBeta
p703
sI702
VCarbamazepine
p704
sI703
VDuloxetine
p705
sI704
VEffect
p706
sI705
VQD
p707
sI706
VStudies
p708
sI707
Vbosentan
p709
sI708
Vcreatinine
p710
sI709
Vdiflunisal
p711
sI710
Veffective
p712
sI711
Vevery
p713
sI712
Vezetimibe
p714
sI713
Vimpaired
p715
sI714
Vinduction
p716
sI715
Vinfusion
p717
sI716
Vinhibitory
p718
sI717
Vinitiated
p719
sI718
Vintake
p720
sI719
Vmight
p721
sI720
Vneeded
p722
sI721
Vplacebo
p723
sI722
Vrats
p724
sI723
Vrelease
p725
sI724
Vtacrolimus
p726
sI725
Vtriazolam
p727
sI726
Vzaleplon
p728
sI727
VCLINICAL
p729
sI728
VPHARMACOLOGY
p730
sI729
VPlasma
p731
sI730
VS
sI731
VVitamin
p732
sI732
Vadditional
p733
sI733
Vamphotericin
p734
sI734
Vantacid
p735
sI735
Vanticonvulsant
p736
sI736
Vastemizole
p737
sI737
Vbasis
p738
sI738
Vcaptopril
p739
sI739
Vcase
p740
sI740
Vcholestyramine
p741
sI741
Vcitalopram
p742
sI742
Vdo
p743
sI743
Vefavirenz
p744
sI744
Vergot
p745
sI745
Vfree
p746
sI746
Vgabapentin
p747
sI747
Vglycosides
p748
sI748
Vhypnotics
p749
sI749
Vinhibiting
p750
sI750
Vlong
p751
sI751
Vlowering
p752
sI752
Vmade
p753
sI753
Vmaintain
p754
sI754
Vmajor
p755
sI755
Vmetformin
p756
sI756
Vmetoclopramide
p757
sI757
Vnondepolarizing
p758
sI758
Vprescribed
p759
sI759
Vprostaglandin
p760
sI760
Vreuptake
p761
sI761
Vsolution
p762
sI762
Vthus
p763
sI763
Vuntil
p764
sI764
Vusually
p765
sI765
Vvariety
p766
sI766
VAntacids
p767
sI767
VCYP9A
p768
sI768
VCholestyramine
p769
sI769
VContraceptives
p770
sI770
VCorticosteroids
p771
sI771
VDose
p772
sI772
VFurosemide
p773
sI773
VII
p774
sI774
VSome
p775
sI775
Vacting
p776
sI776
Vadded
p777
sI777
Vampicillin
p778
sI778
Vantagonize
p779
sI779
Vazithromycin
p780
sI780
Vcells
p781
sI781
Vdepleting
p782
sI782
Vdihydroergotamine
p783
sI783
Vdiscontinuation
p784
sI784
Vduration
p785
sI785
Vetc
p786
sI786
Vfelbamate
p787
sI787
Vfemale
p788
sI788
Vgenerally
p789
sI789
Vhumans
p790
sI790
Vlarge
p791
sI791
Vmany
p792
sI792
Vmesylate
p793
sI793
Vmetabolizing
p794
sI794
Vomeprazole
p795
sI795
Vover
p796
sI796
Vrare
p797
sI797
Vrat
p798
sI798
Vrelationship
p799
sI799
Vrespiratory
p800
sI800
Vthiazides
p801
sI801
Vvardenafil
p802
sI802
Vyour
p803
sI803
VAlcohol
p804
sI804
VCI
p805
sI805
VCyclosporine
p806
sI806
VCytochrome
p807
sI807
VDiuretics
p808
sI808
VECG
p809
sI809
VPEGASYS
p810
sI810
VTheophylline
p811
sI811
VUSP
p812
sI812
VVIOXX
p813
sI813
VXENICAL
p814
sI814
Vacute
p815
sI815
Vaggregation
p816
sI816
Valthough
p817
sI817
Vaminoglycosides
p818
sI818
Vanesthesia
p819
sI819
Vazathioprine
p820
sI820
Vblock
p821
sI821
Vbradycardia
p822
sI822
Vcapsules
p823
sI823
Vcatecholamines
p824
sI824
Vcolestipol
p825
sI825
Vconduction
p826
sI826
Vconjunction
p827
sI827
Vconsideration
p828
sI828
Vcourse
p829
sI829
Vdiscontinuing
p830
sI830
Vdisopyramide
p831
sI831
Vdisulfiram
p832
sI832
Vethanol
p833
sI833
Vfrequent
p834
sI834
Vguanethidine
p835
sI835
Vhaloperidol
p836
sI836
Vhypercalcemia
p837
sI837
Vinto
p838
sI838
Visozyme
p839
sI839
Vjuice
p840
sI840
Vlevodopa
p841
sI841
Vlocal
p842
sI842
Vnarrow
p843
sI843
Vnorethindrone
p844
sI844
Vorally
p845
sI845
Vphosphate
p846
sI846
Vpossibly
p847
sI847
Vprocainamide
p848
sI848
Vresponsible
p849
sI849
Vsimultaneous
p850
sI850
Vsteroid
p851
sI851
Vtrough
p852
sI852
Vunchanged
p853
sI853
Vweekly
p854
sI854
Vwithdrawal
p855
sI855
VAEDs
p856
sI856
VAccutane
p857
sI857
VCombination
p858
sI858
VDigitalis
p859
sI859
VPotassium
p860
sI860
VPotential
p861
sI861
VSSRI
p862
sI862
VThat
p863
sI863
Vacetate
p864
sI864
Valpha
p865
sI865
Vaminoglycoside
p866
sI866
Vamphetamines
p867
sI867
Vapparent
p868
sI868
Vatropine
p869
sI869
Vbelow
p870
sI870
Vbupropion
p871
sI871
Vclose
p872
sI872
Vcomplications
p873
sI873
Vcorticosteroid
p874
sI874
Vdetermined
p875
sI875
Vexcessive
p876
sI876
Vfatal
p877
sI877
Vimpairment
p878
sI878
Visoenzymes
p879
sI879
Visozymes
p880
sI880
Visradipine
p881
sI881
Vmacrolide
p882
sI882
Vmaintenance
p883
sI883
Vmarketing
p884
sI884
Vmcg
p885
sI885
Vmethadone
p886
sI886
Vmethyldopa
p887
sI887
Vmonitor
p888
sI888
Vnarcotics
p889
sI889
Vnoted
p890
sI890
Vnumber
p891
sI891
Vopioids
p892
sI892
Vothers
p893
sI893
Vpharmacodynamics
p894
sI894
Vphenylbutazone
p895
sI895
Vphysician
p896
sI896
Vproperties
p897
sI897
Vquinolone
p898
sI898
Vrequirements
p899
sI899
Vshow
p900
sI900
Vsimultaneously
p901
sI901
Vsumatriptan
p902
sI902
Vtake
p903
sI903
Vthreatening
p904
sI904
Vtreat
p905
sI905
Vyears
p906
sI906
V9%
p907
sI907
VAmphetamines
p908
sI908
VBezalip
p909
sI909
VConsequently
p910
sI910
VDue
p911
sI911
VMetabolized
p912
sI912
VMethotrexate
p913
sI913
VNIMBEX
p914
sI914
VNon
p915
sI915
VPhenobarbital
p916
sI916
VRifampin
p917
sI917
VTIKOSYN
p918
sI918
VTORADOL
p919
sI919
VVIDEX
p920
sI920
VVII
p921
sI921
Vadults
p922
sI922
Vadvisable
p923
sI923
Vagainst
p924
sI924
Valterations
p925
sI925
Vantidiabetic
p926
sI926
Vappears
p927
sI927
Vattributed
p928
sI928
Vbone
p929
sI929
Vcauses
p930
sI930
Vcausing
p931
sI931
Vclozapine
p932
sI932
Vdiabetic
p933
sI933
Vdidanosine
p934
sI934
Vdosed
p935
sI935
Vexperienced
p936
sI936
Vfactors
p937
sI937
Vfrequently
p938
sI938
Vfurther
p939
sI939
Vindividuals
p940
sI940
Vintervals
p941
sI941
Vintestinal
p942
sI942
Vlimited
p943
sI943
Vlisted
p944
sI944
Vmethod
p945
sI945
Vmyopathy
p946
sI946
Vnephrotoxicity
p947
sI947
Vnevirapine
p948
sI948
Vnitrates
p949
sI949
Vobservation
p950
sI950
Voccurs
p951
sI951
Vopioid
p952
sI952
Vorder
p953
sI953
Vplus
p954
sI954
Vpost
p955
sI955
Vpresent
p956
sI956
Vrelevance
p957
sI957
Vresin
p958
sI958
Vsubstances
p959
sI959
Vsufficient
p960
sI960
Vsynergistic
p961
sI961
Vtetracyclines
p962
sI962
Vthen
p963
sI963
Vtitrated
p964
sI964
Vtopical
p965
sI965
Vunless
p966
sI966
Vvalproic
p967
sI967
Vweakness
p968
sI968
Vwhere
p969
sI969
Vzidovudine
p970
sI970
VCertain
p971
sI971
VCmin
p972
sI972
VDuring
p973
sI973
VErythromycin
p974
sI974
VFor
p975
sI975
VGleevec
p976
sI976
VItraconazole
p977
sI977
VNevertheless
p978
sI978
VPRINIVIL
p979
sI979
VSt.
p980
sI980
VSuch
p981
sI981
VTable
p982
sI982
VTricyclic
p983
sI983
Vabove
p984
sI984
Vactions
p985
sI985
Vagonist
p986
sI986
Valkaloids
p987
sI987
Valosetron
p988
sI988
Valready
p989
sI989
Vamphetamine
p990
sI990
Vassociation
p991
sI991
Vaverage
p992
sI992
Vb
sI993
Vbecome
p993
sI994
Vcare
p994
sI995
Vcerivastatin
p995
sI996
Vchemotherapy
p996
sI997
Vcisplatin
p997
sI998
Vcomplex
p998
sI999
Vconvulsions
p999
sI1000
Vdependent
p1000
sI1001
Vdesipramine
p1001
sI1002
Vdiagnostic
p1002
sI1003
Ve.g
p1003
sI1004
Venalapril
p1004
sI1005
Vergotamine
p1005
sI1006
Vestrogen
p1006
sI1007
Veven
p1007
sI1008
Vfew
p1008
sI1009
Vflurbiprofen
p1009
sI1010
Vfollowed
p1010
sI1011
Vfood
p1011
sI1012
Vform
p1012
sI1013
Vgroup
p1013
sI1014
Vhistory
p1014
sI1015
Vindividual
p1015
sI1016
Vlamivudine
p1016
sI1017
Vlomefloxacin
p1017
sI1018
Vmarrow
p1018
sI1019
Vmax
p1019
sI1020
Vmorphine
p1020
sI1021
Vnatriuretic
p1021
sI1022
Vpediatric
p1022
sI1023
Vpharmacologic
p1023
sI1024
Vprimary
p1024
sI1025
Vprimidone
p1025
sI1026
Vregarding
p1026
sI1027
Vrepeated
p1027
sI1028
Vreplacement
p1028
sI1029
Vsalt
p1029
sI1030
Vsalts
p1030
sI1031
Vsertraline
p1031
sI1032
Vskin
p1032
sI1033
Vsulfate
p1033
sI1034
Vtachycardia
p1034
sI1035
Vtransport
p1035
sI1036
Vtrial
p1036
sI1037
Vtriamterene
p1037
sI1038
Vvolume
p1038
sI1039
Vwarranted
p1039
sI1040
Vwhenever
p1040
sI1041
VAnti
p1041
sI1042
VBe
p1042
sI1043
VClozapine
p1043
sI1044
VDIFLUCAN
p1044
sI1045
VDays
p1045
sI1046
VEQUETROTM
p1046
sI1047
VEffects
p1047
sI1048
VFelbatol
p1048
sI1049
VGI
p1049
sI1050
VJohns
p1050
sI1051
VMAOI
p1051
sI1052
VPT
p1052
sI1053
VPharmacokinetic
p1053
sI1054
VSPRYCEL
p1054
sI1055
VSee
p1055
sI1056
VTCAs
p1056
sI1057
VThiazides
p1057
sI1058
VTreatment
p1058
sI1059
VUrinary
p1059
sI1060
VX
sI1061
Vabnormalities
p1060
sI1062
Vacitretin
p1061
sI1063
Vadequate
p1062
sI1064
Vaffecting
p1063
sI1065
Vamitriptyline
p1064
sI1066
Vanalgesic
p1065
sI1067
Vanesthetic
p1066
sI1068
Vantiarrhythmics
p1067
sI1069
Vanticholinesterase
p1068
sI1070
Vanticonvulsants
p1069
sI1071
Varea
p1070
sI1072
Vassessed
p1071
sI1073
Vatenolol
p1072
sI1074
Vb.i.d
p1073
sI1075
Vblocker
p1074
sI1076
Vcell
p1075
sI1077
Vcirculating
p1076
sI1078
Vdeath
p1077
sI1079
Vdetermine
p1078
sI1080
Vdiabetes
p1079
sI1081
Vdifferent
p1080
sI1082
Vdiminish
p1081
sI1083
Vdofetilide
p1082
sI1084
Velevation
p1083
sI1085
Vemployed
p1084
sI1086
Vepilepsy
p1085
sI1087
Vfactor
p1086
sI1088
Vglycoprotein
p1087
sI1089
Vgrapefruit
p1088
sI1090
Vhydroxide
p1089
sI1091
Vhyperglycemia
p1090
sI1092
Vingestion
p1091
sI1093
Vinvolved
p1092
sI1094
Vinvolving
p1093
sI1095
Visoenzyme
p1094
sI1096
Vketoprofen
p1095
sI1097
Vlevonorgestrel
p1096
sI1098
Vm9
p1097
sI1099
Vmarked
p1098
sI1100
Vmarkedly
p1099
sI1101
Vmedicinal
p1100
sI1102
Vmeloxicam
p1101
sI1103
Vmethods
p1102
sI1104
Vmethylprednisolone
p1103
sI1105
Vmicrograms
p1104
sI1106
Vmicrosomal
p1105
sI1107
Vmixed
p1106
sI1108
Vmoderate
p1107
sI1109
Vmotility
p1108
sI1110
Vmouth
p1109
sI1111
Vmyocardial
p1110
sI1112
Vnegative
p1111
sI1113
Vnor
p1112
sI1114
Vondansetron
p1113
sI1115
Vpenicillin
p1114
sI1116
Vpotentiation
p1115
sI1117
Vpregnancy
p1116
sI1118
Vpropafenone
p1117
sI1119
Vrarely
p1118
sI1120
Vreport
p1119
sI1121
Vrhabdomyolysis
p1120
sI1122
Vsalicylates
p1121
sI1123
Vstarted
p1122
sI1124
Vsucralfate
p1123
sI1125
Vsuggested
p1124
sI1126
Vsuggesting
p1125
sI1127
Vterm
p1126
sI1128
Vthereby
p1127
sI1129
Vweight
p1128
sI1130
Vwhom
p1129
sI1131
V=
sI1132
VAV
p1130
sI1133
VAnafranil
p1131
sI1134
VAntihistamines
p1132
sI1135
VB9
p1133
sI1136
VBlockers
p1134
sI1137
VBoth
p1135
sI1138
VCONTRAINDICATED
p1136
sI1139
VCRIXIVAN
p1137
sI1140
VCYP9
p1138
sI1141
VIM
p1139
sI1142
VInhibit
p1140
sI1143
VMHD
p1141
sI1144
VMefloquine
p1142
sI1145
VMetabolism
p1143
sI1146
VN
sI1147
VNonsteroidal
p1144
sI1148
VNovoLog
p1145
sI1149
VPROLEUKIN
p1146
sI1150
VPharmacokinetics
p1147
sI1151
VQuinolones
p1148
sI1152
VReports
p1149
sI1153
VTests
p1150
sI1154
VTrileptal
p1151
sI1155
VWort
p1152
sI1156
Valmotriptan
p1153
sI1157
Valteration
p1154
sI1158
Vanalogues
p1155
sI1159
Vangiotensin
p1156
sI1160
Vanimals
p1157
sI1161
Vantagonist
p1158
sI1162
Vantiarrhythmic
p1159
sI1163
Varterial
p1160
sI1164
Vassays
p1161
sI1165
Vazole
p1162
sI1166
Vbile
p1163
sI1167
Vcatecholamine
p1164
sI1168
Vcations
p1165
sI1169
Vcholesterol
p1166
sI1170
Vclonazepam
p1167
sI1171
Vconditions
p1168
sI1172
Vdelay
p1169
sI1173
Vdeterminations
p1170
sI1174
Vdextromethorphan
p1171
sI1175
Vdiminished
p1172
sI1176
Vdisplacement
p1173
sI1177
Vdoctor
p1174
sI1178
Vdoxorubicin
p1175
sI1179
Veliminated
p1176
sI1180
Venoxacin
p1177
sI1181
Vepoxide
p1178
sI1182
Vfertility
p1179
sI1183
Vformulation
p1180
sI1184
Vfraction
p1181
sI1185
Vfrequency
p1182
sI1186
Vgrepafloxacin
p1183
sI1187
Vhalothane
p1184
sI1188
Vimipramine
p1185
sI1189
Vindicates
p1186
sI1190
Vlabetalol
p1187
sI1191
Vlevetiracetam
p1188
sI1192
Vloratadine
p1189
sI1193
Vmeasured
p1190
sI1194
Vmedicine
p1191
sI1195
Vmetoprolol
p1192
sI1196
Vmicrosomes
p1193
sI1197
Vmontelukast
p1194
sI1198
Vmonths
p1195
sI1199
Vn
sI1200
Vnephrotoxic
p1196
sI1201
Vnicardipine
p1197
sI1202
Vnitroglycerin
p1198
sI1203
Vonset
p1199
sI1204
VpH
p1200
sI1205
Vpathway
p1201
sI1206
Vphysicians
p1202
sI1207
Vpopulation
p1203
sI1208
Vprednisolone
p1204
sI1209
Vproton
p1205
sI1210
Vpump
p1206
sI1211
Vreduces
p1207
sI1212
Vregimens
p1208
sI1213
Vrisks
p1209
sI1214
Vsafely
p1210
sI1215
Vsometimes
p1211
sI1216
Vstarting
p1212
sI1217
Vsulfamethoxazole
p1213
sI1218
Vtetracycline
p1214
sI1219
Vtherapies
p1215
sI1220
Vtransient
p1216
sI1221
Vtroleandomycin
p1217
sI1222
Vvery
p1218
sI1223
V9E9
p1219
sI1224
VAMEVIVE
p1220
sI1225
VAND
p1221
sI1226
VAbsorption
p1222
sI1227
VAmiodarone
p1223
sI1228
VAnimal
p1224
sI1229
VAntibiotics
p1225
sI1230
VAnticholinergic
p1226
sI1231
VCELEBREX
p1227
sI1232
VD9
p1228
sI1233
VElevated
p1229
sI1234
VFORADIL
p1230
sI1235
VFurthermore
p1231
sI1236
VGiven
p1232
sI1237
VIV
p1233
sI1238
VInternational
p1234
sI1239
VMagnesium
p1235
sI1240
VMexitil
p1236
sI1241
VMonoamine
p1237
sI1242
VNevirapine
p1238
sI1243
VNormalized
p1239
sI1244
VPopulation
p1240
sI1245
VR
sI1246
VRatio
p1241
sI1247
VSaquinavir
p1242
sI1248
Vacetylsalicylic
p1243
sI1249
Vachieve
p1244
sI1250
Valiskiren
p1245
sI1251
Vallergic
p1246
sI1252
Vamines
p1247
sI1253
Vanagrelide
p1248
sI1254
Vantiepileptic
p1249
sI1255
Vantipyrine
p1250
sI1256
Vapproached
p1251
sI1257
Vaprepitant
p1252
sI1258
Vbaseline
p1253
sI1259
Vbenefits
p1254
sI1260
Vbronchodilators
p1255
sI1261
Vbutyrophenones
p1256
sI1262
Vcefdinir
p1257
sI1263
Vcephalosporins
p1258
sI1264
Vchlordiazepoxide
p1259
sI1265
Vcontraception
p1260
sI1266
Vcurve
p1261
sI1267
Vcyclosporin
p1262
sI1268
Vdeficiency
p1263
sI1269
Vdelayed
p1264
sI1270
Vdemonstrate
p1265
sI1271
Vdesirable
p1266
sI1272
Vdiarrhea
p1267
sI1273
Vdisturbances
p1268
sI1274
Velapse
p1269
sI1275
Velderly
p1270
sI1276
Venzymatic
p1271
sI1277
Vetodolac
p1272
sI1278
Vexcreted
p1273
sI1279
Vextensively
p1274
sI1280
Vfexofenadine
p1275
sI1281
Vfinding
p1276
sI1282
Vfour
p1277
sI1283
Vfulvestrant
p1278
sI1284
Vglobulin
p1279
sI1285
Vhormones
p1280
sI1286
Vhydroxy
p1281
sI1287
Vinducing
p1282
sI1288
Vinfarction
p1283
sI1289
Vinhalation
p1284
sI1290
Vinhaled
p1285
sI1291
Vinsufficiency
p1286
sI1292
Vintensify
p1287
sI1293
Vlevothyroxine
p1288
sI1294
Vlidocaine
p1289
sI1295
Vlipid
p1290
sI1296
Vliterature
p1291
sI1297
Vlittle
p1292
sI1298
Vlive
p1293
sI1299
Vlorazepam
p1294
sI1300
Vlosartan
p1295
sI1301
Vmake
p1296
sI1302
Vmilk
p1297
sI1303
Vmind
p1298
sI1304
Vminimized
p1299
sI1305
Vmycophenolate
p1300
sI1306
Vnarcotic
p1301
sI1307
Vnasal
p1302
sI1308
Vnorfloxacin
p1303
sI1309
Voccasionally
p1304
sI1310
Vorthostatic
p1305
sI1311
Vparticular
p1306
sI1312
Vphosphorylation
p1307
sI1313
Vpimozide
p1308
sI1314
Vpramipexole
p1309
sI1315
Vpravastatin
p1310
sI1316
Vpredominantly
p1311
sI1317
Vproblems
p1312
sI1318
Vproduct
p1313
sI1319
Vpropoxyphene
p1314
sI1320
Vpsychotropic
p1315
sI1321
Vpulmonary
p1316
sI1322
Vrecovery
p1317
sI1323
Vresponsiveness
p1318
sI1324
Vshort
p1319
sI1325
Vslightly
p1320
sI1326
Vspironolactone
p1321
sI1327
Vsulfonamides
p1322
sI1328
Vsupervision
p1323
sI1329
Vtheoretically
p1324
sI1330
Vthioridazine
p1325
sI1331
Vthyroxine
p1326
sI1332
Vtolerated
p1327
sI1333
Vtransplant
p1328
sI1334
Vtrimethoprim
p1329
sI1335
Vvaccines
p1330
sI1336
Vvarious
p1331
sI1337
Vweak
p1332
sI1338
Vwomen
p1333
sI1339
Vwort
p1334
sI1340
V9A
p1335
sI1341
VALFENTA
p1336
sI1342
VAUC9
p1337
sI1343
VAccordingly
p1338
sI1344
VAcetazolamide
p1339
sI1345
VAfter
p1340
sI1346
VAt
p1341
sI1347
VBE
p1342
sI1348
VBinding
p1343
sI1349
VC.P.A
p1344
sI1350
VCAMPTOSAR
p1345
sI1351
VCANCIDAS
p1346
sI1352
VCalcium
p1347
sI1353
VCapsules
p1348
sI1354
VCareful
p1349
sI1355
VCatecholamine
p1350
sI1356
VClass
p1351
sI1357
VD.H.E
p1352
sI1358
VData
p1353
sI1359
VDosage
p1354
sI1360
VEXTRANEAL
p1355
sI1361
VEthinyl
p1356
sI1362
VHg
p1357
sI1363
VIII
p1358
sI1364
VINSPRA
p1359
sI1365
VIncreasing
p1360
sI1366
VIndinavir
p1361
sI1367
VJohn
p1362
sI1368
VKeppra
p1363
sI1369
VLodine
p1364
sI1370
VMyfortic
p1365
sI1371
VN=9
p1366
sI1372
VNS
p1367
sI1373
VNSAID
p1368
sI1374
VOf
p1369
sI1375
VPregnancy
p1370
sI1376
VROMAZICON
p1371
sI1377
VRenal
p1372
sI1378
VSKELID
p1373
sI1379
VSTADOL
p1374
sI1380
VShould
p1375
sI1381
VSt
p1376
sI1382
VSupplements
p1377
sI1383
VTAMBOCOR
p1378
sI1384
VTO
p1379
sI1385
VTRICOR
p1380
sI1386
VType
p1381
sI1387
VVIII
p1382
sI1388
VValproate
p1383
sI1389
VXigris
p1384
sI1390
VZETIA
p1385
sI1391
Vaccordingly
p1386
sI1392
Vacidifying
p1387
sI1393
Vadult
p1388
sI1394
Vage
p1389
sI1395
Valbumin
p1390
sI1396
Valternative
p1391
sI1397
Vanakinra
p1392
sI1398
Vanalysis
p1393
sI1399
Vandrogens
p1394
sI1400
Vangina
p1395
sI1401
Vanticipated
p1396
sI1402
Vanticoagulation
p1397
sI1403
Vantigen
p1398
sI1404
Vantithrombin
p1399
sI1405
Vapproximate
p1400
sI1406
Varrest
p1401
sI1407
Varrhythmia
p1402
sI1408
Varthritis
p1403
sI1409
Vassay
p1404
sI1410
Vasthma
p1405
sI1411
Vbenefit
p1406
sI1412
Vbenzodiazepine
p1407
sI1413
Vbilirubin
p1408
sI1414
Vbumetanide
p1409
sI1415
Vcapsule
p1410
sI1416
Vcarbonate
p1411
sI1417
Vcarvedilol
p1412
sI1418
Vcetirizine
p1413
sI1419
Vchloroquine
p1414
sI1420
Vclofibrate
p1415
sI1421
Vcoma
p1416
sI1422
Vcompetitive
p1417
sI1423
Vcontinued
p1418
sI1424
Vcurrently
p1419
sI1425
Vde
p1420
sI1426
Vdeveloped
p1421
sI1427
Vdevelopment
p1422
sI1428
Vdipyridamole
p1423
sI1429
Vdisplace
p1424
sI1430
Vdistribution
p1425
sI1431
Vduloxetine
p1426
sI1432
Ve.
p1427
sI1433
Velectrolyte
p1428
sI1434
Vesomeprazole
p1429
sI1435
Vethosuximide
p1430
sI1436
Veuthyroid
p1431
sI1437
Vevaluate
p1432
sI1438
Vevaluating
p1433
sI1439
Vevening
p1434
sI1440
Vexceed
p1435
sI1441
Vexhibit
p1436
sI1442
Vexists
p1437
sI1443
Vfailed
p1438
sI1444
Vfindings
p1439
sI1445
Vformation
p1440
sI1446
Vg.
p1441
sI1447
Vgriseofulvin
p1442
sI1448
Vgrowth
p1443
sI1449
Vhepatotoxic
p1444
sI1450
Vhydralazine
p1445
sI1451
Vhypertensive
p1446
sI1452
Vi.e.
p1447
sI1453
Videntified
p1448
sI1454
Vie
p1449
sI1455
Vimportance
p1450
sI1456
Vloop
p1451
sI1457
Vmagnitude
p1452
sI1458
Vmainly
p1453
sI1459
Vmaintained
p1454
sI1460
Vmales
p1455
sI1461
Vmeal
p1456
sI1462
Vmen
p1457
sI1463
Vmetronidazole
p1458
sI1464
Vmexiletine
p1459
sI1465
Vmild
p1460
sI1466
Vminor
p1461
sI1467
Vmm
p1462
sI1468
Vmodest
p1463
sI1469
Vmonkeys
p1464
sI1470
Vneither
p1465
sI1471
Vneuropathy
p1466
sI1472
Vng
p1467
sI1473
Votherwise
p1468
sI1474
Voxide
p1469
sI1475
Vpantoprazole
p1470
sI1476
Vpenicillins
p1471
sI1477
Vperiodic
p1472
sI1478
Vpreviously
p1473
sI1479
Vprobably
p1474
sI1480
Vprofound
p1475
sI1481
Vpronounced
p1476
sI1482
Vprophylaxis
p1477
sI1483
Vquinine
p1478
sI1484
Vracemic
p1479
sI1485
Vraise
p1480
sI1486
Vreductions
p1481
sI1487
Vrelative
p1482
sI1488
Vrenin
p1483
sI1489
Vresistance
p1484
sI1490
Vsecondary
p1485
sI1491
Vseizures
p1486
sI1492
Vsimvastatin
p1487
sI1493
Vskeletal
p1488
sI1494
Vslight
p1489
sI1495
Vslow
p1490
sI1496
Vsolutions
p1491
sI1497
Vspecifically
p1492
sI1498
Vstabilized
p1493
sI1499
Vstatistically
p1494
sI1500
Vstatus
p1495
sI1501
Vstavudine
p1496
sI1502
Vstomach
p1497
sI1503
Vsubstantially
p1498
sI1504
Vsuggests
p1499
sI1505
Vsulfonylurea
p1500
sI1506
Vsyncope
p1501
sI1507
Vsyndrome
p1502
sI1508
Vsystematically
p1503
sI1509
Vsystems
p1504
sI1510
Vthough
p1505
sI1511
Vtract
p1506
sI1512
Vtubocurarine
p1507
sI1513
Vunaffected
p1508
sI1514
Vundergoing
p1509
sI1515
Vupon
p1510
sI1516
Vvascular
p1511
sI1517
Vvitamins
p1512
sI1518
Vvs
p1513
sI1519
Vwhose
p1514
sI1520
V9C
p1515
sI1521
VALT
p1516
sI1522
VAcarbose
p1517
sI1523
VAcetaminophen
p1518
sI1524
VAll
p1519
sI1525
VBenzodiazepines
p1520
sI1526
VCYP9E9
p1521
sI1527
VClarithromycin
p1522
sI1528
VClinitest
p1523
sI1529
VClose
p1524
sI1530
VCoadministered
p1525
sI1531
VCoombs
p1526
sI1532
VErgot
p1527
sI1533
VExcessive
p1528
sI1534
VExjade
p1529
sI1535
VFluvoxamine
p1530
sI1536
VGlyburide
p1531
sI1537
VHCTZ
p1532
sI1538
VHIVID
p1533
sI1539
VHepatic
p1534
sI1540
VINVIRASE
p1535
sI1541
VIbandronate
p1536
sI1542
VIncreases
p1537
sI1543
VInjectable
p1538
sI1544
VLapatinib
p1539
sI1545
VM
sI1546
VMAOIs
p1540
sI1547
VMIVACRON
p1541
sI1548
VMOBIC
p1542
sI1549
VMaalox
p1543
sI1550
VMonitoring
p1544
sI1551
VNelfinavir
p1545
sI1552
VPossible
p1546
sI1553
VPotentiation
p1547
sI1554
VProtease
p1548
sI1555
VReduced
p1549
sI1556
VResults
p1550
sI1557
VRifabutin
p1551
sI1558
VSensipar
p1552
sI1559
VSerious
p1553
sI1560
VSignificant
p1554
sI1561
VSonata
p1555
sI1562
VSpecific
p1556
sI1563
VT
sI1564
VTBG
p1557
sI1565
VTBg
p1558
sI1566
VTo
p1559
sI1567
Vabruptly
p1560
sI1568
Vabsence
p1561
sI1569
Vaccidental
p1562
sI1570
Vachieved
p1563
sI1571
Vadd
p1564
sI1572
Vadenosine
p1565
sI1573
Vadrenal
p1566
sI1574
Valert
p1567
sI1575
Valkaline
p1568
sI1576
Vallergens
p1569
sI1577
Vamantadine
p1570
sI1578
Vamiloride
p1571
sI1579
Vaminosalicylic
p1572
sI1580
Vamong
p1573
sI1581
Vamount
p1574
sI1582
Vamprenavir
p1575
sI1583
Vanalyses
p1576
sI1584
Vanaphylactic
p1577
sI1585
Vanhydrase
p1578
sI1586
Vanimal
p1579
sI1587
Vantagonism
p1580
sI1588
Vantifungals
p1581
sI1589
Vantihypertensives
p1582
sI1590
Vatazanavir
p1583
sI1591
Vattenuated
p1584
sI1592
Vbactericidal
p1585
sI1593
Vblockade
p1586
sI1594
Vbuspirone
p1587
sI1595
Vbutorphanol
p1588
sI1596
Vcancer
p1589
sI1597
Vcarbonic
p1590
sI1598
Vcelecoxib
p1591
sI1599
Vchallenge
p1592
sI1600
Vcharacterized
p1593
sI1601
Vchlorpromazine
p1594
sI1602
Vchlorpropamide
p1595
sI1603
Vcholinesterase
p1596
sI1604
Vchronically
p1597
sI1605
Vciclesonide
p1598
sI1606
Vclasses
p1599
sI1607
Vclotting
p1600
sI1608
Vcombinations
p1601
sI1609
Vcommon
p1602
sI1610
Vcondition
p1603
sI1611
Vconsider
p1604
sI1612
Vcoronary
p1605
sI1613
Vcounteract
p1606
sI1614
Vcytotoxic
p1607
sI1615
Vdelavirdine
p1608
sI1616
Vdepend
p1609
sI1617
Vdescribed
p1610
sI1618
Vdevelop
p1611
sI1619
Vdexfenfluramine
p1612
sI1620
Vdirect
p1613
sI1621
Vdoxycycline
p1614
sI1622
Velectrocardiographic
p1615
sI1623
Vendocrine
p1616
sI1624
Venflurane
p1617
sI1625
Ventacapone
p1618
sI1626
Veplerenone
p1619
sI1627
Vertapenem
p1620
sI1628
Vessential
p1621
sI1629
Vestazolam
p1622
sI1630
Veszopiclone
p1623
sI1631
Vethacrynic
p1624
sI1632
Vexperiences
p1625
sI1633
Vexposures
p1626
sI1634
Vextensive
p1627
sI1635
Vextreme
p1628
sI1636
Vfat
p1629
sI1637
Vfenoprofen
p1630
sI1638
Vfentanyl
p1631
sI1639
Vferrous
p1632
sI1640
Vfibrates
p1633
sI1641
Vflushing
p1634
sI1642
Vfolic
p1635
sI1643
Vfully
p1636
sI1644
Vglucocorticoids
p1637
sI1645
Vgroups
p1638
sI1646
Vguanfacine
p1639
sI1647
Vhyperkalemia
p1640
sI1648
Vhypoprothrombinemia
p1641
sI1649
Vincluded
p1642
sI1650
Vindex
p1643
sI1651
Vindicating
p1644
sI1652
Vindices
p1645
sI1653
Vinfusions
p1646
sI1654
Vinterferes
p1647
sI1655
Vinterferon
p1648
sI1656
Vinterleukin
p1649
sI1657
Vintracellular
p1650
sI1658
Vintravenously
p1651
sI1659
Vinvestigated
p1652
sI1660
Viodine
p1653
sI1661
Visoforms
p1654
sI1662
Vkept
p1655
sI1663
Vkinetics
p1656
sI1664
Vlack
p1657
sI1665
Vlast
p1658
sI1666
Vlesser
p1659
sI1667
Vlonger
p1660
sI1668
Vm
sI1669
Vmeasurement
p1661
sI1670
Vmefenamic
p1662
sI1671
Vmenstrual
p1663
sI1672
Vmeperidine
p1664
sI1673
Vmethylergonovine
p1665
sI1674
Vmethylxanthines
p1666
sI1675
Vmiconazole
p1667
sI1676
Vmin
p1668
sI1677
Vmirtazapine
p1669
sI1678
Vmofetil
p1670
sI1679
Vnefazodone
p1671
sI1680
Vneutropenia
p1672
sI1681
Vnicotinic
p1673
sI1682
Vnitroprusside
p1674
sI1683
Vnortriptyline
p1675
sI1684
Vobservations
p1676
sI1685
Voccurrence
p1677
sI1686
Volder
p1678
sI1687
Vophthalmic
p1679
sI1688
Vorganic
p1680
sI1689
Vototoxicity
p1681
sI1690
Voutweigh
p1682
sI1691
Voxyphenbutazone
p1683
sI1692
Voxytocic
p1684
sI1693
Vper
p1685
sI1694
Vperindopril
p1686
sI1695
Vpharmacology
p1687
sI1696
Vpiperacillin
p1688
sI1697
Vpiroxicam
p1689
sI1698
Vpointes
p1690
sI1699
Vpose
p1691
sI1700
Vpostural
p1692
sI1701
Vpralidoxime
p1693
sI1702
Vprescription
p1694
sI1703
Vprevent
p1695
sI1704
Vprocaine
p1696
sI1705
Vproduction
p1697
sI1706
Vprogesterone
p1698
sI1707
Vprogestin
p1699
sI1708
Vradioimmunoassay
p1700
sI1709
Vrash
p1701
sI1710
Vrelaxant
p1702
sI1711
Vrequiring
p1703
sI1712
Vresemble
p1704
sI1713
Vresins
p1705
sI1714
Vretard
p1706
sI1715
Vribavirin
p1707
sI1716
Vseizure
p1708
sI1717
Vselegiline
p1709
sI1718
Vsensitivity
p1710
sI1719
Vsensitize
p1711
sI1720
Vso
p1712
sI1721
Vspecies
p1713
sI1722
Vsubsequent
p1714
sI1723
Vsubsequently
p1715
sI1724
Vsuitable
p1716
sI1725
Vsupplement
p1717
sI1726
Vsuppression
p1718
sI1727
Vsurgery
p1719
sI1728
Vsustained
p1720
sI1729
Vsympathomimetics
p1721
sI1730
Vsystolic
p1722
sI1731
Vteniposide
p1723
sI1732
Vtesting
p1724
sI1733
Vtitration
p1725
sI1734
Vtramadol
p1726
sI1735
Vupper
p1727
sI1736
Vuptake
p1728
sI1737
Vvariability
p1729
sI1738
Vvariable
p1730
sI1739
Vvertigo
p1731
sI1740
V's
p1732
sI1741
V**
p1733
sI1742
V9a
p1734
sI1743
V9hr
p1735
sI1744
V9mg
p1736
sI1745
VA.C
p1737
sI1746
VACEON
p1738
sI1747
VALIMTA
p1739
sI1748
VAST
p1740
sI1749
VAdditional
p1741
sI1750
VAdditionally
p1742
sI1751
VAdditive
p1743
sI1752
VAllopurinol
p1744
sI1753
VAmprenavir
p1745
sI1754
VAnticonvulsants
p1746
sI1755
VArgatroban
p1747
sI1756
VBROVANA
p1748
sI1757
VBSA
p1749
sI1758
VBenedict
p1750
sI1759
VBlood
p1751
sI1760
VCOPD
p1752
sI1761
VCPK
p1753
sI1762
VCisapride
p1754
sI1763
VClinically
p1755
sI1764
VComment
p1756
sI1765
VCoumarin
p1757
sI1766
VDIPRIVAN
p1758
sI1767
VDOSAGE
p1759
sI1768
VDRUG
p1760
sI1769
VDiuretic
p1761
sI1770
VDopamine
p1762
sI1771
VEmulsion
p1763
sI1772
VEnzymes
p1764
sI1773
VEthanol
p1765
sI1774
VFollowing
p1766
sI1775
VFree
p1767
sI1776
VGel
p1768
sI1777
VHT9
p1769
sI1778
VHeparin
p1770
sI1779
VI
sI1780
VIRESSA
p1771
sI1781
VIX
p1772
sI1782
VImpairment
p1773
sI1783
VInsulin
p1774
sI1784
VKi
p1775
sI1785
VMEPRON
p1776
sI1786
VMTX
p1777
sI1787
VMost
p1778
sI1788
VNeurontin
p1779
sI1789
VNot
p1780
sI1790
VOF
p1781
sI1791
VOmeprazole
p1782
sI1792
VOxidase
p1783
sI1793
VPBI
p1784
sI1794
VPediatric
p1785
sI1795
VPhase
p1786
sI1796
VPoor
p1787
sI1797
VREMERON
p1788
sI1798
VREVIA
p1789
sI1799
VReaction
p1790
sI1800
VReductase
p1791
sI1801
VRitonavir
p1792
sI1802
VSGOT
p1793
sI1803
VSYMLIN
p1794
sI1804
VSalicylates
p1795
sI1805
VSevere
p1796
sI1806
VSimulect
p1797
sI1807
VStarlix
p1798
sI1808
VSteady
p1799
sI1809
VStudy
p1800
sI1810
VSystemic
p1801
sI1811
VTNF
p1802
sI1812
VTherapy
p1803
sI1813
VThiazide
p1804
sI1814
VXR
p1805
sI1815
Vaccompanied
p1806
sI1816
Vadjusting
p1807
sI1817
Valbendazole
p1808
sI1818
Vamoxicillin
p1809
sI1819
Vantipsychotics
p1810
sI1820
Vantiretroviral
p1811
sI1821
Vassess
p1812
sI1822
Vbaclofen
p1813
sI1823
Vbacteriostatic
p1814
sI1824
Vbepridil
p1815
sI1825
Vbeta9
p1816
sI1826
Vbind
p1817
sI1827
Vbirth
p1818
sI1828
Vbismuth
p1819
sI1829
Vbolus
p1820
sI1830
Vbreakthrough
p1821
sI1831
Vcapecitabine
p1822
sI1832
Vcaspofungin
p1823
sI1833
Vcatalyzed
p1824
sI1834
Vcausal
p1825
sI1835
Vcautious
p1826
sI1836
Vceftibuten
p1827
sI1837
Vcentrally
p1828
sI1838
Vchance
p1829
sI1839
Vchanged
p1830
sI1840
Vchanging
p1831
sI1841
Vchewable
p1832
sI1842
Vchloral
p1833
sI1843
Vchloride
p1834
sI1844
Vcmax
p1835
sI1845
Vcodeine
p1836
sI1846
Vconjugation
p1837
sI1847
Vconsiderably
p1838
sI1848
Vcontrast
p1839
sI1849
Vconversion
p1840
sI1850
Vconverting
p1841
sI1851
Vcount
p1842
sI1852
Vcrossover
p1843
sI1853
Vcyclophosphamide
p1844
sI1854
Vderivative
p1845
sI1855
Vdextran
p1846
sI1856
Vdiabetics
p1847
sI1857
Vdicumarol
p1848
sI1858
Vdigitoxin
p1849
sI1859
Vdihydropyridine
p1850
sI1860
Vdirithromycin
p1851
sI1861
Vdiscontinue
p1852
sI1862
Vdisposition
p1853
sI1863
Vdone
p1854
sI1864
Vdoxazosin
p1855
sI1865
Vdrowsiness
p1856
sI1866
Vdry
p1857
sI1867
Vedema
p1858
sI1868
Veight
p1859
sI1869
Vemptying
p1860
sI1870
Vetoposide
p1861
sI1871
Vexamples
p1862
sI1872
Vfamotidine
p1863
sI1873
Vfetal
p1864
sI1874
Vfinasteride
p1865
sI1875
Vfollow
p1866
sI1876
Vformulations
p1867
sI1877
Vgentamicin
p1868
sI1878
Vglipizide
p1869
sI1879
Vglucocorticoid
p1870
sI1880
Vglucuronidation
p1871
sI1881
Vglutamine
p1872
sI1882
Vgoing
p1873
sI1883
Vgradual
p1874
sI1884
Vhaving
p1875
sI1885
Vhepatitis
p1876
sI1886
Vhydrate
p1877
sI1887
Vhydrodolasetron
p1878
sI1888
Vhyperreflexia
p1879
sI1889
Vhypothyroid
p1880
sI1890
Viloprost
p1881
sI1891
Vimatinib
p1882
sI1892
Vimpair
p1883
sI1893
Vincoordination
p1884
sI1894
Vinduces
p1885
sI1895
Vinfected
p1886
sI1896
Vinterference
p1887
sI1897
Vinterrupted
p1888
sI1898
Visoform
p1889
sI1899
Vketorolac
p1890
sI1900
Vkidney
p1891
sI1901
Vlansoprazole
p1892
sI1902
Vlapatinib
p1893
sI1903
Vlikelihood
p1894
sI1904
VmEq
p1895
sI1905
Vman
p1896
sI1906
Vmeclofenamate
p1897
sI1907
Vmedical
p1898
sI1908
Vmelatonin
p1899
sI1909
Vmercaptopurine
p1900
sI1910
Vminimal
p1901
sI1911
Vmixing
p1902
sI1912
Vmm9
p1903
sI1913
Vmouse
p1904
sI1914
Vmuch
p1905
sI1915
Vmyocardium
p1906
sI1916
Vneonates
p1907
sI1917
Vneurological
p1908
sI1918
Vneurotoxic
p1909
sI1919
Vnisoldipine
p1910
sI1920
Vnitrous
p1911
sI1921
Voverdosage
p1912
sI1922
Vpaclitaxel
p1913
sI1923
Vpain
p1914
sI1924
Vpancreatitis
p1915
sI1925
Vpathways
p1916
sI1926
Vphenelzine
p1917
sI1927
Vpostmarketing
p1918
sI1928
Vprecautions
p1919
sI1929
Vprecipitate
p1920
sI1930
Vpreclude
p1921
sI1931
Vprednisone
p1922
sI1932
Vpreparation
p1923
sI1933
Vprocedures
p1924
sI1934
Vprovided
p1925
sI1935
Vpruritus
p1926
sI1936
Vpublished
p1927
sI1937
Vquite
p1928
sI1938
Vreasonable
p1929
sI1939
Vregularly
p1930
sI1940
Vrequires
p1931
sI1941
Vrevealed
p1932
sI1942
Vreverse
p1933
sI1943
Vrheumatoid
p1934
sI1944
Vrifampicin
p1935
sI1945
Vrivastigmine
p1936
sI1946
Vrofecoxib
p1937
sI1947
Vroute
p1938
sI1948
Vsalicylic
p1939
sI1949
Vsamples
p1940
sI1950
Vsection
p1941
sI1951
Vserotonergic
p1942
sI1952
Vseverity
p1943
sI1953
Vsite
p1944
sI1954
Vslowly
p1945
sI1955
Vsmaller
p1946
sI1956
Vspecial
p1947
sI1957
Vstandard
p1948
sI1958
Vstates
p1949
sI1959
Vstimulating
p1950
sI1960
Vstopping
p1951
sI1961
Vsubcutaneous
p1952
sI1962
Vsubstantial
p1953
sI1963
Vsuffering
p1954
sI1964
Vsugar
p1955
sI1965
Vsulfasalazine
p1956
sI1966
Vsulfinpyrazone
p1957
sI1967
Vsulindac
p1958
sI1968
Vsusceptible
p1959
sI1969
Vsuspension
p1960
sI1970
Vswitching
p1961
sI1971
Vtamoxifen
p1962
sI1972
Vtend
p1963
sI1973
Vterazosin
p1964
sI1974
Vtheoretical
p1965
sI1975
Vthird
p1966
sI1976
Vthrombocytopenia
p1967
sI1977
Vtissues
p1968
sI1978
Vtolerance
p1969
sI1979
Vtoo
p1970
sI1980
Vtrue
p1971
sI1981
Vtumors
p1972
sI1982
Vulceration
p1973
sI1983
Vunbound
p1974
sI1984
Vunresponsive
p1975
sI1985
Vusers
p1976
sI1986
Vvalue
p1977
sI1987
Vvasodilators
p1978
sI1988
Vvirus
p1979
sI1989
Vvolatile
p1980
sI1990
Vvomiting
p1981
sI1991
Vxanthine
p1982
sI1992
Vzinc
p1983
sI1993
V~9
p1984
sI1994
V+
sI1995
VACTH
p1985
sI1996
VADMINISTRATION
p1986
sI1997
VAED
p1987
sI1998
VAVONEX
p1988
sI1999
VAXERT
p1989
sI2000
VAdjustment
p1990
sI2001
VAerosol
p1991
sI2002
VAffect
p1992
sI2003
VAgonist
p1993
sI2004
VAlso
p1994
sI2005
VAmphotericin
p1995
sI2006
VAnabolic
p1996
sI2007
VAnaphylactic
p1997
sI2008
VAngiomax
p1998
sI2009
VAngiotensin
p1999
sI2010
VAntagonists
p2000
sI2011
VAnticholinergics
p2001
sI2012
VAntidepressants
p2002
sI2013
VAntidiabetic
p2003
sI2014
VAntiepileptic
p2004
sI2015
VAntihypertensive
p2005
sI2016
VAntimycobacterial
p2006
sI2017
VAppropriate
p2007
sI2018
VAtromid
p2008
sI2019
VAvailable
p2009
sI2020
VBarbiturates
p2010
sI2021
VBepridil
p2011
sI2022
VBlocking
p2012
sI2023
VCONTRAINDICATIONS
p2013
sI2024
VCOPAXONE
p2014
sI2025
VCOPEGUS
p2015
sI2026
VCYP9B9
p2016
sI2027
VCaffeine
p2017
sI2028
VCalcitonin
p2018
sI2029
VCarcinogenesis
p2019
sI2030
VCardiovascular
p2020
sI2031
VCephalosporins
p2021
sI2032
VChanges
p2022
sI2033
VClinistix
p2023
sI2034
VCorticotropin
p2024
sI2035
VCurrently
p2025
sI2036
VDecreased
p2026
sI2037
VDepending
p2027
sI2038
VDidanosine
p2028
sI2039
VDoses
p2029
sI2040
VDromoran
p2030
sI2041
VDynaCirc
p2031
sI2042
VEPA
p2032
sI2043
VEfavirenz
p2033
sI2044
VEnzyme
p2034
sI2045
VEpinephrine
p2035
sI2046
VEstablished
p2036
sI2047
VEstrogens
p2037
sI2048
VFACTIVE
p2038
sI2049
VFELDENE
p2039
sI2050
VFLOLAN
p2040
sI2051
VFLOMAX
p2041
sI2052
VFehling
p2042
sI2053
VFehlings
p2043
sI2054
VFentanyl
p2044
sI2055
VFood
p2045
sI2056
VFormal
p2046
sI2057
VFulvestrant
p2047
sI2058
VGeneral
p2048
sI2059
VHormonal
p2049
sI2060
VHypotension
p2050
sI2061
VIN
p2051
sI2062
VINTERACTIONS
p2052
sI2063
VIbuprofen
p2053
sI2064
VImportant
p2054
sI2065
VInduce
p2055
sI2066
VInhibition
p2056
sI2067
VIsocarboxazid
p2057
sI2068
VL9
p2058
sI2069
VLDL
p2059
sI2070
VLEVELS
p2060
sI2071
VLevo
p2061
sI2072
VLimited
p2062
sI2073
VLotensin
p2063
sI2074
VM9
p2064
sI2075
VMephenytoin
p2065
sI2076
VMonitor
p2066
sI2077
VNEXAVAR
p2067
sI2078
VNOT
p2068
sI2079
VName
p2069
sI2080
VNaproxen
p2070
sI2081
VNephrotoxicity
p2071
sI2082
VOR
p2072
sI2083
VORENCIA
p2073
sI2084
VOn
p2074
sI2085
VP9IID9
p2075
sI2086
VPotentially
p2076
sI2087
VPreliminary
p2077
sI2088
VPropranolol
p2078
sI2089
VProthrombin
p2079
sI2090
VQRS
p2080
sI2091
VRAPTIVA
p2081
sI2092
VRelease
p2082
sI2093
VRisk
p2083
sI2094
VS.D
p2084
sI2095
VSHOULD
p2085
sI2096
VSelective
p2086
sI2097
VSeveral
p2087
sI2098
VSkeletal
p2088
sI2099
VSolTab
p2089
sI2100
VSolution
p2090
sI2101
VSubstances
p2091
sI2102
VSumatriptan
p2092
sI2103
VSyrup
p2093
sI2104
VTARCEVA
p2094
sI2105
VTHE
p2095
sI2106
VTID
p2096
sI2107
VTRACLEER
p2097
sI2108
VTYSABRI
p2098
sI2109
VTagamet
p2099
sI2110
VTerfenadine
p2100
sI2111
VThyroid
p2101
sI2112
VUDP
p2102
sI2113
VUNIVASC
p2103
sI2114
VVERSED
p2104
sI2115
VWARNINGS
p2105
sI2116
VWITH
p2106
sI2117
VWelChol
p2107
sI2118
VZEBETA
p2108
sI2119
VZEMURON
p2109
sI2120
Vaccentuate
p2110
sI2121
Vaccording
p2111
sI2122
Vaccount
p2112
sI2123
Vacids
p2113
sI2124
Vadequately
p2114
sI2125
Vadjust
p2115
sI2126
Vaffinity
p2116
sI2127
Valbuterol
p2117
sI2128
Valdehyde
p2118
sI2129
Valkalinizing
p2119
sI2130
Valternatives
p2120
sI2131
Vamylase
p2121
sI2132
Vanabolic
p2122
sI2133
Vantagonized
p2123
sI2134
Vantibiotic
p2124
sI2135
Vanticholinergics
p2125
sI2136
Vantifungal
p2126
sI2137
Vantiplatelet
p2127
sI2138
Vantipsychotic
p2128
sI2139
Vapomorphine
p2129
sI2140
Vappropriately
p2130
sI2141
Vartery
p2131
sI2142
Vassure
p2132
sI2143
Vattention
p2133
sI2144
Vbacitracin
p2134
sI2145
Vbase
p2135
sI2146
Vbegins
p2136
sI2147
Vbicarbonate
p2137
sI2148
Vblocks
p2138
sI2149
Vblurred
p2139
sI2150
Vbronchospasm
p2140
sI2151
Vbuffered
p2141
sI2152
Vbuprenorphine
p2142
sI2153
Vc
sI2154
Vcalcitriol
p2143
sI2155
Vcapable
p2144
sI2156
Vcardioactive
p2145
sI2157
Vcationic
p2146
sI2158
Vcephalexin
p2147
sI2159
Vcephalosporin
p2148
sI2160
Vcephalothin
p2149
sI2161
Vcessation
p2150
sI2162
Vchildbearing
p2151
sI2163
Vchildren
p2152
sI2164
Vchlorprothixene
p2153
sI2165
Vclindamycin
p2154
sI2166
Vcolistin
p2155
sI2167
Vcollapse
p2156
sI2168
Vcolumn
p2157
sI2169
Vcompetition
p2158
sI2170
Vcomponents
p2159
sI2171
Vconfirmed
p2160
sI2172
Vcontains
p2161
sI2173
Vcorrected
p2162
sI2174
Vdanger
p2163
sI2175
Vdantrolene
p2164
sI2176
Vdapsone
p2165
sI2177
Vdasatinib
p2166
sI2178
Vdeaths
p2167
sI2179
Vdebrisoquin
p2168
sI2180
Vdecarboxylase
p2169
sI2181
Vdecreasing
p2170
sI2182
Vdepress
p2171
sI2183
Vdepressed
p2172
sI2184
Vdepresses
p2173
sI2185
Vdetected
p2174
sI2186
Vdeterioration
p2175
sI2187
Vdeterminant
p2176
sI2188
Vdeveloping
p2177
sI2189
Vdiazoxide
p2178
sI2190
Vdisplaced
p2179
sI2191
Vdivalent
p2180
sI2192
Vdobutamine
p2181
sI2193
Vdocumented
p2182
sI2194
Vdolasetron
p2183
sI2195
Vdopa
p2184
sI2196
Vdosages
p2185
sI2197
Vdrops
p2186
sI2198
Veffectively
p2187
sI2199
Velemental
p2188
sI2200
Velevate
p2189
sI2201
Vendogenous
p2190
sI2202
Venhancement
p2191
sI2203
Venteric
p2192
sI2204
Vepileptic
p2193
sI2205
Vepirubicin
p2194
sI2206
Vequivalent
p2195
sI2207
Vergocalcitriol
p2196
sI2208
Vetanercept
p2197
sI2209
Vexcept
p2198
sI2210
Vexcluded
p2199
sI2211
Vexpect
p2200
sI2212
Vexposed
p2201
sI2213
Veye
p2202
sI2214
Vfasting
p2203
sI2215
Vfenofibrate
p2204
sI2216
Vfibrillation
p2205
sI2217
Vfibrinogen
p2206
sI2218
Vfluorouracil
p2207
sI2219
Vfondaparinux
p2208
sI2220
Vfoods
p2209
sI2221
Vformally
p2210
sI2222
Vforms
p2211
sI2223
Vfosinopril
p2212
sI2224
Vfosphenytoin
p2213
sI2225
Vganglionic
p2214
sI2226
Vgonadotropin
p2215
sI2227
Vh
sI2228
Vhemorrhage
p2216
sI2229
Vhistamine
p2217
sI2230
Vhrs
p2218
sI2231
Vhydrocodone
p2219
sI2232
Vhydrolase
p2220
sI2233
Vhydroxyurea
p2221
sI2234
Vhypnotic
p2222
sI2235
Vimmediate
p2223
sI2236
Vimmediately
p2224
sI2237
Vimmune
p2225
sI2238
Vincludes
p2226
sI2239
Vinfections
p2227
sI2240
Vingesting
p2228
sI2241
Vinhalational
p2229
sI2242
Vinotropic
p2230
sI2243
Vinstances
p2231
sI2244
Vinterpreted
p2232
sI2245
Vintoxication
p2233
sI2246
Vintramuscular
p2234
sI2247
Virinotecan
p2235
sI2248
Virregularities
p2236
sI2249
Visoflurane
p2237
sI2250
Visolated
p2238
sI2251
Visoproterenol
p2239
sI2252
Vitself
p2240
sI2253
Vlamotrigine
p2241
sI2254
Vlatter
p2242
sI2255
Vled
p2243
sI2256
Vleflunomide
p2244
sI2257
Vleft
p2245
sI2258
Vlesions
p2246
sI2259
Vlethargy
p2247
sI2260
Vlevobupivacaine
p2248
sI2261
Vlimit
p2249
sI2262
Vlincomycin
p2250
sI2263
Vmaleate
p2251
sI2264
Vmeaningful
p2252
sI2265
Vmedia
p2253
sI2266
Vmegestrol
p2254
sI2267
Vmethylphenidate
p2255
sI2268
Vmethysergide
p2256
sI2269
Vmetyrapone
p2257
sI2270
Vmifepristone
p2258
sI2271
Vmodified
p2259
sI2272
Vmononuclear
p2260
sI2273
Vmonth
p2261
sI2274
Vmyelosuppression
p2262
sI2275
Vnausea
p2263
sI2276
Vneomycin
p2264
sI2277
Vneuroleptics
p2265
sI2278
Vnew
p2266
sI2279
Vnitrofurantoin
p2267
sI2280
Vnonhormonal
p2268
sI2281
Vnursing
p2269
sI2282
Voften
p2270
sI2283
Voptimal
p2271
sI2284
Vordinarily
p2272
sI2285
Vorganogenesis
p2273
sI2286
Vosteoporosis
p2274
sI2287
Vototoxic
p2275
sI2288
Vout
p2276
sI2289
Voutput
p2277
sI2290
Voverall
p2278
sI2291
Voxandrolone
p2279
sI2292
Voxcarbazepine
p2280
sI2293
Vpackage
p2281
sI2294
Vparenteral
p2282
sI2295
Vpart
p2283
sI2296
Vpartial
p2284
sI2297
Vpentamidine
p2285
sI2298
Vperforatum
p2286
sI2299
Vpharmacist
p2287
sI2300
Vphenothiazine
p2288
sI2301
Vphosphatase
p2289
sI2302
Vpituitary
p2290
sI2303
Vpoisoning
p2291
sI2304
Vpolymyxins
p2292
sI2305
Vpotentiates
p2293
sI2306
Vpotentiating
p2294
sI2307
Vpowder
p2295
sI2308
Vpractice
p2296
sI2309
Vpre
p2297
sI2310
Vpregnant
p2298
sI2311
Vprochlorperazine
p2299
sI2312
Vprogestins
p2300
sI2313
Vpromethazine
p2301
sI2314
Vpropofol
p2302
sI2315
Vpseudoephedrine
p2303
sI2316
Vpyrimethamine
p2304
sI2317
Vrabbits
p2305
sI2318
Vreactive
p2306
sI2319
Vreceive
p2307
sI2320
Vreducing
p2308
sI2321
Vrefer
p2309
sI2322
Vregular
p2310
sI2323
Vreportedly
p2311
sI2324
Vrespect
p2312
sI2325
Vretention
p2313
sI2326
Vreviewed
p2314
sI2327
Vrimantadine
p2315
sI2328
Vropivacaine
p2316
sI2329
Vs
sI2330
Vsalmon
p2317
sI2331
Vscreening
p2318
sI2332
Vsecond
p2319
sI2333
Vsensitive
p2320
sI2334
Vseparate
p2321
sI2335
Vseven
p2322
sI2336
Vsirolimus
p2323
sI2337
Vsmoking
p2324
sI2338
Vsoluble
p2325
sI2339
Vspray
p2326
sI2340
Vstanding
p2327
sI2341
Vstimulants
p2328
sI2342
Vstopped
p2329
sI2343
Vsubject
p2330
sI2344
Vsubsalicylate
p2331
sI2345
Vsudden
p2332
sI2346
Vsulfonylureas
p2333
sI2347
Vsulfoxide
p2334
sI2348
Vsympathetic
p2335
sI2349
Vsynthetic
p2336
sI2350
Vtablet
p2337
sI2351
Vtemporarily
p2338
sI2352
Vtendency
p2339
sI2353
Vtested
p2340
sI2354
Vthromboplastin
p2341
sI2355
Vtopiramate
p2342
sI2356
Vtorsades
p2343
sI2357
Vtoward
p2344
sI2358
Vtoxicities
p2345
sI2359
Vtoxin
p2346
sI2360
Vtransaminases
p2347
sI2361
Vtransferase
p2348
sI2362
Vtranylcypromine
p2349
sI2363
Vtricyclics
p2350
sI2364
Vtrivalent
p2351
sI2365
VuM
p2352
sI2366
Vucb
p2353
sI2367
Vunclear
p2354
sI2368
Vundertaken
p2355
sI2369
Vunexpected
p2356
sI2370
Vunpredictable
p2357
sI2371
Vunusual
p2358
sI2372
Vuric
p2359
sI2373
Vuricosuric
p2360
sI2374
Vvaccine
p2361
sI2375
Vvancomycin
p2362
sI2376
Vvary
p2363
sI2377
Vvasospasm
p2364
sI2378
Vvasospastic
p2365
sI2379
Vvenlafaxine
p2366
sI2380
Vveratrum
p2367
sI2381
Vvirologic
p2368
sI2382
Vvision
p2369
sI2383
Vvital
p2370
sI2384
Vx
sI2385
Vyet
p2371
sI2386
V9B9
p2372
sI2387
VA.C.
p2373
sI2388
VAMICAR
p2374
sI2389
VARAVA
p2375
sI2390
VAS
p2376
sI2391
VATROVENT
p2377
sI2392
VAVASTIN
p2378
sI2393
VAcamprosate
p2379
sI2394
VAcid
p2380
sI2395
VActing
p2381
sI2396
VActivase
p2382
sI2397
VAliskiren
p2383
sI2398
VAlpha
p2384
sI2399
VAmes
p2385
sI2400
VAnagrelide
p2386
sI2401
VAnother
p2387
sI2402
VAntiarrhythmics
p2388
sI2403
VAnticholinesterases
p2389
sI2404
VAnticoagulant
p2390
sI2405
VAntifungals
p2391
sI2406
VAntipyrine
p2392
sI2407
VAntizol
p2393
sI2408
VAtorvastatin
p2394
sI2409
VAvoid
p2395
sI2410
VBEXTRA
p2396
sI2411
VBREVIBLOC
p2397
sI2412
VBUSULFEX
p2398
sI2413
VBenedicts
p2399
sI2414
VBetaseron
p2400
sI2415
VBosentan
p2401
sI2416
VBretylium
p2402
sI2417
VCAUTION
p2403
sI2418
VCEFOTAN
p2404
sI2419
VCMI
p2405
sI2420
VCYLERT
p2406
sI2421
VCalcidiol
p2407
sI2422
VCalcitriol
p2408
sI2423
VCarbimazole
p2409
sI2424
VCardiac
p2410
sI2425
VCentral
p2411
sI2426
VCerezyme
p2412
sI2427
VCerubidine
p2413
sI2428
VClonazepam
p2414
sI2429
VColchicine
p2415
sI2430
VColy
p2416
sI2431
VConcentration
p2417
sI2432
VConversely
p2418
sI2433
VConverting
p2419
sI2434
VCrohn
p2420
sI2435
VDEET
p2421
sI2436
VDIAMOND
p2422
sI2437
VDIAMOX
p2423
sI2438
VDIFFERIN
p2424
sI2439
VDRUGS
p2425
sI2440
VDST
p2426
sI2441
VDURAGESIC
p2427
sI2442
VDaily
p2428
sI2443
VDantrium
p2429
sI2444
VDexamethasone
p2430
sI2445
VDextromethorphan
p2431
sI2446
VDiclofenac
p2432
sI2447
VDilantin
p2433
sI2448
VDiphenhydramine
p2434
sI2449
VECT
p2435
sI2450
VELLENCE
p2436
sI2451
VENABLEX
p2437
sI2452
VEnoxacin
p2438
sI2453
VEprosartan
p2439
sI2454
VEsomeprazole
p2440
sI2455
VEtodolac
p2441
sI2456
VEven
p2442
sI2457
VExperience
p2443
sI2458
VFASLODEX
p2444
sI2459
VFOR
p2445
sI2460
VFORTOVASE
p2446
sI2461
VFROVA
p2447
sI2462
VFSH
p2448
sI2463
VFU
p2449
sI2464
VFertility
p2450
sI2465
VFlupenthixol
p2451
sI2466
VFlurbiprofen
p2452
sI2467
VFrequent
p2453
sI2468
VFunction
p2454
sI2469
VFurther
p2455
sI2470
VGABITRIL
p2456
sI2471
VGH
p2457
sI2472
VGabapentin
p2458
sI2473
VGeriatric
p2459
sI2474
VGrade
p2460
sI2475
VHALDOL
p2461
sI2476
VHDL
p2462
sI2477
VHERCEPTIN
p2463
sI2478
VHEXALEN
p2464
sI2479
VHUMIRA
p2465
sI2480
VHerbal
p2466
sI2481
VHydrochlorothiazide
p2467
sI2482
VHypericum
p2468
sI2483
VHypoglycemics
p2469
sI2484
VIFL
p2470
sI2485
VImmediate
p2471
sI2486
VImpaired
p2472
sI2487
VIndomethacin
p2473
sI2488
VInducers
p2474
sI2489
VInformation
p2475
sI2490
VInhalation
p2476
sI2491
VInterference
p2477
sI2492
VIntravenous
p2478
sI2493
VIron
p2479
sI2494
VIsoflurane
p2480
sI2495
VIsoniazid
p2481
sI2496
VKetamine
p2482
sI2497
VKineret
p2483
sI2498
VLH
p2484
sI2499
VLaboratories
p2485
sI2500
VLansoprazole
p2486
sI2501
VLopinavir
p2487
sI2502
VMAC
p2488
sI2503
VMS
p2489
sI2504
VMYCAMINE
p2490
sI2505
VMany
p2491
sI2506
VMarplan
p2492
sI2507
VMethadone
p2493
sI2508
VMetopirone
p2494
sI2509
VMitotane
p2495
sI2510
VMolt
p2496
sI2511
VMontelukast
p2497
sI2512
VMothers
p2498
sI2513
VMotility
p2499
sI2514
VMutagenesis
p2500
sI2515
VMycin
p2501
sI2516
VMyocardial
p2502
sI2517
VNIZORAL
p2503
sI2518
VNPH
p2504
sI2519
VNUROMAX
p2505
sI2520
VNardil
p2506
sI2521
VNatrecor
p2507
sI2522
VNervous
p2508
sI2523
VNeuropathy
p2509
sI2524
VNifedipine
p2510
sI2525
VNone
p2511
sI2526
VNonetheless
p2512
sI2527
VNorethindrone
p2513
sI2528
VNorpace
p2514
sI2529
VNursing
p2515
sI2530
VOTHER
p2516
sI2531
VOne
p2517
sI2532
VOpioid
p2518
sI2533
VOrudis
p2519
sI2534
VPAH
p2520
sI2535
VPHENYTOIN
p2521
sI2536
VPR
p2522
sI2537
VParenteral
p2523
sI2538
VParnate
p2524
sI2539
VParoxetine
p2525
sI2540
VParticular
p2526
sI2541
VPentamidine
p2527
sI2542
VPgp
p2528
sI2543
VPharmacodynamic
p2529
sI2544
VPhenothiazines
p2530
sI2545
VPhysicians
p2531
sI2546
VPindolol
p2532
sI2547
VPlenaxis
p2533
sI2548
VPressor
p2534
sI2549
VPretreatment
p2535
sI2550
VProAmatine
p2536
sI2551
VProducts
p2537
sI2552
VProquin
p2538
sI2553
VProtein
p2539
sI2554
VQuinidine
p2540
sI2555
VRA
p2541
sI2556
VRacemic
p2542
sI2557
VRanitidine
p2543
sI2558
VRare
p2544
sI2559
VReceptor
p2545
sI2560
VReductions
p2546
sI2561
VRocaltrol
p2547
sI2562
VSGPT
p2548
sI2563
VSUBOXONE
p2549
sI2564
VSUBUTEX
p2550
sI2565
VSUTENT
p2551
sI2566
VSalicylate
p2552
sI2567
VSedatives
p2553
sI2568
VShort
p2554
sI2569
VSimilarly
p2555
sI2570
VSimultaneous
p2556
sI2571
VSoriatane
p2557
sI2572
VSparing
p2558
sI2573
VSpecial
p2559
sI2574
VSucralfate
p2560
sI2575
VSynergism
p2561
sI2576
VSystem
p2562
sI2577
VTNKase
p2563
sI2578
VTOLECTIN
p2564
sI2579
VTRENTAL
p2565
sI2580
VTacrolimus
p2566
sI2581
VTape
p2567
sI2582
VTerbinafine
p2568
sI2583
VTes
p2569
sI2584
VTetracycline
p2570
sI2585
VTherapeutic
p2571
sI2586
VThey
p2572
sI2587
VTosylate
p2573
sI2588
VTrecator
p2574
sI2589
VTriazolam
p2575
sI2590
VTrimethoprim
p2576
sI2591
VTwo
p2577
sI2592
VU9
p2578
sI2593
VUncontrolled
p2579
sI2594
VUntil
p2580
sI2595
VUricosuric
p2581
sI2596
VVELCADE
p2582
sI2597
VVaccines
p2583
sI2598
VValproic
p2584
sI2599
VVerapamil
p2585
sI2600
VVidex
p2586
sI2601
VWELLBUTRIN
p2587
sI2602
VWomen
p2588
sI2603
VXII
p2589
sI2604
VZADAXIN
p2590
sI2605
VZOLINZA
p2591
sI2606
VZYVOX
p2592
sI2607
VZidovudine
p2593
sI2608
Vabnormal
p2594
sI2609
Vabsorbed
p2595
sI2610
Vaccelerate
p2596
sI2611
Vaccelerated
p2597
sI2612
Vaccordance
p2598
sI2613
Vacidic
p2599
sI2614
Vact
p2600
sI2615
Vactivation
p2601
sI2616
Vadminister
p2602
sI2617
Vadversely
p2603
sI2618
Vaffects
p2604
sI2619
Valdosterone
p2605
sI2620
Valfa
p2606
sI2621
Valfentanil
p2607
sI2622
Valtering
p2608
sI2623
Vaminoglutethimide
p2609
sI2624
Vaminophylline
p2610
sI2625
Vamounts
p2611
sI2626
Vanion
p2612
sI2627
Vanorexia
p2613
sI2628
Vantibacterial
p2614
sI2629
Vanticholinesterases
p2615
sI2630
Vantidiabetics
p2616
sI2631
Vapnea
p2617
sI2632
Vappearance
p2618
sI2633
Vappeared
p2619
sI2634
Vapplication
p2620
sI2635
Vappreciably
p2621
sI2636
Vapraclonidine
p2622
sI2637
Vassessments
p2623
sI2638
Vatomoxetine
p2624
sI2639
Vatovaquone
p2625
sI2640
Vattenuate
p2626
sI2641
Vbacterial
p2627
sI2642
Vbecomes
p2628
sI2643
Vbegin
p2629
sI2644
Vbegun
p2630
sI2645
Vbexarotene
p2631
sI2646
Vbeyond
p2632
sI2647
Vbinds
p2633
sI2648
Vbiotransformation
p2634
sI2649
Vblunt
p2635
sI2650
Vbotulinum
p2636
sI2651
Vbowel
p2637
sI2652
Vbreakdown
p2638
sI2653
Vbreast
p2639
sI2654
Vbusulfan
p2640
sI2655
Vcategory
p2641
sI2656
Vcautioned
p2642
sI2657
Vcefoxitin
p2643
sI2658
Vceftazidime
p2644
sI2659
Vcholinergic
p2645
sI2660
Vcoadministering
p2646
sI2661
Vcoagulant
p2647
sI2662
Vcolor
p2648
sI2663
Vcomparable
p2649
sI2664
Vcompatibility
p2650
sI2665
Vcompetes
p2651
sI2666
Vcompeting
p2652
sI2667
Vcomponent
p2653
sI2668
Vcompromised
p2654
sI2669
Vconcentrates
p2655
sI2670
Vconcern
p2656
sI2671
Vconfusion
p2657
sI2672
Vcongestive
p2658
sI2673
Vconsequences
p2659
sI2674
Vconsistent
p2660
sI2675
Vcontain
p2661
sI2676
Vcontemplated
p2662
sI2677
Vcontinue
p2663
sI2678
Vcontractility
p2664
sI2679
Vcopper
p2665
sI2680
Vcorresponding
p2666
sI2681
Vcortisol
p2667
sI2682
Vcounts
p2668
sI2683
Vcreate
p2669
sI2684
Vcrisis
p2670
sI2685
Vcycle
p2671
sI2686
Vcycles
p2672
sI2687
Vcynomolgus
p2673
sI2688
Vdanazol
p2674
sI2689
Vdate
p2675
sI2690
Vdecitabine
p2676
sI2691
Vdeficiencies
p2677
sI2692
Vdegrees
p2678
sI2693
Vdensity
p2679
sI2694
Vdepletion
p2680
sI2695
Vdes
p2681
sI2696
Vdesethylzaleplon
p2682
sI2697
Vdesloratadine
p2683
sI2698
Vdesmethyldiazepam
p2684
sI2699
Vdetect
p2685
sI2700
Vdiagnosed
p2686
sI2701
Vdialysis
p2687
sI2702
Vdiet
p2688
sI2703
Vdifferences
p2689
sI2704
Vdigitalization
p2690
sI2705
Vdiminution
p2691
sI2706
Vdirectly
p2692
sI2707
Vdisorders
p2693
sI2708
Vdogs
p2694
sI2709
Vdoubling
p2695
sI2710
Vdownward
p2696
sI2711
Vdoxapram
p2697
sI2712
Vdoxepin
p2698
sI2713
Vdryness
p2699
sI2714
Vdysfunction
p2700
sI2715
Vdyspnea
p2701
sI2716
Vdysrhythmias
p2702
sI2717
Vearly
p2703
sI2718
Vemerge
p2704
sI2719
Venantiomer
p2705
sI2720
Vend
p2706
sI2721
Venhances
p2707
sI2722
Venterohepatic
p2708
sI2723
Verlotinib
p2709
sI2724
Verythema
p2710
sI2725
Vestimates
p2711
sI2726
Vethambutol
p2712
sI2727
Vethchlorvynol
p2713
sI2728
Vetomidate
p2714
sI2729
Vexacerbated
p2715
sI2730
Vexaggerate
p2716
sI2731
Vexample
p2717
sI2732
Vexceeded
p2718
sI2733
Vexchange
p2719
sI2734
Vexisting
p2720
sI2735
Vexperimental
p2721
sI2736
Vextended
p2722
sI2737
Vextra
p2723
sI2738
Vextremely
p2724
sI2739
Vfalsely
p2725
sI2740
Vfamily
p2726
sI2741
Vfecal
p2727
sI2742
Vfemales
p2728
sI2743
Vfenoldopam
p2729
sI2744
Vfever
p2730
sI2745
Vfibrate
p2731
sI2746
Vfive
p2732
sI2747
Vflow
p2733
sI2748
Vflucytosine
p2734
sI2749
Vfluids
p2735
sI2750
Vflumazenil
p2736
sI2751
Vformed
p2737
sI2752
Vformoterol
p2738
sI2753
Vfortified
p2739
sI2754
Vfunctional
p2740
sI2755
Vganciclovir
p2741
sI2756
Vgefitinib
p2742
sI2757
Vgel
p2743
sI2758
Vgive
p2744
sI2759
Vgiving
p2745
sI2760
Vglaucoma
p2746
sI2761
Vglimepiride
p2747
sI2762
Vglucuronyl
p2748
sI2763
Vglutathione
p2749
sI2764
Vglycemic
p2750
sI2765
Vgold
p2751
sI2766
Vgram
p2752
sI2767
Vgravis
p2753
sI2768
Vgreatest
p2754
sI2769
Vhalogenated
p2755
sI2770
Vhealth
p2756
sI2771
Vherbal
p2757
sI2772
Vhexobarbital
p2758
sI2773
Vhot
p2759
sI2774
Vhow
p2760
sI2775
Vhydrocarbon
p2761
sI2776
Vhydrolysis
p2762
sI2777
Vhydroxychloroquine
p2763
sI2778
Vhypermagnesemia
p2764
sI2779
Vhyperplasia
p2765
sI2780
Vhyperpyrexia
p2766
sI2781
Vhypersensitivity
p2767
sI2782
Vhyperthyroid
p2768
sI2783
Vhypo
p2769
sI2784
Vhypoglycemics
p2770
sI2785
Vhypoprothrombinemic
p2771
sI2786
Vibandronate
p2772
sI2787
Vidoxuridine
p2773
sI2788
Vileus
p2774
sI2789
Vimmunosuppressants
p2775
sI2790
Vimmunosuppressive
p2776
sI2791
Vinactivation
p2777
sI2792
Vindication
p2778
sI2793
Vineffective
p2779
sI2794
Vinfant
p2780
sI2795
Vinfants
p2781
sI2796
Vinfection
p2782
sI2797
Vinformed
p2783
sI2798
Vingested
p2784
sI2799
Vinhaler
p2785
sI2800
Vinjectable
p2786
sI2801
Vinjections
p2787
sI2802
Vinjury
p2788
sI2803
Vinsulins
p2789
sI2804
Vinteracting
p2790
sI2805
Vinterfering
p2791
sI2806
Vintestine
p2792
sI2807
Vionized
p2793
sI2808
Vipratropium
p2794
sI2809
Virbesartan
p2795
sI2810
Virradiation
p2796
sI2811
Vischemic
p2797
sI2812
Visocarboxazid
p2798
sI2813
Vjustifies
p2799
sI2814
Vleads
p2800
sI2815
Vlenalidomide
p2801
sI2816
Vleucovorin
p2802
sI2817
Vleukopenia
p2803
sI2818
Vlevomepromazine
p2804
sI2819
Vlives
p2805
sI2820
Vlopinavir
p2806
sI2821
Vlowest
p2807
sI2822
Vloxapine
p2808
sI2823
Vlymphocytes
p2809
sI2824
Vlymphoma
p2810
sI2825
Vmacrolides
p2811
sI2826
Vmain
p2812
sI2827
Vmajority
p2813
sI2828
Vmalformations
p2814
sI2829
Vmalignant
p2815
sI2830
Vmanagement
p2816
sI2831
Vmeasurements
p2817
sI2832
Vmechanisms
p2818
sI2833
Vmellitus
p2819
sI2834
Vmembers
p2820
sI2835
Vmental
p2821
sI2836
Vmetabolizer
p2822
sI2837
Vmetal
p2823
sI2838
Vmethsuximide
p2824
sI2839
Vmigraine
p2825
sI2840
Vminimally
p2826
sI2841
Vminipill
p2827
sI2842
Vminoxidil
p2828
sI2843
Vmodification
p2829
sI2844
Vmolecule
p2830
sI2845
Vmonotherapy
p2831
sI2846
Vmonthly
p2832
sI2847
Vmothers
p2833
sI2848
Vmultivitamins
p2834
sI2849
Vmutagenicity
p2835
sI2850
Vmyasthenia
p2836
sI2851
Vmyasthenic
p2837
sI2852
Vmydriasis
p2838
sI2853
Vmyelosuppressive
p2839
sI2854
Vmyelotoxicity
p2840
sI2855
Vnalidixic
p2841
sI2856
Vnaratriptan
p2842
sI2857
Vnc9
p2843
sI2858
Vnecessitating
p2844
sI2859
Vnerve
p2845
sI2860
Vneuroleptic
p2846
sI2861
Vneutrophil
p2847
sI2862
Vneutrophils
p2848
sI2863
Vniacin
p2849
sI2864
Vnilutamide
p2850
sI2865
Vnonetheless
p2851
sI2866
Voccasional
p2852
sI2867
Vorlistat
p2853
sI2868
Vovarian
p2854
sI2869
Voxidation
p2855
sI2870
Vp
sI2871
Vp.o
p2856
sI2872
Vp9
p2857
sI2873
Vpaliperidone
p2858
sI2874
Vparent
p2859
sI2875
Vpass
p2860
sI2876
Vpentazocine
p2861
sI2877
Vpeptic
p2862
sI2878
Vperformance
p2863
sI2879
Vperindoprilat
p2864
sI2880
Vphenylalanine
p2865
sI2881
Vpheochromocytoma
p2866
sI2882
Vphysical
p2867
sI2883
Vpills
p2868
sI2884
Vpneumonia
p2869
sI2885
Vpopulations
p2870
sI2886
Vpredict
p2871
sI2887
Vpregnanediol
p2872
sI2888
Vpresently
p2873
sI2889
Vpretreatment
p2874
sI2890
Vprocedure
p2875
sI2891
Vproduces
p2876
sI2892
Vprolactin
p2877
sI2893
Vprolongs
p2878
sI2894
Vpromote
p2879
sI2895
Vproof
p2880
sI2896
Vproperty
p2881
sI2897
Vprovoke
p2882
sI2898
Vpsychotic
p2883
sI2899
Vpsychotropics
p2884
sI2900
Vpulse
p2885
sI2901
Vpyridoxine
p2886
sI2902
Vq.d
p2887
sI2903
Vq9h
p2888
sI2904
Vradiation
p2889
sI2905
Vranging
p2890
sI2906
Vrapid
p2891
sI2907
Vrashes
p2892
sI2908
Vratio
p2893
sI2909
Vrebound
p2894
sI2910
Vrecent
p2895
sI2911
Vrecently
p2896
sI2912
Vreferred
p2897
sI2913
Vremain
p2898
sI2914
Vremained
p2899
sI2915
Vrender
p2900
sI2916
Vrequirement
p2901
sI2917
Vresolved
p2902
sI2918
Vresorptions
p2903
sI2919
Vretapamulin
p2904
sI2920
Vreturned
p2905
sI2921
Vreveal
p2906
sI2922
Vreversible
p2907
sI2923
Vribs
p2908
sI2924
Vrisperidone
p2909
sI2925
Vsatisfactory
p2910
sI2926
Vschedule
p2911
sI2927
Vscopolamine
p2912
sI2928
Vsecreted
p2913
sI2929
Vseparated
p2914
sI2930
Vsequential
p2915
sI2931
Vserial
p2916
sI2932
Vsimilarly
p2917
sI2933
Vsinus
p2918
sI2934
Vsituations
p2919
sI2935
Vsix
p2920
sI2936
Vslower
p2921
sI2937
Vsole
p2922
sI2938
Vsomatropin
p2923
sI2939
Vspontaneous
p2924
sI2940
Vstage
p2925
sI2941
Vstart
p2926
sI2942
Vstatins
p2927
sI2943
Vsteadystate
p2928
sI2944
Vstill
p2929
sI2945
Vstimulation
p2930
sI2946
Vstructural
p2931
sI2947
Vsubset
p2932
sI2948
Vsubstitute
p2933
sI2949
Vsuccessfully
p2934
sI2950
Vsuccinate
p2935
sI2951
Vsulfapyridine
p2936
sI2952
Vsulfonamide
p2937
sI2953
Vsupplemental
p2938
sI2954
Vsupporting
p2939
sI2955
Vsuppress
p2940
sI2956
Vsurface
p2941
sI2957
Vsuspected
p2942
sI2958
Vsymptomatic
p2943
sI2959
Vt.i.d
p2944
sI2960
Vtamsulosin
p2945
sI2961
Vtarget
p2946
sI2962
Vtechnique
p2947
sI2963
Vtelithromycin
p2948
sI2964
Vtemazepam
p2949
sI2965
Vtended
p2950
sI2966
Vteratogenic
p2951
sI2967
Vterbinafine
p2952
sI2968
Vterbutaline
p2953
sI2969
Vthrombin
p2954
sI2970
Vtorsade
p2955
sI2971
Vtransdermal
p2956
sI2972
Vtransmission
p2957
sI2973
Vtreating
p2958
sI2974
Vtriglyceride
p2959
sI2975
Vtrimetrexate
p2960
sI2976
Vtriple
p2961
sI2977
Vunaltered
p2962
sI2978
Vundergo
p2963
sI2979
Vvaccination
p2964
sI2980
Vvasoconstrictive
p2965
sI2981
Vvasoconstrictor
p2966
sI2982
Vvasodilating
p2967
sI2983
Vvasopressor
p2968
sI2984
Vvoriconazole
p2969
sI2985
Vwarned
p2970
sI2986
Vwarrant
p2971
sI2987
Vwater
p2972
sI2988
Vweaken
p2973
sI2989
Vwide
p2974
sI2990
Vwindow
p2975
sI2991
Vyear
p2976
sI2992
V#
sI2993
V..
p2977
sI2994
V.9
p2978
sI2995
V9:9
p2979
sI2996
V9m
p2980
sI2997
V<
sI2998
VACEI
p2981
sI2999
VAGGRASTAT
p2982
sI3000
VAIDS
p2983
sI3001
VALLEGRA
p2984
sI3002
VALPHAGAN
p2985
sI3003
VALTABAX
p2986
sI3004
VAN
p2987
sI3005
VANC
p2988
sI3006
VAPOKYN
p2989
sI3007
VAPTT
p2990
sI3008
VARB
p2991
sI3009
VARE
p2992
sI3010
VARIMIDEX
p2993
sI3011
VAT
p2994
sI3012
VAUGMENTIN
p2995
sI3013
VAZOPT
p2996
sI3014
VAccelerated
p2997
sI3015
VAcidity
p2998
sI3016
VActive
p2999
sI3017
VActivity
p3000
sI3018
VAddition
p3001
sI3019
VAdenocard
p3002
sI3020
VAdenosine
p3003
sI3021
VAdrenergic
p3004
sI3022
VAdverse
p3005
sI3023
VAffecting
p3006
sI3024
VAfrican
p3007
sI3025
VAlbendazole
p3008
sI3026
VAlbuterol
p3009
sI3027
VAldehyde
p3010
sI3028
VAlone
p3011
sI3029
VAlosetron
p3012
sI3030
VAlteration
p3013
sI3031
VAltered
p3014
sI3032
VAlternatives
p3015
sI3033
VAmantadine
p3016
sI3034
VAminoglutethimide
p3017
sI3035
VAminoglycosides
p3018
sI3036
VAmong
p3019
sI3037
VAnalgesics
p3020
sI3038
VAnesthetics
p3021
sI3039
VAntabuse
p3022
sI3040
VAntacid
p3023
sI3041
VAntagonist
p3024
sI3042
VAntihypertensives
p3025
sI3043
VAntiinflammatory
p3026
sI3044
VAntineoplastic
p3027
sI3045
VAntiretroviral
p3028
sI3046
VAntithrombotics
p3029
sI3047
VAntithyroid
p3030
sI3048
VAny
p3031
sI3049
VAsian
p3032
sI3050
VAspergillus
p3033
sI3051
VAzithromycin
p3034
sI3052
VBETAGAN
p3035
sI3053
VBefore
p3036
sI3054
VBile
p3037
sI3055
VBismuth
p3038
sI3056
VBleeding
p3039
sI3057
VBroad
p3040
sI3058
VBy
p3041
sI3059
VCHOLESTYRAMINE
p3042
sI3060
VCLINISTIX
p3043
sI3061
VCLOLAR
p3044
sI3062
VCOLESTID
p3045
sI3063
VCONJUNCTION
p3046
sI3064
VCOREG
p3047
sI3065
VCP9
p3048
sI3066
VCancer
p3049
sI3067
VCategory
p3050
sI3068
VCerebyx
p3051
sI3069
VCevimeline
p3052
sI3070
VChemotherapy
p3053
sI3071
VChloramphenicol
p3054
sI3072
VCholinesterase
p3055
sI3073
VCitalopram
p3056
sI3074
VClonidine
p3057
sI3075
VCoagulation
p3058
sI3076
VColestipol
p3059
sI3077
VCombined
p3060
sI3078
VCompazine
p3061
sI3079
VCongestive
p3062
sI3080
VConsider
p3063
sI3081
VCordarone
p3064
sI3082
VCromolyn
p3065
sI3083
VCurariform
p3066
sI3084
VCyP9
p3067
sI3085
VCyclophosphamide
p3068
sI3086
VCyclosporin
p3069
sI3087
VDEMSER
p3070
sI3088
VDETERMINED
p3071
sI3089
VDISULFIRAM
p3072
sI3090
VDOXIL
p3073
sI3091
VDSST
p3074
sI3092
VDay9
p3075
sI3093
VDecrease
p3076
sI3094
VDecreases
p3077
sI3095
VDepressants
p3078
sI3096
VDerivatives
p3079
sI3097
VDesloratadine
p3080
sI3098
VDesmopressin
p3081
sI3099
VDiabetics
p3082
sI3100
VDiazepam
p3083
sI3101
VDicumarol
p3084
sI3102
VDiltiazem
p3085
sI3103
VDipyridamole
p3086
sI3104
VDisturbances
p3087
sI3105
VDo
p3088
sI3106
VDofetilide
p3089
sI3107
VDolasetron
p3090
sI3108
VDosed
p3091
sI3109
VDoxorubicin
p3092
sI3110
VDur
p3093
sI3111
VE
sI3112
VED9
p3094
sI3113
VEE
p3095
sI3114
VELDEPRYL
p3096
sI3115
VELOXATIN
p3097
sI3116
VELSPAR
p3098
sI3117
VER
p3099
sI3118
VERBITUX
p3100
sI3119
VERGOMAR
p3101
sI3120
VEVISTA
p3102
sI3121
VEnalapril
p3103
sI3122
VEphedrine
p3104
sI3123
VEscherichia
p3105
sI3124
VEstrogen
p3106
sI3125
VEthopropazine
p3107
sI3126
VEvidence
p3108
sI3127
VExample
p3109
sI3128
VExamples
p3110
sI3129
VExelon
p3111
sI3130
VEzetimibe
p3112
sI3131
VFLEXERIL
p3113
sI3132
VFLUOTHANE
p3114
sI3133
VFactrel
p3115
sI3134
VFailure
p3116
sI3135
VFelodipine
p3117
sI3136
VFemale
p3118
sI3137
VFluconazole
p3119
sI3138
VFolic
p3120
sI3139
VFondaparinux
p3121
sI3140
VGDH
p3122
sI3141
VGIVEN
p3123
sI3142
VGanciclovir
p3124
sI3143
VGarlic
p3125
sI3144
VGastrointestinal
p3126
sI3145
VGenerally
p3127
sI3146
VGlucose
p3128
sI3147
VGlycosides
p3129
sI3148
VGrapefruit
p3130
sI3149
VGrepafloxacin
p3131
sI3150
VGriseofulvin
p3132
sI3151
VGuardians
p3133
sI3152
VHAS
p3134
sI3153
VHCI
p3135
sI3154
VHDAC
p3136
sI3155
VHDL9
p3137
sI3156
VHT9B9D
p3138
sI3157
VHeart
p3139
sI3158
VHigh
p3140
sI3159
VHuman
p3141
sI3160
VHyaluronidase
p3142
sI3161
VHydroxydesloratadine
p3143
sI3162
VHypnotics
p3144
sI3163
VIIIa
p3145
sI3164
VINAPSINE
p3146
sI3165
VINCREASE
p3147
sI3166
VINOmax
p3148
sI3167
VINVEGA
p3149
sI3168
VIOP
p3150
sI3169
VIOPIDINE
p3151
sI3170
VIS
p3152
sI3171
VIT
p3153
sI3172
VImipramine
p3154
sI3173
VImitrex
p3155
sI3174
VImmunosuppressants
p3156
sI3175
VImplant
p3157
sI3176
VIncluding
p3158
sI3177
VIncrease
p3159
sI3178
VInduction
p3160
sI3179
VInfarction
p3161
sI3180
VInflammatory
p3162
sI3181
VInterfere
p3163
sI3182
VInterferon
p3164
sI3183
VIsoenzymes
p3165
sI3184
VIsoproterenol
p3166
sI3185
VIsozymes
p3167
sI3186
VJaffe
p3168
sI3187
VKetoprofen
p3169
sI3188
VKetorolac
p3170
sI3189
VLABORATORY
p3171
sI3190
VLEUSTATIN
p3172
sI3191
VLEVSIN
p3173
sI3192
VLEXAPRO
p3174
sI3193
VLNG
p3175
sI3194
VLamivudine
p3176
sI3195
VLess
p3177
sI3196
VLeukine
p3178
sI3197
VLevetiracetam
p3179
sI3198
VLipids
p3180
sI3199
VLiterature
p3181
sI3200
VLive
p3182
sI3201
VLiver
p3183
sI3202
VLofexidine
p3184
sI3203
VLong
p3185
sI3204
VLoop
p3186
sI3205
VLow
p3187
sI3206
VMAY
p3188
sI3207
VMICRONASE
p3189
sI3208
VMIRAPEX
p3190
sI3209
VMODIFIED
p3191
sI3210
VMPA
p3192
sI3211
VMPAG
p3193
sI3212
VMYKROX
p3194
sI3213
VMacrolide
p3195
sI3214
VMacrolides
p3196
sI3215
VMarked
p3197
sI3216
VMatulane
p3198
sI3217
VMedications
p3199
sI3218
VMefloquineuine
p3200
sI3219
VMeloxicam
p3201
sI3220
VMeperidine
p3202
sI3221
VMercaptopurine
p3203
sI3222
VMetformin
p3204
sI3223
VMethenamine
p3205
sI3224
VMethyldopa
p3206
sI3225
VMetoclopramide
p3207
sI3226
VMetolazone
p3208
sI3227
VMicro
p3209
sI3228
VMidazolam
p3210
sI3229
VMixed
p3211
sI3230
VMorphine
p3212
sI3231
VMultiple
p3213
sI3232
VMultivitamins
p3214
sI3233
VMuscle
p3215
sI3234
VMylotarg
p3216
sI3235
VMyopathy
p3217
sI3236
VN=
p3218
sI3237
VNNRTIs
p3219
sI3238
VNRTIs
p3220
sI3239
VNalfon
p3221
sI3240
VNasal
p3222
sI3241
VNeulasta
p3223
sI3242
VNeuroleptic
p3224
sI3243
VNiacin
p3225
sI3244
VNicotine
p3226
sI3245
VNicotinic
p3227
sI3246
VNitrates
p3228
sI3247
VNovum
p3229
sI3248
VNutropin
p3230
sI3249
VO
sI3250
VOMNICEF
p3231
sI3251
VON
p3232
sI3252
VOXC
p3233
sI3253
VOphthalmic
p3234
sI3254
VOpioids
p3235
sI3255
VOrlistat
p3236
sI3256
VOrtho
p3237
sI3257
VP9A9
p3238
sI3258
VPATIENTS
p3239
sI3259
VPEG
p3240
sI3260
VPIPRACIL
p3241
sI3261
VPK
p3242
sI3262
VPLETAL
p3243
sI3263
VPPIs
p3244
sI3264
VPQQ
p3245
sI3265
VPRA
p3246
sI3266
VPRECEDEX
p3247
sI3267
VPROTHROMBIN
p3248
sI3268
VPSA
p3249
sI3269
VPaliperidone
p3250
sI3270
VPanretin
p3251
sI3271
VPeripheral
p3252
sI3272
VPhenergan
p3253
sI3273
VPhenylbutazone
p3254
sI3274
VPhosphate
p3255
sI3275
VPlatelet
p3256
sI3276
VPneumocystis
p3257
sI3277
VPonstel
p3258
sI3278
VPost
p3259
sI3279
VPregnancies
p3260
sI3280
VPresence
p3261
sI3281
VPrimidone
p3262
sI3282
VPrior
p3263
sI3283
VProlixin
p3264
sI3284
VProlongation
p3265
sI3285
VProlonged
p3266
sI3286
VPropoxyphene
p3267
sI3287
VProton
p3268
sI3288
VPump
p3269
sI3289
VPurinethol
p3270
sI3290
VQ
sI3291
VQ9h
p3271
sI3292
VQID
p3272
sI3293
VRESIN
p3273
sI3294
VRarely
p3274
sI3295
VReactions
p3275
sI3296
VRead
p3276
sI3297
VRebif
p3277
sI3298
VRecommended
p3278
sI3299
VRegimen
p3279
sI3300
VReported
p3280
sI3301
VResistance
p3281
sI3302
VResponse
p3282
sI3303
VRhabdomyolysis
p3283
sI3304
VRhesus
p3284
sI3305
VRibavirin
p3285
sI3306
VRifampicin
p3286
sI3307
VRobinul
p3287
sI3308
VRoegnik
p3288
sI3309
VRopivacaine
p3289
sI3310
VSINEQUAN
p3290
sI3311
VSMX
p3291
sI3312
VSPIRIVA
p3292
sI3313
VSTRATTERA
p3293
sI3314
VSUPRAX
p3294
sI3315
VSalmonella
p3295
sI3316
VSanctura
p3296
sI3317
VScopolamine
p3297
sI3318
VSelegiline
p3298
sI3319
VSildenafil
p3299
sI3320
VSimvastatin
p3300
sI3321
VSingle
p3301
sI3322
VSodium
p3302
sI3323
VSpray
p3303
sI3324
VStandard
p3304
sI3325
VState
p3305
sI3326
VStavudine
p3306
sI3327
VSubstrate
p3307
sI3328
VSulfonamides
p3308
sI3329
VSulfoxone
p3309
sI3330
VSympathomimetic
p3310
sI3331
VSymptoms
p3311
sI3332
VSystems
p3312
sI3333
VTAXOTERE
p3313
sI3334
VTC
p3314
sI3335
VTENORMIN
p3315
sI3336
VTEST
p3316
sI3337
VTHAT
p3317
sI3338
VTIME
p3318
sI3339
VTMP
p3319
sI3340
VTOBI
p3320
sI3341
VTORADOLIV
p3321
sI3342
VTRACRIUM
p3322
sI3343
VTRANXENE
p3323
sI3344
VTRITEC
p3324
sI3345
VTSH
p3325
sI3346
VTYKERB
p3326
sI3347
VTadalafil
p3327
sI3348
VTaking
p3328
sI3349
VTalk
p3329
sI3350
VTheo
p3330
sI3351
VThorazine
p3331
sI3352
VThree
p3332
sI3353
VTolbutamide
p3333
sI3354
VTransport
p3334
sI3355
VTriprolidine
p3335
sI3356
VTylenol
p3336
sI3357
VUROXATRAL
p3337
sI3358
VUSED
p3338
sI3359
VUltram
p3339
sI3360
VUsing
p3340
sI3361
VUsually
p3341
sI3362
VV
sI3363
VVASOTEC
p3342
sI3364
VVaccinations
p3343
sI3365
VValdecoxib
p3344
sI3366
VVeratrum
p3345
sI3367
VVitrasert
p3346
sI3368
VWARNING
p3347
sI3369
VWHEN
p3348
sI3370
VWait
p3349
sI3371
VWhether
p3350
sI3372
VWhich
p3351
sI3373
VXa
p3352
sI3374
VYou
p3353
sI3375
VZAVESCA
p3354
sI3376
VZDV
p3355
sI3377
VZINECARD
p3356
sI3378
VZalcitabine
p3357
sI3379
VaPTT
p3358
sI3380
Vabdominal
p3359
sI3381
Vabortifacient
p3360
sI3382
Vabsent
p3361
sI3383
Vabsolute
p3362
sI3384
Vabuse
p3363
sI3385
Vacamprosate
p3364
sI3386
Vaccidents
p3365
sI3387
Vaccounts
p3366
sI3388
Vaccumulation
p3367
sI3389
Vacebutolol
p3368
sI3390
Vachlorhydria
p3369
sI3391
Vactivated
p3370
sI3392
Vactivities
p3371
sI3393
Vacyclovir
p3372
sI3394
Vaddiction
p3373
sI3395
Vadjunctive
p3374
sI3396
Vadrenocortical
p3375
sI3397
Vadvanced
p3376
sI3398
Valefacept
p3377
sI3399
Valkaloid
p3378
sI3400
Valleviate
p3379
sI3401
Vallow
p3380
sI3402
Vallowed
p3381
sI3403
Valmost
p3382
sI3404
Valong
p3383
sI3405
Valternate
p3384
sI3406
Valternately
p3385
sI3407
Valways
p3386
sI3408
Vamenorrhea
p3387
sI3409
Vamikacin
p3388
sI3410
Vaminotransferase
p3389
sI3411
Vammonium
p3390
sI3412
Vanaphylaxis
p3391
sI3413
Vanastrozole
p3392
sI3414
Vanemia
p3393
sI3415
Vangiotensinogen
p3394
sI3416
Vanionic
p3395
sI3417
Vantagonise
p3396
sI3418
Vantagonistic
p3397
sI3419
Vantianginal
p3398
sI3420
Vantianxiety
p3399
sI3421
Vantibodies
p3400
sI3422
Vantibody
p3401
sI3423
Vantiglaucoma
p3402
sI3424
Vantiinflammatory
p3403
sI3425
Vantimicrobial
p3404
sI3426
Vantimuscarinic
p3405
sI3427
Vantimycotics
p3406
sI3428
Vantineoplastic
p3407
sI3429
Vantiseizure
p3408
sI3430
Vantithyroid
p3409
sI3431
Vantitrypsin
p3410
sI3432
Vantitumor
p3411
sI3433
Vanxiety
p3412
sI3434
Vapparently
p3413
sI3435
Vapple
p3414
sI3436
Vapproved
p3415
sI3437
Varbutamine
p3416
sI3438
Vareas
p3417
sI3439
Varginine
p3418
sI3440
Varrhythmic
p3419
sI3441
Varthralgia
p3420
sI3442
Vascorbic
p3421
sI3443
Vasparaginase
p3422
sI3444
Vatropinization
p3423
sI3445
Vattacks
p3424
sI3446
Vattenuation
p3425
sI3447
Vaugment
p3426
sI3448
Vautonomic
p3427
sI3449
Vaveraged
p3428
sI3450
Vaware
p3429
sI3451
Vaxis
p3430
sI3452
Vbalance
p3431
sI3453
Vbasal
p3432
sI3454
Vbeadministered
p3433
sI3455
Vbear
p3434
sI3456
Vbecausedecreases
p3435
sI3457
Vbeginning
p3436
sI3458
Vbelieved
p3437
sI3459
Vbenign
p3438
sI3460
Vbezafibrate
p3439
sI3461
Vbid
p3440
sI3462
Vbiological
p3441
sI3463
Vbiweekly
p3442
sI3464
Vblack
p3443
sI3465
Vblunted
p3444
sI3466
Vblunts
p3445
sI3467
Vbones
p3446
sI3468
Vborne
p3447
sI3469
Vbrain
p3448
sI3470
Vbrinzolamide
p3449
sI3471
Vbromelains
p3450
sI3472
Vbromide
p3451
sI3473
Vbromocriptine
p3452
sI3474
Vbronchodilator
p3453
sI3475
Vbudesonide
p3454
sI3476
Vcandesartan
p3455
sI3477
Vcarbachol
p3456
sI3478
Vcarbidopa
p3457
sI3479
Vcarcinogenic
p3458
sI3480
Vcarcinogenicity
p3459
sI3481
Vcardioselective
p3460
sI3482
Vcardiotoxicity
p3461
sI3483
Vcarinii
p3462
sI3484
Vcatabolic
p3463
sI3485
Vcategories
p3464
sI3486
Vcation
p3465
sI3487
Vcefamandole
p3466
sI3488
Vcefazolin
p3467
sI3489
Vcefditoren
p3468
sI3490
Vcefotetan
p3469
sI3491
Vcefprozil
p3470
sI3492
Vcerebrovascular
p3471
sI3493
Vceruloplasmin
p3472
sI3494
Vcervical
p3473
sI3495
Vcevimeline
p3474
sI3496
Vcharcoal
p3475
sI3497
Vcheck
p3476
sI3498
Vchelates
p3477
sI3499
Vchemotherapeutic
p3478
sI3500
Vchloramphenicol
p3479
sI3501
Vchlorothiazide
p3480
sI3502
Vchlorpheniramine
p3481
sI3503
Vchlorthalidone
p3482
sI3504
Vcholine
p3483
sI3505
Vchromatographic
p3484
sI3506
Vcinchophen
p3485
sI3507
Vcinoxacin
p3486
sI3508
Vcirculars
p3487
sI3509
Vcirculation
p3488
sI3510
Vcitrate
p3489
sI3511
Vclastogenic
p3490
sI3512
Vclear
p3491
sI3513
Vclearances
p3492
sI3514
Vcleared
p3493
sI3515
Vclearly
p3494
sI3516
Vcoating
p3495
sI3517
Vcolchicine
p3496
sI3518
Vcold
p3497
sI3519
Vcoli
p3498
sI3520
Vcolistimethate
p3499
sI3521
Vcolorimetric
p3500
sI3522
Vcomparing
p3501
sI3523
Vcompensate
p3502
sI3524
Vcompete
p3503
sI3525
Vcompetitively
p3504
sI3526
Vcomplete
p3505
sI3527
Vcompleted
p3506
sI3528
Vcompletely
p3507
sI3529
Vcompliance
p3508
sI3530
Vcomplication
p3509
sI3531
Vconcentrate
p3510
sI3532
Vconfusional
p3511
sI3533
Vconsequence
p3512
sI3534
Vconsequently
p3513
sI3535
Vconsiderable
p3514
sI3536
Vconsisted
p3515
sI3537
Vconstipation
p3516
sI3538
Vconsulting
p3517
sI3539
Vcontained
p3518
sI3540
Vcontinuation
p3519
sI3541
Vcontinuous
p3520
sI3542
Vcontribute
p3521
sI3543
Vcontribution
p3522
sI3544
Vcreatine
p3523
sI3545
Vcritical
p3524
sI3546
Vcross
p3525
sI3547
Vcurare
p3526
sI3548
Vcurariform
p3527
sI3549
Vcurrent
p3528
sI3550
Vcyclopropane
p3529
sI3551
Vcystic
p3530
sI3552
Vcytochromes
p3531
sI3553
Vd
sI3554
Vdangerous
p3532
sI3555
Vdaptomycin
p3533
sI3556
Vdatabase
p3534
sI3557
Vdecision
p3535
sI3558
Vdeferasirox
p3536
sI3559
Vdefinitely
p3537
sI3560
Vdehydration
p3538
sI3561
Vdehydrogenase
p3539
sI3562
Vdelaying
p3540
sI3563
Vdelirium
p3541
sI3564
Vdelivery
p3542
sI3565
Vdepending
p3543
sI3566
Vdepletor
p3544
sI3567
Vdepressive
p3545
sI3568
Vderived
p3546
sI3569
Vdermatitis
p3547
sI3570
Vdescarboethoxyloratadine
p3548
sI3571
Vdetermination
p3549
sI3572
Vdextrothyroxine
p3550
sI3573
Vdiagnosis
p3551
sI3574
Vdietary
p3552
sI3575
Vdifference
p3553
sI3576
Vdifferential
p3554
sI3577
Vdifficulty
p3555
sI3578
Vdigitalized
p3556
sI3579
Vdiphenidol
p3557
sI3580
Vdiphenoxylate
p3558
sI3581
Vdiphenylhydantoin
p3559
sI3582
Vdirected
p3560
sI3583
Vdisintegrating
p3561
sI3584
Vdissolving
p3562
sI3585
Vdivalproex
p3563
sI3586
Vdivided
p3564
sI3587
Vdopaminergic
p3565
sI3588
Vdouble
p3566
sI3589
Vdoubled
p3567
sI3590
Vdoxylamine
p3568
sI3591
Vdrawn
p3569
sI3592
Vdrinking
p3570
sI3593
Vdroperidol
p3571
sI3594
Vdurations
p3572
sI3595
Vearlier
p3573
sI3596
Vearth
p3574
sI3597
Velements
p3575
sI3598
Velicit
p3576
sI3599
Vembryonic
p3577
sI3600
Vemetic
p3578
sI3601
Vempty
p3579
sI3602
Venalaprilat
p3580
sI3603
Vencountered
p3581
sI3604
Vendings
p3582
sI3605
Venfuvirtide
p3583
sI3606
Venhancing
p3584
sI3607
Venrolled
p3585
sI3608
Venterocolitis
p3586
sI3609
Vephedrine
p3587
sI3610
Vepisodes
p3588
sI3611
Veprosartan
p3589
sI3612
Vergonovine
p3590
sI3613
Vescalating
p3591
sI3614
Vesters
p3592
sI3615
Vethinylestradiol
p3593
sI3616
Vethionamide
p3594
sI3617
Vethyl
p3595
sI3618
Vetretinate
p3596
sI3619
Vevent
p3597
sI3620
Vevident
p3598
sI3621
Vexacerbate
p3599
sI3622
Vexaggerated
p3600
sI3623
Vexamining
p3601
sI3624
Vexcess
p3602
sI3625
Vexhibits
p3603
sI3626
Vexperiencing
p3604
sI3627
Vexplored
p3605
sI3628
Vextraction
p3606
sI3629
Vextrapyramidal
p3607
sI3630
Vextravasation
p3608
sI3631
Vextremities
p3609
sI3632
Vfalls
p3610
sI3633
Vfell
p3611
sI3634
Vferricyanide
p3612
sI3635
Vfetus
p3613
sI3636
Vfibrosis
p3614
sI3637
Vfiltration
p3615
sI3638
Vflu
p3616
sI3639
Vfluctuations
p3617
sI3640
Vfluid
p3618
sI3641
Vfluphenazine
p3619
sI3642
Vfluvastatin
p3620
sI3643
Vfolate
p3621
sI3644
Vformula
p3622
sI3645
Vfoscarnet
p3623
sI3646
Vfruit
p3624
sI3647
Vfull
p3625
sI3648
Vfumarate
p3626
sI3649
Vfurazolidone
p3627
sI3650
Vgelatin
p3628
sI3651
Vgemfibrozil
p3629
sI3652
Vgeriatric
p3630
sI3653
Vgestodene
p3631
sI3654
Vgland
p3632
sI3655
Vglatiramer
p3633
sI3656
Vglibenclamide
p3634
sI3657
Vglomerular
p3635
sI3658
Vgluconate
p3636
sI3659
Vglucuronide
p3637
sI3660
Vglutamic
p3638
sI3661
Vglutethimide
p3639
sI3662
Vgm
p3640
sI3663
Vgonadal
p3641
sI3664
Vgout
p3642
sI3665
Vgradually
p3643
sI3666
Vgrams
p3644
sI3667
Vgreat
p3645
sI3668
Vh.s
p3646
sI3669
Vhalofantrine
p3647
sI3670
Vhalved
p3648
sI3671
Vhazard
p3649
sI3672
Vheadache
p3650
sI3673
Vhematologic
p3651
sI3674
Vhemostasis
p3652
sI3675
Vhence
p3653
sI3676
Vhepatotoxicity
p3654
sI3677
Vherb
p3655
sI3678
Vhere
p3656
sI3679
Vheroin
p3657
sI3680
Vhexokinase
p3658
sI3681
Vhighest
p3659
sI3682
Vhistidine
p3660
sI3683
Vhref=
p3661
sI3684
Vhydrochloric
p3662
sI3685
Vhydrocortisone
p3663
sI3686
Vhydroxybupropion
p3664
sI3687
Vhydroxyzine
p3665
sI3688
Vhypercholesterolemic
p3666
sI3689
Vhyperthermia
p3667
sI3690
Vhyperthyroidism
p3668
sI3691
Vhypertriglyceridemia
p3669
sI3692
Vhyperuricemic
p3670
sI3693
Vhypokalemic
p3671
sI3694
Vhypoparathyroid
p3672
sI3695
Vhypothyroidism
p3673
sI3696
Vi
sI3697
Vibutilide
p3674
sI3698
Videntify
p3675
sI3699
Vifosfamide
p3676
sI3700
Vimidazole
p3677
sI3701
Vimmunocompromised
p3678
sI3702
Vimmunosuppression
p3679
sI3703
Vimpairing
p3680
sI3704
Vimpeding
p3681
sI3705
Vimplants
p3682
sI3706
Vimplication
p3683
sI3707
Vinactivate
p3684
sI3708
Vinactive
p3685
sI3709
Vinadequate
p3686
sI3710
Vinclusive
p3687
sI3711
Vincompatibility
p3688
sI3712
Vincompatible
p3689
sI3713
Vincompletely
p3690
sI3714
Vinconclusive
p3691
sI3715
Vinfluenced
p3692
sI3716
Vinfluenza
p3693
sI3717
Vinjectables
p3694
sI3718
Vinsert
p3695
sI3719
Vinsignificant
p3696
sI3720
Vinsufficient
p3697
sI3721
Vintensity
p3698
sI3722
Vinteractive
p3699
sI3723
Vinterruption
p3700
sI3724
Vintestines
p3701
sI3725
Vintolerance
p3702
sI3726
Vintroduced
p3703
sI3727
Viodinated
p3704
sI3728
Virritability
p3705
sI3729
Vischemia
p3706
sI3730
Visosorbide
p3707
sI3731
Vjuices
p3708
sI3732
Vketamine
p3709
sI3733
Vketones
p3710
sI3734
Vkidneys
p3711
sI3735
Vlabeling
p3712
sI3736
Vlactam
p3713
sI3737
Vlarger
p3714
sI3738
Vlasting
p3715
sI3739
Vlater
p3716
sI3740
Vlength
p3717
sI3741
Vlessen
p3718
sI3742
Vlessened
p3719
sI3743
Vleukocyte
p3720
sI3744
Vlevamisole
p3721
sI3745
Vlevorphanol
p3722
sI3746
Vlinezolid
p3723
sI3747
Vlipoproteins
p3724
sI3748
Vliquid
p3725
sI3749
Vlisinopril
p3726
sI3750
Vlists
p3727
sI3751
Vlowered
p3728
sI3752
Vluteinizing
p3729
sI3753
Vlymphocyte
p3730
sI3754
Vmakes
p3731
sI3755
Vmammalian
p3732
sI3756
Vmanifested
p3733
sI3757
Vmanner
p3734
sI3758
Vmask
p3735
sI3759
Vmaternal
p3736
sI3760
Vmaximal
p3737
sI3761
Vmazindol
p3738
sI3762
Vmeasurable
p3739
sI3763
Vmeasure
p3740
sI3764
Vmecamylamine
p3741
sI3765
Vmedian
p3742
sI3766
Vmediate
p3743
sI3767
Vmedroxyprogesterone
p3744
sI3768
Vmelphalan
p3745
sI3769
Vmember
p3746
sI3770
Vmeprobamate
p3747
sI3771
Vmeropenem
p3748
sI3772
Vmesenteric
p3749
sI3773
Vmethenamine
p3750
sI3774
Vmetolazone
p3751
sI3775
Vmice
p3752
sI3776
Vmicrodosed
p3753
sI3777
Vmicronucleus
p3754
sI3778
Vmidcycle
p3755
sI3779
Vmildly
p3756
sI3780
Vmilrinone
p3757
sI3781
Vmineral
p3758
sI3782
Vminimum
p3759
sI3783
Vmitotane
p3760
sI3784
Vmix
p3761
sI3785
Vmodel
p3762
sI3786
Vmodels
p3763
sI3787
Vmoderately
p3764
sI3788
Vmonoamines
p3765
sI3789
Vmotor
p3766
sI3790
Vmultivalent
p3767
sI3791
Vmutagenic
p3768
sI3792
Vmutation
p3769
sI3793
Vn=
p3770
sI3794
Vnabumetone
p3771
sI3795
Vnadolol
p3772
sI3796
Vnalbuphine
p3773
sI3797
Vnatriuresis
p3774
sI3798
Vnecessitate
p3775
sI3799
Vnefazadone
p3776
sI3800
Vnet
p3777
sI3801
Vneurologic
p3778
sI3802
Vneuron
p3779
sI3803
Vnicotine
p3780
sI3804
Vnimodipine
p3781
sI3805
Vnitazoxanide
p3782
sI3806
Vnitrite
p3783
sI3807
Vnitroferricyanide
p3784
sI3808
Vnodal
p3785
sI3809
Vnode
p3786
sI3810
Vnonselective
p3787
sI3811
Vnose
p3788
sI3812
Vnotably
p3789
sI3813
Vnote
p3790
sI3814
Vnucleoside
p3791
sI3815
Vnutritional
p3792
sI3816
Vobstetric
p3793
sI3817
Voccasions
p3794
sI3818
Voccult
p3795
sI3819
Voff
p3796
sI3820
Volanzapine
p3797
sI3821
Voliguria
p3798
sI3822
Vopiates
p3799
sI3823
Vorgan
p3800
sI3824
Vosteomalacia
p3801
sI3825
Voveractive
p3802
sI3826
Voverdose
p3803
sI3827
Voxazepam
p3804
sI3828
Voxipurinol
p3805
sI3829
Voxo
p3806
sI3830
Voxolinic
p3807
sI3831
Voxygen
p3808
sI3832
Voxymetholone
p3809
sI3833
Vpacemaker
p3810
sI3834
Vpaid
p3811
sI3835
Vpancuronium
p3812
sI3836
Vparaldehyde
p3813
sI3837
Vparallel
p3814
sI3838
Vparalytic
p3815
sI3839
Vparasympathomimetic
p3816
sI3840
Vparathyroid
p3817
sI3841
Vparenterally
p3818
sI3842
Vpectoris
p3819
sI3843
Vpegylated
p3820
sI3844
Vpelvic
p3821
sI3845
Vpenciclovir
p3822
sI3846
Vpenicillamine
p3823
sI3847
Vpercent
p3824
sI3848
Vpercentage
p3825
sI3849
Vpergolide
p3826
sI3850
Vperiods
p3827
sI3851
Vperivascular
p3828
sI3852
Vpermeability
p3829
sI3853
Vperphenazine
p3830
sI3854
Vpersistent
p3831
sI3855
Vperson
p3832
sI3856
Vpharmaco
p3833
sI3857
Vpharmacological
p3834
sI3858
Vphase
p3835
sI3859
Vphenformin
p3836
sI3860
Vphenomenon
p3837
sI3861
Vphenyramidol
p3838
sI3862
Vphysiologic
p3839
sI3863
Vpilocarpine
p3840
sI3864
Vpivoxil
p3841
sI3865
Vplaced
p3842
sI3866
Vplasmaconcentrations
p3843
sI3867
Vplasminogen
p3844
sI3868
Vplatelets
p3845
sI3869
Vpossessing
p3846
sI3870
Vpraziquantel
p3847
sI3871
Vprazosin
p3848
sI3872
Vpreanesthetic
p3849
sI3873
Vprecaution
p3850
sI3874
Vpreceding
p3851
sI3875
Vprecipitation
p3852
sI3876
Vpreclinical
p3853
sI3877
Vpremedication
p3854
sI3878
Vpremedications
p3855
sI3879
Vprescriber
p3856
sI3880
Vprescribers
p3857
sI3881
Vpresumably
p3858
sI3882
Vpreterm
p3859
sI3883
Vprevalence
p3860
sI3884
Vprimate
p3861
sI3885
Vprocarbazine
p3862
sI3886
Vproceed
p3863
sI3887
Vprodrug
p3864
sI3888
Vprofiles
p3865
sI3889
Vprogestational
p3866
sI3890
Vprogestogens
p3867
sI3891
Vproliferation
p3868
sI3892
Vprolonging
p3869
sI3893
Vpromoting
p3870
sI3894
Vprone
p3871
sI3895
Vpropantheline
p3872
sI3896
Vproper
p3873
sI3897
Vproportion
p3874
sI3898
Vproposed
p3875
sI3899
Vprostaglandins
p3876
sI3900
Vpsoriasis
p3877
sI3901
Vpsychomotor
p3878
sI3902
Vpups
p3879
sI3903
Vpurpose
p3880
sI3904
Vpyrazolones
p3881
sI3905
Vqd
p3882
sI3906
Vrabbit
p3883
sI3907
Vradiotherapy
p3884
sI3908
Vraising
p3885
sI3909
Vraloxifene
p3886
sI3910
Vrandom
p3887
sI3911
Vrandomized
p3888
sI3912
Vrapidly
p3889
sI3913
Vrates
p3890
sI3914
Vreach
p3891
sI3915
Vreasons
p3892
sI3916
Vreassessed
p3893
sI3917
Vreceptors
p3894
sI3918
Vrecirculation
p3895
sI3919
Vrecognized
p3896
sI3920
Vrecommendations
p3897
sI3921
Vrecover
p3898
sI3922
Vred
p3899
sI3923
Vreflected
p3900
sI3924
Vreflecting
p3901
sI3925
Vreflex
p3902
sI3926
Vrefractory
p3903
sI3927
Vregard
p3904
sI3928
Vregardless
p3905
sI3929
Vreliable
p3906
sI3930
Vremedies
p3907
sI3931
Vremoved
p3908
sI3932
Vrenally
p3909
sI3933
Vrepeat
p3910
sI3934
Vreplication
p3911
sI3935
Vreproductive
p3912
sI3936
Vresorcinol
p3913
sI3937
Vrespiration
p3914
sI3938
Vresponses
p3915
sI3939
Vresponsive
p3916
sI3940
Vreturn
p3917
sI3941
Vrise
p3918
sI3942
Vrises
p3919
sI3943
Vrocuronium
p3920
sI3944
Vrodent
p3921
sI3945
Vrole
p3922
sI3946
Vroutine
p3923
sI3947
Vroutinely
p3924
sI3948
Vroxithromycin
p3925
sI3949
Vrule
p3926
sI3950
Vschizophrenic
p3927
sI3951
Vscores
p3928
sI3952
Vsedating
p3929
sI3953
Vseem
p3930
sI3954
Vsegment
p3931
sI3955
Vselecting
p3932
sI3956
Vseminiferous
p3933
sI3957
Vsequestrants
p3934
sI3958
Vseropositive
p3935
sI3959
Vserotoninergic
p3936
sI3960
Vsetting
p3937
sI3961
Vshorter
p3938
sI3962
Vshortly
p3939
sI3963
Vsildenafil
p3940
sI3964
Vsimilarity
p3941
sI3965
Vsituation
p3942
sI3966
Vskills
p3943
sI3967
Vsleeping
p3944
sI3968
Vslices
p3945
sI3969
Vslowing
p3946
sI3970
Vsoaps
p3947
sI3971
Vsomatostatin
p3948
sI3972
Vspecified
p3949
sI3973
Vspectrum
p3950
sI3974
Vspleen
p3951
sI3975
Vstatin
p3952
sI3976
Vstimulant
p3953
sI3977
Vstimulated
p3954
sI3978
Vstimulatory
p3955
sI3979
Vstrenuous
p3956
sI3980
Vstreptozocin
p3957
sI3981
Vstress
p3958
sI3982
Vsub
p3959
sI3983
Vsubfraction
p3960
sI3984
Vsubsided
p3961
sI3985
Vsubstituted
p3962
sI3986
Vsubstitutes
p3963
sI3987
Vsubtherapeutic
p3964
sI3988
Vsulphasalazine
p3965
sI3989
Vsunitinib
p3966
sI3990
Vsupine
p3967
sI3991
Vsupraventricular
p3968
sI3992
Vsurvival
p3969
sI3993
Vsymbol
p3970
sI3994
Vsympatholytic
p3971
sI3995
Vsymptom
p3972
sI3996
Vsynthetase
p3973
sI3997
Vsyringe
p3974
sI3998
Vsystemically
p3975
sI3999
Vt
sI4000
Vt9
p3976
sI4001
Vtable
p3977
sI4002
Vtachypnea
p3978
sI4003
Vtalk
p3979
sI4004
Vtaste
p3980
sI4005
Vtea
p3981
sI4006
Vtell
p3982
sI4007
Vtemplate
p3983
sI4008
Vtenofovir
p3984
sI4009
Vtenth
p3985
sI4010
Vterminal
p3986
sI4011
Vtesticular
p3987
sI4012
Vtestolactone
p3988
sI4013
Vthalidomide
p3989
sI4014
Vthem
p3990
sI4015
Vtheobromine
p3991
sI4016
Vthinners
p3992
sI4017
Vthioxanthenes
p3993
sI4018
Vthioxanthines
p3994
sI4019
Vthoracic
p3995
sI4020
Vthreshold
p3996
sI4021
Vthromboglobulin
p3997
sI4022
Vthrombolytics
p3998
sI4023
Vtid
p3999
sI4024
Vtissue
p4000
sI4025
Vtoxicology
p4001
sI4026
Vtranscriptase
p4002
sI4027
Vtransfusion
p4003
sI4028
Vtransfusions
p4004
sI4029
Vtransition
p4005
sI4030
Vtransporter
p4006
sI4031
Vtrazodone
p4007
sI4032
Vtriclofos
p4008
sI4033
Vtuberculosis
p4009
sI4034
Vtwofold
p4010
sI4035
Vtyphimurium
p4011
sI4036
Vuncertain
p4012
sI4037
Vundergoes
p4013
sI4038
Vunderlying
p4014
sI4039
Vundesirable
p4015
sI4040
Vunprotected
p4016
sI4041
Vunreliable
p4017
sI4042
Vurate
p4018
sI4043
Vuricosurics
p4019
sI4044
Vuseful
p4020
sI4045
Vvaginal
p4021
sI4046
Vvaried
p4022
sI4047
Vvarying
p4023
sI4048
Vvasoconstriction
p4024
sI4049
Vvasoconstrictors
p4025
sI4050
Vvasodilation
p4026
sI4051
Vvasopressors
p4027
sI4052
Vvecuronium
p4028
sI4053
Vvigabatrin
p4029
sI4054
Vvinblastine
p4030
sI4055
Vvinorelbine
p4031
sI4056
Vwatched
p4032
sI4057
Vway
p4033
sI4058
Vweather
p4034
sI4059
Vweighed
p4035
sI4060
Vwidening
p4036
sI4061
Vwindows
p4037
sI4062
Vwine
p4038
sI4063
Vwoman
p4039
sI4064
Vworsen
p4040
sI4065
Vworsened
p4041
sI4066
Vwshow
p4042
sI4067
Vzileuton
p4043
sI4068
V''
p4044
sI4069
V*Not
p4045
sI4070
V9.Farr
p4046
sI4071
V9D
p4047
sI4072
V9HIAA
p4048
sI4073
V9IIE9
p4049
sI4074
V9MNA
p4050
sI4075
V9O
p4051
sI4076
V9OH
p4052
sI4077
V9b
p4053
sI4078
V9h
p4054
sI4079
V>
sI4080
V?
sI4081
VABCB9
p4055
sI4082
VABILIFY
p4056
sI4083
VABSORPTION
p4057
sI4084
VACID
p4058
sI4085
VACR
p4059
sI4086
VACTION
p4060
sI4087
VACZONE
p4061
sI4088
VADDITIVE
p4062
sI4089
VADJUSTMENT
p4063
sI4090
VADVERSE
p4064
sI4091
VADVISABLE
p4065
sI4092
VAFTER
p4066
sI4093
VAKINETON
p4067
sI4094
VALG
p4068
sI4095
VALKERAN
p4069
sI4096
VAMERGE
p4070
sI4097
VANALGESICS
p4071
sI4098
VANTABUSE
p4072
sI4099
VANTICOAGULANTS
p4073
sI4100
VAPPROPRIATE
p4074
sI4101
VAPRD99_IN
p4075
sI4102
VASA
p4076
sI4103
VASMANEX
p4077
sI4104
VASPIRIN
p4078
sI4105
VATAC
p4079
sI4106
VATACAND
p4080
sI4107
VATG
p4081
sI4108
VATIII
p4082
sI4109
VAUCss
p4083
sI4110
VAVOID
p4084
sI4111
VAbacavir
p4085
sI4112
VAbciximab
p4086
sI4113
VAcebutolol
p4087
sI4114
VAcellular
p4088
sI4115
VAcetate
p4089
sI4116
VAcetohydroxamic
p4090
sI4117
VAcetylsalicylic
p4091
sI4118
VAcidifying
p4092
sI4119
VAcitretin
p4093
sI4120
VAcromegalic
p4094
sI4121
VActions
p4095
sI4122
VAdditives
p4096
sI4123
VAdequate
p4097
sI4124
VAdjuvant
p4098
sI4125
VAdvil
p4099
sI4126
VAerolizerTM
p4100
sI4127
VAffected
p4101
sI4128
VAgenerase
p4102
sI4129
VAgent
p4103
sI4130
VAgonists
p4104
sI4131
VAleve
p4105
sI4132
VAlkalinizers
p4106
sI4133
VAlkalinizing
p4107
sI4134
VAlprazolam
p4108
sI4135
VAlter
p4109
sI4136
VAlternatively
p4110
sI4137
VAluminum
p4111
sI4138
VAlveolar
p4112
sI4139
VAmbulatory
p4113
sI4140
VAmerican
p4114
sI4141
VAminosalicylic
p4115
sI4142
VAmitriptyline
p4116
sI4143
VAmoxicillin
p4117
sI4144
VAmpicillin
p4118
sI4145
VAmylase
p4119
sI4146
VAnabolin
p4120
sI4147
VAnadrol
p4121
sI4148
VAnalgesic
p4122
sI4149
VAnalogues
p4123
sI4150
VAnaprox
p4124
sI4151
VAnastrozole
p4125
sI4152
VAnavar
p4126
sI4153
VAnd
p4127
sI4154
VAndrogens
p4128
sI4155
VAngiotensln
p4129
sI4156
VAntagonism
p4130
sI4157
VAntiarrhythmic
p4131
sI4158
VAnticoagulation
p4132
sI4159
VAntidiabetics
p4133
sI4160
VAntiepilepsy
p4134
sI4161
VAntifungal
p4135
sI4162
VAntimigraine
p4136
sI4163
VAntiplatelets
p4137
sI4164
VAntipsychotic
p4138
sI4165
VAntitubercular
p4139
sI4166
VAntiviral
p4140
sI4167
VAralen
p4141
sI4168
VAre
p4142
sI4169
VArecoline
p4143
sI4170
VAricept
p4144
sI4171
VAripiprazole
p4145
sI4172
VArthropan
p4146
sI4173
VAscorbic
p4147
sI4174
VAssays
p4148
sI4175
VAssociated
p4149
sI4176
VAstemizole
p4150
sI4177
VAstramorph
p4151
sI4178
VAsubnormal
p4152
sI4179
VAsymptomatic
p4153
sI4180
VAtarax
p4154
sI4181
VAtazanavir
p4155
sI4182
VAtomoxetine
p4156
sI4183
VAtovaquone
p4157
sI4184
VAuranofin
p4158
sI4185
VAyerst
p4159
sI4186
VAzathioprine
p4160
sI4187
VAzlocillin
p4161
sI4188
VAzole
p4162
sI4189
VAzulfidine
p4163
sI4190
VBARBITURATES
p4164
sI4191
VBEEN
p4165
sI4192
VBEFORE
p4166
sI4193
VBIND
p4167
sI4194
VBLOOD
p4168
sI4195
VBOTOX
p4169
sI4196
VBPH
p4170
sI4197
VBUN
p4171
sI4198
VBactericidal
p4172
sI4199
VBacteriostatic
p4173
sI4200
VBactrim
p4174
sI4201
VBenazepril
p4175
sI4202
VBenzyl
p4176
sI4203
VBenzylpenicillin
p4177
sI4204
VBetween
p4178
sI4205
VBexarotene
p4179
sI4206
VBiCNU
p4180
sI4207
VBio
p4181
sI4208
VBioavailability
p4182
sI4209
VBismol
p4183
sI4210
VBisphosphonates
p4184
sI4211
VBlunting
p4185
sI4212
VBone
p4186
sI4213
VBoric
p4187
sI4214
VBound
p4188
sI4215
VBrain
p4189
sI4216
VBreakthrough
p4190
sI4217
VBreast
p4191
sI4218
VBrief
p4192
sI4219
VBritish
p4193
sI4220
VBromocriptine
p4194
sI4221
VBuffered
p4195
sI4222
VBumetanide
p4196
sI4223
VButalbital
p4197
sI4224
VButyrophenones
p4198
sI4225
VCASODEX
p4199
sI4226
VCD9
p4200
sI4227
VCENTRAL
p4201
sI4228
VCHEMET
p4202
sI4229
VCLINITEST
p4203
sI4230
VCLcr=9
p4204
sI4231
VCMV
p4205
sI4232
VCOAGULATION
p4206
sI4233
VCOLAZAL
p4207
sI4234
VCOLESTlD
p4208
sI4235
VCOMT
p4209
sI4236
VCONCENTRATIONS
p4210
sI4237
VCONCURRENTLY
p4211
sI4238
VCONGENERS
p4212
sI4239
VCONSIDERED
p4213
sI4240
VCONTINUING
p4214
sI4241
VCOUMARIN
p4215
sI4242
VCP
p4216
sI4243
VCYP9CI9
p4217
sI4244
VCYP9EI
p4218
sI4245
VCYP9s
p4219
sI4246
VCYPIA9
p4220
sI4247
VCYPs
p4221
sI4248
VCalan
p4222
sI4249
VCampath
p4223
sI4250
VCan
p4224
sI4251
VCarbachol
p4225
sI4252
VCarbidopa
p4226
sI4253
VCarboplatin
p4227
sI4254
VCarboptic
p4228
sI4255
VCardiovasculars
p4229
sI4256
VCare
p4230
sI4257
VCarmustine
p4231
sI4258
VCaspofungin
p4232
sI4259
VCataflam
p4233
sI4260
VCatechol
p4234
sI4261
VCations
p4235
sI4262
VCaucasians
p4236
sI4263
VCausing
p4237
sI4264
VCelecoxib
p4238
sI4265
VCelexa
p4239
sI4266
VCelontin
p4240
sI4267
VCerivastatin
p4241
sI4268
VChannel
p4242
sI4269
VChewable
p4243
sI4270
VChloroquine
p4244
sI4271
VChlorthalidone
p4245
sI4272
VCholestytamine
p4246
sI4273
VCholinomimetics
p4247
sI4274
VChoose
p4248
sI4275
VChromatogr
p4249
sI4276
VCisplatin
p4250
sI4277
VClearance
p4251
sI4278
VClidinium
p4252
sI4279
VClindamycin
p4253
sI4280
VClofibric
p4254
sI4281
VCoadminstered
p4255
sI4282
VCoadminstration
p4256
sI4283
VCodeine
p4257
sI4284
VCoffee
p4258
sI4285
VCold
p4259
sI4286
VCombinations
p4260
sI4287
VCommonly
p4261
sI4288
VCompany
p4262
sI4289
VCompounds
p4263
sI4290
VConcentrations
p4264
sI4291
VConcomitantly
p4265
sI4292
VConflicting
p4266
sI4293
VConfusion
p4267
sI4294
VConjunction
p4268
sI4295
VConsideration
p4269
sI4296
VConsult
p4270
sI4297
VContaining
p4271
sI4298
VContin
p4272
sI4299
VContinuous
p4273
sI4300
VContrast
p4274
sI4301
VConversion
p4275
sI4302
VCorrelative
p4276
sI4303
VCremophor
p4277
sI4304
VCrixivan
p4278
sI4305
VCss
p4279
sI4306
VCssmax
p4280
sI4307
VCyanokit
p4281
sI4308
VCyclopentolate
p4282
sI4309
VCyclopropane
p4283
sI4310
VCytadren
p4284
sI4311
VCytosine
p4285
sI4312
VDAYS
p4286
sI4313
VDEFINITELY
p4287
sI4314
VDEPRESSANTS
p4288
sI4315
VDETERMINATIONS
p4289
sI4316
VDFCR
p4290
sI4317
VDIABINESE
p4291
sI4318
VDIAGNOSTIC
p4292
sI4319
VDIFFERENT
p4293
sI4320
VDIGOXIN
p4294
sI4321
VDILAUDID
p4295
sI4322
VDISALCID
p4296
sI4323
VDOSTINEX
p4297
sI4324
VDactinomycin
p4298
sI4325
VDantrolene
p4299
sI4326
VDapsone
p4300
sI4327
VDasatinib
p4301
sI4328
VDate
p4302
sI4329
VDaunorubicin
p4303
sI4330
VDaypro
p4304
sI4331
VDeath
p4305
sI4332
VDeaths
p4306
sI4333
VDecreasing
p4307
sI4334
VDeferasirox
p4308
sI4335
VDelayed
p4309
sI4336
VDepakene
p4310
sI4337
VDepakote
p4311
sI4338
VDerivative
p4312
sI4339
VDesyrel
p4313
sI4340
VDexbrompheniramine
p4314
sI4341
VDexfenfluramine
p4315
sI4342
VDexrazoxane
p4316
sI4343
VDiagnostic
p4317
sI4344
VDiasone
p4318
sI4345
VDifferences
p4319
sI4346
VDiflunisal
p4320
sI4347
VDihydroergotamine
p4321
sI4348
VDihydropyridine
p4322
sI4349
VDimenhydrinate
p4323
sI4350
VDiminished
p4324
sI4351
VDiphenoxylate
p4325
sI4352
VDisalcid
p4326
sI4353
VDiscontinuation
p4327
sI4354
VDiscontinuing
p4328
sI4355
VDisease
p4329
sI4356
VDisopyramide
p4330
sI4357
VDispersible
p4331
sI4358
VDisplacement
p4332
sI4359
VDisulfiram
p4333
sI4360
VDiuril
p4334
sI4361
VDivalproex
p4335
sI4362
VDivision
p4336
sI4363
VDosages
p4337
sI4364
VDosing
p4338
sI4365
VDoxepin
p4339
sI4366
VDoxylamine
p4340
sI4367
VDrs
p4341
sI4368
VE9
p4342
sI4369
VEDECRIN
p4343
sI4370
VEFFECT
p4344
sI4371
VEFFECTS
p4345
sI4372
VEIA
p4346
sI4373
VEL
p4347
sI4374
VEM
p4348
sI4375
VEMCYT
p4349
sI4376
VEMTRIVA
p4350
sI4377
VEMs
p4351
sI4378
VENBREL
p4352
sI4379
VEPHESUS
p4353
sI4380
VERGAMISOL
p4354
sI4381
VERPF
p4355
sI4382
VERYTHROMYCIN
p4356
sI4383
VEULEXIN
p4357
sI4384
VEVIDENCE
p4358
sI4385
VEXERCISED
p4359
sI4386
VEXTREME
p4360
sI4387
VEffectiveness
p4361
sI4388
VEldepryl
p4362
sI4389
VElectroconvulsive
p4363
sI4390
VElectrolyte
p4364
sI4391
VElevations
p4365
sI4392
VEliminated
p4366
sI4393
VEllison
p4367
sI4394
VEndocrine
p4368
sI4395
VEndogenous
p4369
sI4396
VEnflurane
p4370
sI4397
VEnhancing
p4371
sI4398
VEnoxaparin
p4372
sI4399
VEntacapone
p4373
sI4400
VEnzymatic
p4374
sI4401
VEpidemiological
p4375
sI4402
VEpidural
p4376
sI4403
VEpirubicin
p4377
sI4404
VEplerenone
p4378
sI4405
VEpoxide
p4379
sI4406
VEproxindine
p4380
sI4407
VEspecially
p4381
sI4408
VEstazolam
p4382
sI4409
VEstradiol
p4383
sI4410
VEthosuximide
p4384
sI4411
VEthotoin
p4385
sI4412
VEthoxzolamide
p4386
sI4413
VEthyl
p4387
sI4414
VEtonogestrel
p4388
sI4415
VEtretinate
p4389
sI4416
VEurope
p4390
sI4417
VEuropean
p4391
sI4418
VEvery
p4392
sI4419
VExaggerated
p4393
sI4420
VExcept
p4394
sI4421
VExcretion
p4395
sI4422
VExogenously
p4396
sI4423
VExpected
p4397
sI4424
VExtended
p4398
sI4425
VExtent
p4399
sI4426
VExtreme
p4400
sI4427
VEye
p4401
sI4428
VFBS
p4402
sI4429
VFDA
p4403
sI4430
VFLUDARA
p4404
sI4431
VFOSCAVIR
p4405
sI4432
VFREQUENT
p4406
sI4433
VFactor
p4407
sI4434
VFalse
p4408
sI4435
VFamilial
p4409
sI4436
VFatal
p4410
sI4437
VFatalities
p4411
sI4438
VFeSO9
p4412
sI4439
VFelbamate
p4413
sI4440
VFemara
p4414
sI4441
VFenbufen
p4415
sI4442
VFenfluramine
p4416
sI4443
VFew
p4417
sI4444
VFexofenadine
p4418
sI4445
VFibrates
p4419
sI4446
VFibric
p4420
sI4447
VFifteen
p4421
sI4448
VFinasteride
p4422
sI4449
VFlecainide
p4423
sI4450
VFloxuridine
p4424
sI4451
VFlucytosine
p4425
sI4452
VFluoxetine
p4426
sI4453
VFolinic
p4427
sI4454
VFoods
p4428
sI4455
VFortified
p4429
sI4456
VFortovase
p4430
sI4457
VFoscarnet
p4431
sI4458
VFosinopril
p4432
sI4459
VFulminant
p4433
sI4460
VG
sI4461
VGGT
p4434
sI4462
VGP
p4435
sI4463
VGREAT
p4436
sI4464
VGUARDIAN
p4437
sI4465
VGantanol
p4438
sI4466
VGantrisin
p4439
sI4467
VGastric
p4440
sI4468
VGastroparesis
p4441
sI4469
VGemfibrozil
p4442
sI4470
VGemzar
p4443
sI4471
VGenitourinary
p4444
sI4472
VGentamicin
p4445
sI4473
VGlibenclamide
p4446
sI4474
VGold
p4447
sI4475
VGreater
p4448
sI4476
VGris
p4449
sI4477
VGuanethidine
p4450
sI4478
VGuardian
p4451
sI4479
VH
sI4480
VH9antagonists
p4452
sI4481
VHACA
p4453
sI4482
VHC9
p4454
sI4483
VHCL
p4455
sI4484
VHEMABATE
p4456
sI4485
VHIT
p4457
sI4486
VHITTS
p4458
sI4487
VHOUR
p4459
sI4488
VHOURS
p4460
sI4489
VHT9B
p4461
sI4490
VHTv
p4462
sI4491
VHUMORSOL
p4463
sI4492
VHYDROXYZINE
p4464
sI4493
VHallucinations
p4465
sI4494
VHalothane
p4466
sI4495
VHas
p4467
sI4496
VHave
p4468
sI4497
VHaving
p4469
sI4498
VHealthcare
p4470
sI4499
VHealthy
p4471
sI4500
VHematology
p4472
sI4501
VHematopoietic
p4473
sI4502
VHemodynamic
p4474
sI4503
VHemostasis
p4475
sI4504
VHepatotoxic
p4476
sI4505
VHepatotoxicity
p4477
sI4506
VHerb
p4478
sI4507
VHighly
p4479
sI4508
VHoFH
p4480
sI4509
VHormone
p4481
sI4510
VHydrocodone
p4482
sI4511
VHydrodiuril
p4483
sI4512
VHydrolase
p4484
sI4513
VHyperaminotransferasemia
p4485
sI4514
VHyperglycemia
p4486
sI4515
VHyperpyrexia
p4487
sI4516
VHypersensitivity
p4488
sI4517
VHypertension
p4489
sI4518
VHypertensive
p4490
sI4519
VHyperthyroidism
p4491
sI4520
VHypoglycemic
p4492
sI4521
VHypokalemia
p4493
sI4522
VI.V
p4494
sI4523
VI.V.
p4495
sI4524
VI9
p4496
sI4525
VIA
p4497
sI4526
VIC9
p4498
sI4527
VIGF
p4499
sI4528
VIIIA9
p4500
sI4529
VIIb
p4501
sI4530
VIMITREX
p4502
sI4531
VIMPEDING
p4503
sI4532
VINCREASED
p4504
sI4533
VINFORMATION
p4505
sI4534
VINITIATION
p4506
sI4535
VINJECTION
p4507
sI4536
VINTERFERENCE
p4508
sI4537
VINTERVAL
p4509
sI4538
VISIS
p4510
sI4539
VITS
p4511
sI4540
VIU
p4512
sI4541
VImmunodeficiencies
p4513
sI4542
VImmunodeficiency
p4514
sI4543
VImmunogenicity
p4515
sI4544
VImmunologic
p4516
sI4545
VImmunosuppressive
p4517
sI4546
VImplantable
p4518
sI4547
VImuran
p4519
sI4548
VInc
p4520
sI4549
VInc.
p4521
sI4550
VInderal
p4522
sI4551
VIndex
p4523
sI4552
VIndividualization
p4524
sI4553
VIndocin
p4525
sI4554
VIndocyanine
p4526
sI4555
VInfluenza
p4527
sI4556
VInfusion
p4528
sI4557
VInhibitor
p4529
sI4558
VInhibits
p4530
sI4559
VInjectionSite
p4531
sI4560
VInstances
p4532
sI4561
VIntegumentary
p4533
sI4562
VIntensified
p4534
sI4563
VIntensive
p4535
sI4564
VInterferes
p4536
sI4565
VIntestinal
p4537
sI4566
VIntracellular
p4538
sI4567
VIntron
p4539
sI4568
VInvestigations
p4540
sI4569
VInvirase
p4541
sI4570
VIodide
p4542
sI4571
VIodinated
p4543
sI4572
VIodine
p4544
sI4573
VIrinotecan
p4545
sI4574
VIronically
p4546
sI4575
VIsopto
p4547
sI4576
VJ
sI4577
VJANUVIA
p4548
sI4578
VJaff
p4549
sI4579
VJnl
p4550
sI4580
VKEMSTRO
p4551
sI4581
VKEMSTROTM
p4552
sI4582
VKERASTICK
p4553
sI4583
VKS
p4554
sI4584
VKT
p4555
sI4585
VKadian
p4556
sI4586
VKaletra
p4557
sI4587
VKaposi
p4558
sI4588
VKeflex
p4559
sI4589
VKerlone
p4560
sI4590
VKey
p4561
sI4591
VKilled
p4562
sI4592
VKnown
p4563
sI4593
VLCV
p4564
sI4594
VLDH
p4565
sI4595
VLEAST
p4566
sI4596
VLEVULAN
p4567
sI4597
VLODOSYN
p4568
sI4598
VLabetalol
p4569
sI4599
VLaboratoryTest
p4570
sI4600
VLamprene
p4571
sI4601
VLanoxicaps
p4572
sI4602
VLanoxin
p4573
sI4603
VLarge
p4574
sI4604
VLatent
p4575
sI4605
VLethargy
p4576
sI4606
VLeucovorin
p4577
sI4607
VLeukocyte
p4578
sI4608
VLevel
p4579
sI4609
VLevels
p4580
sI4610
VLevodopa
p4581
sI4611
VLevofloxacin
p4582
sI4612
VLevosimendan
p4583
sI4613
VLevothyroxine
p4584
sI4614
VLeydig
p4585
sI4615
VLikewise
p4586
sI4616
VLipitor
p4587
sI4617
VLithostat
p4588
sI4618
VLittle
p4589
sI4619
VLocal
p4590
sI4620
VLomefloxacin
p4591
sI4621
VLopressor
p4592
sI4622
VLoratadine
p4593
sI4623
VLorazepam
p4594
sI4624
VLosartan
p4595
sI4625
VLovastatin
p4596
sI4626
VLovenox
p4597
sI4627
VLower
p4598
sI4628
VLupus
p4599
sI4629
VLymphocytopenia
p4600
sI4630
VM.C
p4601
sI4631
VMAXIPIME
p4602
sI4632
VMETROGEL
p4603
sI4633
VMEXITIL
p4604
sI4634
VMIC
p4605
sI4635
VMIDAMOR
p4606
sI4636
VMONUROL
p4607
sI4637
VMUST
p4608
sI4638
VMYOBLOC
p4609
sI4639
VMagan
p4610
sI4640
VMainly
p4611
sI4641
VMale
p4612
sI4642
VMaprotiline
p4613
sI4643
VMassive
p4614
sI4644
VMaximum
p4615
sI4645
VMean
p4616
sI4646
VMecamylamine
p4617
sI4647
VMedia
p4618
sI4648
VMedroxyprogesterone
p4619
sI4649
VMelatonin
p4620
sI4650
VMellaril
p4621
sI4651
VMenstrual
p4622
sI4652
VMequitazine
p4623
sI4653
VMetabolizing
p4624
sI4654
VMetal
p4625
sI4655
VMethazolamide
p4626
sI4656
VMethergine
p4627
sI4657
VMethylprednisolone
p4628
sI4658
VMethylxanthines
p4629
sI4659
VMethyprylon
p4630
sI4660
VMethysergide
p4631
sI4661
VMicrodosed
p4632
sI4662
VMigraine
p4633
sI4663
VMild
p4634
sI4664
VMiles
p4635
sI4665
VMilk
p4636
sI4666
VMineral
p4637
sI4667
VMinimal
p4638
sI4668
VMinimum
p4639
sI4669
VMinor
p4640
sI4670
VMiochol
p4641
sI4671
VMitomycin
p4642
sI4672
VMixing
p4643
sI4673
VMixtures
p4644
sI4674
VModest
p4645
sI4675
VMonth
p4646
sI4676
VMore
p4647
sI4677
VMoreover
p4648
sI4678
VMotrin
p4649
sI4679
VMutagenicity
p4650
sI4680
VMycobacteriumavium
p4651
sI4681
VMyelopoesis
p4652
sI4682
VMyochrysine
p4653
sI4683
VNARCOTIC
p4654
sI4684
VNARCOTICS
p4655
sI4685
VNERVOUS
p4656
sI4686
VNEUPOGEN
p4657
sI4687
VNIDDM
p4658
sI4688
VNINDS
p4659
sI4689
VNON
p4660
sI4690
VNSAIDS
p4661
sI4691
VNSCLC
p4662
sI4692
VNTG
p4663
sI4693
VNYHA
p4664
sI4694
VNabilone
p4665
sI4695
VNafazodone
p4666
sI4696
VNalidixic
p4667
sI4697
VNaltrexone
p4668
sI4698
VNaprosyn
p4669
sI4699
VNarcotic
p4670
sI4700
VNarcotics
p4671
sI4701
VNarrow
p4672
sI4702
VNateglinide
p4673
sI4703
VNeeded
p4674
sI4704
VNefazodone
p4675
sI4705
VNeither
p4676
sI4706
VNeoral
p4677
sI4707
VNeuromuscular
p4678
sI4708
VNeuropsychiatric
p4679
sI4709
VNeurotoxic
p4680
sI4710
VNicardipine
p4681
sI4711
VNimodipine
p4682
sI4712
VNimotop
p4683
sI4713
VNitroglycerin
p4684
sI4714
VNizatidine
p4685
sI4715
VNizoral
p4686
sI4716
VNoncardioselective
p4687
sI4717
VNondepolarizing
p4688
sI4718
VNorepinephrine
p4689
sI4719
VNorth
p4690
sI4720
VNorvir
p4691
sI4721
VNovoSeven
p4692
sI4722
VNucleoside
p4693
sI4723
VNuprin
p4694
sI4724
VNutraceutical
p4695
sI4725
VNydrazid
p4696
sI4726
VOA
p4697
sI4727
VOH
p4698
sI4728
VORAL
p4699
sI4729
VOTC
p4700
sI4730
VOVCON
p4701
sI4731
VObserve
p4702
sI4732
VOccasionally
p4703
sI4733
VOcupress
p4704
sI4734
VOil
p4705
sI4735
VOils
p4706
sI4736
VOlanzapine
p4707
sI4737
VOmniscan
p4708
sI4738
VOnce
p4709
sI4739
VOndansetron
p4710
sI4740
VOnset
p4711
sI4741
VOpiate
p4712
sI4742
VOrganic
p4713
sI4743
VOruvail
p4714
sI4744
VOthers
p4715
sI4745
VOxandrolone
p4716
sI4746
VOxcarbazepine
p4717
sI4747
VP9D9
p4718
sI4748
VPA
p4719
sI4749
VPATIENT
p4720
sI4750
VPCP
p4721
sI4751
VPD
p4722
sI4752
VPEGANONE
p4723
sI4753
VPERSANTINE
p4724
sI4754
VPLASMA
p4725
sI4755
VPLENDIL
p4726
sI4756
VPMs
p4727
sI4757
VPOSSIBLE
p4728
sI4758
VPOTENTIATING
p4729
sI4759
VPROCRIT
p4730
sI4760
VPROPECIA
p4731
sI4761
VPROSCAR
p4732
sI4762
VPROSTIN
p4733
sI4763
VPROVIDED
p4734
sI4764
VPaclitaxel
p4735
sI4765
VPaget
p4736
sI4766
VPantoprazole
p4737
sI4767
VParalytic
p4738
sI4768
VParkinsons
p4739
sI4769
VPatient
p4740
sI4770
VPeak
p4741
sI4771
VPediatrics
p4742
sI4772
VPeganone
p4743
sI4773
VPending
p4744
sI4774
VPenicillin
p4745
sI4775
VPepto
p4746
sI4776
VPerhexiline
p4747
sI4777
VPerioperative
p4748
sI4778
VPermax
p4749
sI4779
VPermitil
p4750
sI4780
VPersons
p4751
sI4781
VPharmaceuticals
p4752
sI4782
VPharmacodynamics
p4753
sI4783
VPharmacologic
p4754
sI4784
VPharmacological
p4755
sI4785
VPhenothiazine
p4756
sI4786
VPhospholine
p4757
sI4787
VPhysiologic
p4758
sI4788
VPhysiological
p4759
sI4789
VPhysiology
p4760
sI4790
VPilocarpine
p4761
sI4791
VPiperacillin
p4762
sI4792
VPlatelia
p4763
sI4793
VPlease
p4764
sI4794
VPletal
p4765
sI4795
VPorter
p4766
sI4796
VPostmenopausal
p4767
sI4797
VPostoperative
p4768
sI4798
VPotent
p4769
sI4799
VPowder
p4770
sI4800
VPramipexole
p4771
sI4801
VPravastatin
p4772
sI4802
VPraziquantel
p4773
sI4803
VPre
p4774
sI4804
VPrecipitation
p4775
sI4805
VPredicted
p4776
sI4806
VPrednisolone
p4777
sI4807
VPrelone
p4778
sI4808
VPreparations
p4779
sI4809
VPrescribers
p4780
sI4810
VPresumably
p4781
sI4811
VPrevention
p4782
sI4812
VPrimaquine
p4783
sI4813
VProSom
p4784
sI4814
VProcainamide
p4785
sI4815
VProduct
p4786
sI4816
VProfound
p4787
sI4817
VProgesterone
p4788
sI4818
VPromethazine
p4789
sI4819
VPronestyl
p4790
sI4820
VPropanolol
p4791
sI4821
VProstaglandin
p4792
sI4822
VProstigmin
p4793
sI4823
VProstin
p4794
sI4824
VProteins
p4795
sI4825
VProvided
p4796
sI4826
VPsychiatric
p4797
sI4827
VPsychoactive
p4798
sI4828
VPulmozyme
p4799
sI4829
VQT9
p4800
sI4830
VQuinidex
p4801
sI4831
VR=
p4802
sI4832
VREACTIONS
p4803
sI4833
VRECOMMENDED
p4804
sI4834
VREFERENCES
p4805
sI4835
VREGRANEX
p4806
sI4836
VREMICADE
p4807
sI4837
VREVEIVING
p4808
sI4838
VRISE
p4809
sI4839
VRR
p4810
sI4840
VRabbits
p4811
sI4841
VRad
p4812
sI4842
VRadiation
p4813
sI4843
VRaloxifene
p4814
sI4844
VRates
p4815
sI4845
VRating
p4816
sI4846
VRe
p4817
sI4847
VReciprocal
p4818
sI4848
VRecurrence
p4819
sI4849
VReduction
p4820
sI4850
VRegistered
p4821
sI4851
VRegistry
p4822
sI4852
VRelafen
p4823
sI4853
VRelaxants
p4824
sI4854
VRenin
p4825
sI4855
VRepeated
p4826
sI4856
VRepeating
p4827
sI4857
VReproductive
p4828
sI4858
VRequire
p4829
sI4859
VRequirements
p4830
sI4860
VResins
p4831
sI4861
VRespiratory
p4832
sI4862
VRetavase
p4833
sI4863
VRetrospective
p4834
sI4864
VReuptake
p4835
sI4865
VReverse
p4836
sI4866
VReversible
p4837
sI4867
VReview
p4838
sI4868
VRheum
p4839
sI4869
VRichens
p4840
sI4870
VRifadin
p4841
sI4871
VRifamate
p4842
sI4872
VRimmer
p4843
sI4873
VRitalin
p4844
sI4874
VRivastigmine
p4845
sI4875
VRofecoxib
p4846
sI4876
VSALICYLATE
p4847
sI4877
VSALICYLIC
p4848
sI4878
VSC
p4849
sI4879
VSERUM
p4850
sI4880
VSHBG
p4851
sI4881
VSIDE
p4852
sI4882
VSINCE
p4853
sI4883
VSKELAXIN
p4854
sI4884
VSOMAVERT
p4855
sI4885
VSR
p4856
sI4886
VSTABILIZED
p4857
sI4887
VSUBSEQUENT
p4858
sI4888
VSUCH
p4859
sI4889
VSULAR
p4860
sI4890
VSUSTIVAb
p4861
sI4891
VSYNAREL
p4862
sI4892
VSYSTEM
p4863
sI4893
VSafety
p4864
sI4894
VSalt
p4865
sI4895
VSandimmune
p4866
sI4896
VScale
p4867
sI4897
VSecretion
p4868
sI4898
VSectral
p4869
sI4899
VSedative
p4870
sI4900
VSeizure
p4871
sI4901
VSeizures
p4872
sI4902
VSeparating
p4873
sI4903
VSeptra
p4874
sI4904
VSerentil
p4875
sI4905
VSerotonergic
p4876
sI4906
VSerotonin
p4877
sI4907
VSertraline
p4878
sI4908
VSever
p4879
sI4909
VSilber
p4880
sI4910
VSimilar
p4881
sI4911
VSirolimus
p4882
sI4912
VSj
p4883
sI4913
VSmokers
p4884
sI4914
VSolganal
p4885
sI4915
VSoliris
p4886
sI4916
VSomatrem
p4887
sI4917
VSomatropin
p4888
sI4918
VSorafenib
p4889
sI4919
VSparine
p4890
sI4920
VSpectrum
p4891
sI4921
VSpontaneous
p4892
sI4922
VSporadic
p4893
sI4923
VSporanox
p4894
sI4924
VStates
p4895
sI4925
VStatins
p4896
sI4926
VStatistically
p4897
sI4927
VStelazine
p4898
sI4928
VSteroidal
p4899
sI4929
VStomach
p4900
sI4930
VStreptase
p4901
sI4931
VStreptokinase
p4902
sI4932
VStrip
p4903
sI4933
VStroke
p4904
sI4934
VStrong
p4905
sI4935
VSubjects
p4906
sI4936
VSublingual
p4907
sI4937
VSubsequent
p4908
sI4938
VSubstantial
p4909
sI4939
VSubstrates
p4910
sI4940
VSuccimer
p4911
sI4941
VSuccinylcholine
p4912
sI4942
VSugar
p4913
sI4943
VSulfamethizole
p4914
sI4944
VSulfamethoxazole
p4915
sI4945
VSulfapyridine
p4916
sI4946
VSulfobromophthalein
p4917
sI4947
VSulfonylureas
p4918
sI4948
VSulindac
p4919
sI4949
VSupraventricular
p4920
sI4950
VSuspension
p4921
sI4951
VSympathetic
p4922
sI4952
VSympathomimetics
p4923
sI4953
VSynthesis
p4924
sI4954
VT.A
p4925
sI4955
VTABLE
p4926
sI4956
VTAKE
p4927
sI4957
VTAO
p4928
sI4958
VTAPE
p4929
sI4959
VTBPA
p4930
sI4960
VTCA9
p4931
sI4961
VTEMODAR
p4932
sI4962
VTES
p4933
sI4963
VTHC
p4934
sI4964
VTHEIR
p4935
sI4965
VTHERAPY
p4936
sI4966
VTHOSE
p4937
sI4967
VTIMI
p4938
sI4968
VTNFa
p4939
sI4969
VTORADOLORAL
p4940
sI4970
VTOXIC
p4941
sI4971
VTPMT
p4942
sI4972
VTREATED
p4943
sI4973
VTRISENOX
p4944
sI4974
VTWISTHALER
p4945
sI4975
VTables
p4946
sI4976
VTablet
p4947
sI4977
VTdP
p4948
sI4978
VTegison
p4949
sI4979
VTegretol
p4950
sI4980
VTelithromycin
p4951
sI4981
VTell
p4952
sI4982
VTemaril
p4953
sI4983
VTemporary
p4954
sI4984
VTenecteplase
p4955
sI4985
VTenormin
p4956
sI4986
VThalidomide
p4957
sI4987
VTheir
p4958
sI4988
VTheobromine
p4959
sI4989
VTheoretically
p4960
sI4990
VTherophylline
p4961
sI4991
VThiamine
p4962
sI4992
VThose
p4963
sI4993
VThreshold
p4964
sI4994
VThrombolytic
p4965
sI4995
VThyroxine
p4966
sI4996
VTiagabine
p4967
sI4997
VTiazac
p4968
sI4998
VTilade
p4969
sI4999
VTime
p4970
sI5000
VTindal
p4971
sI5001
VTm
p4972
sI5002
VTolazamide
p4973
sI5003
VTolbutamides
p4974
sI5004
VTopamax
p4975
sI5005
VTopical
p4976
sI5006
VTotal
p4977
sI5007
VToxicity
p4978
sI5008
VToxicologic
p4979
sI5009
VToxicology
p4980
sI5010
VTramadol
p4981
sI5011
VTranscriptase
p4982
sI5012
VTransdermal
p4983
sI5013
VTransient
p4984
sI5014
VTrexan
p4985
sI5015
VTrial
p4986
sI5016
VTriamterene
p4987
sI5017
VTrilafon
p4988
sI5018
VTrilisate
p4989
sI5019
VTrilostane
p4990
sI5020
VTubular
p4991
sI5021
VTumor
p4992
sI5022
VU
sI5023
VUGT
p4993
sI5024
VUGT9A9
p4994
sI5025
VULN
p4995
sI5026
VUNTIL
p4996
sI5027
VUnder
p4997
sI5028
VUnited
p4998
sI5029
VUniversity
p4999
sI5030
VUnless
p5000
sI5031
VUntreated
p5001
sI5032
VUsage
p5002
sI5033
VVAPRISOL
p5003
sI5034
VVESIcare
p5004
sI5035
VVISTIDE
p5005
sI5036
VVR
p5006
sI5037
VVUMON
p5007
sI5038
VValium
p5008
sI5039
VVariability
p5009
sI5040
VVasoconstrictive
p5010
sI5041
VVasoconstrictors
p5011
sI5042
VVasodilator
p5012
sI5043
VVasodilators
p5013
sI5044
VVasopressors
p5014
sI5045
VVasospastic
p5015
sI5046
VVenlafaxine
p5016
sI5047
VVesprin
p5017
sI5048
VVidaza
p5018
sI5049
VVindesine
p5019
sI5050
VViracept
p5020
sI5051
VVoltaren
p5021
sI5052
VVolunteers
p5022
sI5053
VWARFARIN
p5023
sI5054
VWILL
p5024
sI5055
VWales
p5025
sI5056
VWarning
p5026
sI5057
VWeak
p5027
sI5058
VWhere
p5028
sI5059
VWhose
p5029
sI5060
VWinstrol
p5030
sI5061
VWithin
p5031
sI5062
VWyeth
p5032
sI5063
VXI
p5033
sI5064
VXanax
p5034
sI5065
VYounger
p5035
sI5066
VYour
p5036
sI5067
VZANOSAR
p5037
sI5068
VZANTAC
p5038
sI5069
VZE
p5039
sI5070
VZERIT
p5040
sI5071
VZEVALIN
p5041
sI5072
VZIAGEN
p5042
sI5073
VZOLADEX
p5043
sI5074
VZarontin
p5044
sI5075
VZemplar
p5045
sI5076
VZimelidine
p5046
sI5077
VZollinger
p5047
sI5078
V``
p5048
sI5079
Vabacavir
p5049
sI5080
Vabatacept
p5050
sI5081
Vaberration
p5051
sI5082
Vability
p5052
sI5083
Vabortions
p5053
sI5084
Vabrasive
p5054
sI5085
Vabrupt
p5055
sI5086
Vabstinence
p5056
sI5087
Vabundance
p5057
sI5088
Vaccelerates
p5058
sI5089
Vaccelerating
p5059
sI5090
Vacceleration
p5060
sI5091
Vaccentuated
p5061
sI5092
Vacceptable
p5062
sI5093
Vaccuracy
p5063
sI5094
Vacenocoumarol
p5064
sI5095
Vacetazolamide
p5065
sI5096
Vacetophenazine
p5066
sI5097
Vacetylcholine
p5067
sI5098
Vacetyldigoxin
p5068
sI5099
Vacetyltransferase
p5069
sI5100
Vachieves
p5070
sI5101
Vachieving
p5071
sI5102
Vacidified
p5072
sI5103
Vacidity
p5073
sI5104
Vacidosis
p5074
sI5105
Vacne
p5075
sI5106
Vacquired
p5076
sI5107
Vacromegaly
p5077
sI5108
Vactinic
p5078
sI5109
Vactively
p5079
sI5110
Vacts
p5080
sI5111
Vacutely
p5081
sI5112
Vaddictive
p5082
sI5113
Vaddicts
p5083
sI5114
Vadding
p5084
sI5115
Vadditives
p5085
sI5116
Vadds
p5086
sI5117
Vadhesion
p5087
sI5118
Vadmini
p5088
sI5119
Vadministrations
p5089
sI5120
Vadmixtures
p5090
sI5121
Vadolescents
p5091
sI5122
Vadrenaline
p5092
sI5123
Vadreneric
p5093
sI5124
Vadrenoceptor
p5094
sI5125
Vadrenocorticoids
p5095
sI5126
Vadsorbents
p5096
sI5127
Vadsorption
p5097
sI5128
Vadvantage
p5098
sI5129
Vadvice
p5099
sI5130
Vaerosolized
p5100
sI5131
Vaged
p5101
sI5132
Vaggravated
p5102
sI5133
Vaggravating
p5103
sI5134
Vaggressive
p5104
sI5135
Vagitation
p5105
sI5136
Vagranulocytosis
p5106
sI5137
Vaid
p5107
sI5138
Vair
p5108
sI5139
Vakathisia
p5109
sI5140
Val
p5110
sI5141
Valendronate
p5111
sI5142
Valerted
p5112
sI5143
Valertness
p5113
sI5144
Valkalinization
p5114
sI5145
Valkylated
p5115
sI5146
Vallowing
p5116
sI5147
Valternating
p5117
sI5148
Valters
p5118
sI5149
Valtogether
p5119
sI5150
Valtretamine
p5120
sI5151
Valveolar
p5121
sI5152
Vameliorate
p5122
sI5153
Vameliorating
p5123
sI5154
Vaminoglycosidic
p5124
sI5155
Vaminosalicylate
p5125
sI5156
Vaminosalicylates
p5126
sI5157
Vaminotransferases
p5127
sI5158
Vamlodipine
p5128
sI5159
Vamplifies
p5129
sI5160
Vamrinone
p5130
sI5161
Vamyl
p5131
sI5162
Vanaesthetised
p5132
sI5163
Vanalgesia
p5133
sI5164
Vanalog
p5134
sI5165
Vanalogs
p5135
sI5166
Vanalytical
p5136
sI5167
Vanalyzed
p5137
sI5168
Vanaphylactoid
p5138
sI5169
VandCmin
p5139
sI5170
Vandrogen
p5140
sI5171
Vandtolbutamide
p5141
sI5172
Vandusing
p5142
sI5173
Vanecdotal
p5143
sI5174
Vanesthesiologist
p5144
sI5175
Vanesthetized
p5145
sI5176
Vangioedema
p5146
sI5177
Vanidulafungin
p5147
sI5178
Vanileridine
p5148
sI5179
Vanions
p5149
sI5180
Vankle
p5150
sI5181
Vanorectic
p5151
sI5182
Vantianginals
p5152
sI5183
Vantiarrhythrnics
p5153
sI5184
Vantiasthmatic
p5154
sI5185
Vantibacterials
p5155
sI5186
Vanticancer
p5156
sI5187
Vantichlolinergic
p5157
sI5188
Vanticoagulahts
p5158
sI5189
Vantidiarrheal
p5159
sI5190
Vantidiuretic
p5160
sI5191
Vantiemetic
p5161
sI5192
Vantiemetics
p5162
sI5193
Vantiestrogen
p5163
sI5194
Vantihistaminics
p5164
sI5195
Vantiinflammatories
p5165
sI5196
Vantimuscarinics
p5166
sI5197
Vantimyasthenics
p5167
sI5198
Vantinaturetic
p5168
sI5199
Vantinociceptive
p5169
sI5200
Vantinuclear
p5170
sI5201
Vantiparkinson
p5171
sI5202
Vantiparkinsonian
p5172
sI5203
Vantiparkinsonism
p5173
sI5204
Vantipyretics
p5174
sI5205
Vantituberculous
p5175
sI5206
Vantiviral
p5176
sI5207
Vanxiolytics
p5177
sI5208
Vapart
p5178
sI5209
Vapplications
p5179
sI5210
Vapply
p5180
sI5211
Vapplying
p5181
sI5212
Vappreciated
p5182
sI5213
Vapproach
p5183
sI5214
Vapprox
p5184
sI5215
Vapproximates
p5185
sI5216
Varabinoside
p5186
sI5217
Varachidonate
p5187
sI5218
Vardeparin
p5188
sI5219
Varenot
p5189
sI5220
Varrests
p5190
sI5221
Varrythmias
p5191
sI5222
Varthritic
p5192
sI5223
Varticle
p5193
sI5224
Vartifactually
p5194
sI5225
Vartificial
p5195
sI5226
Varuonic
p5196
sI5227
Vascertain
p5197
sI5228
Vaseptic
p5198
sI5229
Vask
p5199
sI5230
Vasparagine
p5200
sI5231
Vaspirins
p5201
sI5232
Vassistance
p5202
sI5233
Vassumed
p5203
sI5234
Vastringents
p5204
sI5235
Vasymptomatic
p5205
sI5236
Vatracurium
p5206
sI5237
Vatrial
p5207
sI5238
Vatrioventricular
p5208
sI5239
Vatrophy
p5209
sI5240
Vattempt
p5210
sI5241
Vattempted
p5211
sI5242
Vattempting
p5212
sI5243
Vattenuates
p5213
sI5244
Vattenuating
p5214
sI5245
Vatypical
p5215
sI5246
Vaucasian
p5216
sI5247
Vaugmented
p5217
sI5248
Vaugments
p5218
sI5249
Vauranofin
p5219
sI5250
Vautoinduction
p5220
sI5251
Vautomated
p5221
sI5252
Vautomaticity
p5222
sI5253
Vawareness
p5223
sI5254
Vazoles
p5224
sI5255
Vb.i.d.
p5225
sI5256
Vbaboons
p5226
sI5257
Vbacilli
p5227
sI5258
Vback
p5228
sI5259
Vbackground
p5229
sI5260
Vbackwards
p5230
sI5261
Vbactercidal
p5231
sI5262
Vbacteria
p5232
sI5263
Vbalanced
p5233
sI5264
Vbananas
p5234
sI5265
Vbarbituates
p5235
sI5266
Vbasic
p5236
sI5267
Vbealtered
p5237
sI5268
Vbedtime
p5238
sI5269
Vbehave
p5239
sI5270
Vbehavior
p5240
sI5271
Vbehind
p5241
sI5272
Vbenazepril
p5242
sI5273
Vbeneficial
p5243
sI5274
Vbentoquatam
p5244
sI5275
Vbenzodiazepenes
p5245
sI5276
Vbenzothiadiazines
p5246
sI5277
Vbenzothiazepine
p5247
sI5278
Vbenzyl
p5248
sI5279
Vbethanechol
p5249
sI5280
Vbetter
p5250
sI5281
Vbiliary
p5251
sI5282
Vbin
p5252
sI5283
Vbioassay
p5253
sI5284
Vbioavailabillty
p5254
sI5285
Vbiochemical
p5255
sI5286
Vbioequivalent
p5256
sI5287
Vbiologic
p5257
sI5288
Vbiopsy
p5258
sI5289
Vbitolterol
p5259
sI5290
Vbleedings
p5260
sI5291
Vbleomycin
p5261
sI5292
Vblocked
p5262
sI5293
Vblunting
p5263
sI5294
Vbodies
p5264
sI5295
Vboric
p5265
sI5296
Vbortezomib
p5266
sI5297
Vbpm
p5267
sI5298
Vbradyarrhythmias
p5268
sI5299
Vbreakfast
p5269
sI5300
Vbreath
p5270
sI5301
Vbroad
p5271
sI5302
Vbruising
p5272
sI5303
Vburide
p5273
sI5304
Vbutalbital
p5274
sI5305
Vbutyrophenone
p5275
sI5306
Vca
p5276
sI5307
Vcabergoline
p5277
sI5308
Vcalculi
p5278
sI5309
Vcalled
p5279
sI5310
Vcannabinoids
p5280
sI5311
Vcapacity
p5281
sI5312
Vcar
p5282
sI5313
Vcarbohydrate
p5283
sI5314
Vcarcinogenesis
p5284
sI5315
Vcardio
p5285
sI5316
Vcardiopulmonary
p5286
sI5317
Vcardiorespiratory
p5287
sI5318
Vcardioselectivity
p5288
sI5319
Vcardiotoxic
p5289
sI5320
Vcarmustine
p5290
sI5321
Vcarried
p5291
sI5322
Vcarrying
p5292
sI5323
Vcatabloism
p5293
sI5324
Vcatabolism
p5294
sI5325
Vcausally
p5295
sI5326
Vcausation
p5296
sI5327
Vcausative
p5297
sI5328
Vcavity
p5298
sI5329
Vcefixime
p5299
sI5330
Vcefmenoxime
p5300
sI5331
Vcefoperazone
p5301
sI5332
Vcefotaxime
p5302
sI5333
Vcefuroxime
p5303
sI5334
Vcellular
p5304
sI5335
Vcellulitis
p5305
sI5336
Vcenters
p5306
sI5337
Vcentra
p5307
sI5338
Vcentroblast
p5308
sI5339
Vcereals
p5309
sI5340
Vcerebroactive
p5310
sI5341
Vcertainly
p5311
sI5342
Vcgi
p5312
sI5343
Vchains
p5313
sI5344
Vcharacteristics
p5314
sI5345
Vcharacterization
p5315
sI5346
Vcharged
p5316
sI5347
Vchboramphenicol
p5317
sI5348
Vcheese
p5318
sI5349
Vchelation
p5319
sI5350
Vchelator
p5320
sI5351
Vchemical
p5321
sI5352
Vchemotherapies
p5322
sI5353
Vchest
p5323
sI5354
Vchills
p5324
sI5355
Vchloralose
p5325
sI5356
Vchlorambucil
p5326
sI5357
Vchloroprocaine
p5327
sI5358
Vchlortetracycline
p5328
sI5359
Vcholestographic
p5329
sI5360
Vcholestryramine
p5330
sI5361
Vchosen
p5331
sI5362
Vchromosomal
p5332
sI5363
Vchymotrypsin
p5333
sI5364
Vcilexetil
p5334
sI5365
Vcilostazol
p5335
sI5366
Vcime
p5336
sI5367
Vcinacalcet
p5337
sI5368
Vcirculates
p5338
sI5369
Vcirculatory
p5339
sI5370
Vcircumstance
p5340
sI5371
Vcircumstances
p5341
sI5372
Vcited
p5342
sI5373
Vclassified
p5343
sI5374
Vclastogenicity
p5344
sI5375
Vcleansers
p5345
sI5376
Vclidinium
p5346
sI5377
Vclinician
p5347
sI5378
Vclinicians
p5348
sI5379
Vclobazam
p5349
sI5380
Vclofarabine
p5350
sI5381
Vclofazimine
p5351
sI5382
Vclofibric
p5352
sI5383
Vclomiphene
p5353
sI5384
Vclomipramine
p5354
sI5385
Vclonidines
p5355
sI5386
Vclorazepate
p5356
sI5387
Vclosure
p5357
sI5388
Vclotibrate
p5358
sI5389
VcmaxSS
p5359
sI5390
Vcoat
p5360
sI5391
Vcoated
p5361
sI5392
Vcoexistence
p5362
sI5393
Vcoffee
p5363
sI5394
Vcognitive
p5364
sI5395
Vcohort
p5365
sI5396
Vcohosh
p5366
sI5397
Vcoincide
p5367
sI5398
Vcolistemethate
p5368
sI5399
Vcollagen
p5369
sI5400
Vcolon
p5370
sI5401
Vcolorectal
p5371
sI5402
Vcombine
p5372
sI5403
Vcomments
p5373
sI5404
Vcommit
p5374
sI5405
Vcomparative
p5375
sI5406
Vcomparisons
p5376
sI5407
Vcompassionate
p5377
sI5408
Vcompatible
p5378
sI5409
Vcompelling
p5379
sI5410
Vcompensatory
p5380
sI5411
Vcompletion
p5381
sI5412
Vcomplexes
p5382
sI5413
Vcomplexometric
p5383
sI5414
Vcomplicated
p5384
sI5415
Vcomprehensive
p5385
sI5416
Vcompromise
p5386
sI5417
Vconcentrationswere
p5387
sI5418
Vconcerned
p5388
sI5419
Vconclusion
p5389
sI5420
Vconclusive
p5390
sI5421
Vconcomitan
p5391
sI5422
Vconditioned
p5392
sI5423
Vconduct
p5393
sI5424
Vconducting
p5394
sI5425
Vconductivity
p5395
sI5426
Vconfirmation
p5396
sI5427
Vconfirmatory
p5397
sI5428
Vconflicting
p5398
sI5429
Vcongenital
p5399
sI5430
Vcongestion
p5400
sI5431
Vconivaptan
p5401
sI5432
Vconjugated
p5402
sI5433
Vconnection
p5403
sI5434
Vconsecutive
p5404
sI5435
Vconsequent
p5405
sI5436
Vconservative
p5406
sI5437
Vconservatively
p5407
sI5438
Vconsidering
p5408
sI5439
Vconsisting
p5409
sI5440
Vconstellation
p5410
sI5441
Vconsult
p5411
sI5442
Vconsume
p5412
sI5443
Vconsumption
p5413
sI5444
Vcontact
p5414
sI5445
Vcontent
p5415
sI5446
Vcontinuing
p5416
sI5447
Vcontra
p5417
sI5448
Vcontraction
p5418
sI5449
Vcontraindication
p5419
sI5450
Vcontributed
p5420
sI5451
Vcontributing
p5421
sI5452
Vconventional
p5422
sI5453
Vconverted
p5423
sI5454
Vconvulsion
p5424
sI5455
Vcopying
p5425
sI5456
Vcore
p5426
sI5457
Vcorneal
p5427
sI5458
Vcorrect
p5428
sI5459
Vcorrelation
p5429
sI5460
Vcorrespondingly
p5430
sI5461
Vcorti
p5431
sI5462
Vcortico
p5432
sI5463
Vcorticotropin
p5433
sI5464
Vcortisone
p5434
sI5465
Vcosmetics
p5435
sI5466
Vcosteroids..
p5436
sI5467
Vcotherapy
p5437
sI5468
Vcough
p5438
sI5469
Vcoumarins
p5439
sI5470
Vcounter
p5440
sI5471
Vcounteracted
p5441
sI5472
Vcourses
p5442
sI5473
Vcramps
p5443
sI5474
Vcreams
p5444
sI5475
Vcreased
p5445
sI5476
Vcrises
p5446
sI5477
Vcriteria
p5447
sI5478
Vcritically
p5448
sI5479
Vcromolyn
p5449
sI5480
Vcrossed
p5450
sI5481
Vcrystalline
p5451
sI5482
Vculture
p5452
sI5483
Vcumulative
p5453
sI5484
Vcurves
p5454
sI5485
Vcyclic
p5455
sI5486
Vcycling
p5456
sI5487
Vcycloserine
p5457
sI5488
Vcyst
p5458
sI5489
Vcytogenetics
p5459
sI5490
Vcytostatic
p5460
sI5491
Vcytotoxicity
p5461
sI5492
VdL
p5462
sI5493
Vdalfopristin
p5463
sI5494
Vdamage
p5464
sI5495
Vdams
p5465
sI5496
Vdandruff
p5466
sI5497
Vdarifenacin
p5467
sI5498
Vdarken
p5468
sI5499
Vdase
p5469
sI5500
Vdecamethonium
p5470
sI5501
Vdecided
p5471
sI5502
Vdeclining
p5472
sI5503
Vdecongestants
p5473
sI5504
Vdeeper
p5474
sI5505
Vdefect
p5475
sI5506
Vdefense
p5476
sI5507
Vdefinite
p5477
sI5508
Vdefinitive
p5478
sI5509
Vdegenerative
p5479
sI5510
Vdegradation
p5480
sI5511
Vdehydrated
p5481
sI5512
Vdehydro
p5482
sI5513
Vdehydroaripiprazole
p5483
sI5514
Vdeleted
p5484
sI5515
Vdeleterious
p5485
sI5516
Vdeletion
p5486
sI5517
Vdemonstrates
p5487
sI5518
Vdenileukin
p5488
sI5519
Vdenotes
p5489
sI5520
Vdental
p5490
sI5521
Vdeoxy
p5491
sI5522
Vdependency
p5492
sI5523
Vdepends
p5493
sI5524
Vdeplete
p5494
sI5525
Vdepleted
p5495
sI5526
Vdepletors
p5496
sI5527
Vdepolarising
p5497
sI5528
Vdepolarizing
p5498
sI5529
Vdepth
p5499
sI5530
Vdesbutyl
p5500
sI5531
Vdescribe
p5501
sI5532
Vdescribing
p5502
sI5533
Vdesethylamiodarone
p5503
sI5534
Vdesethyloxybutynin
p5504
sI5535
Vdesflurane
p5505
sI5536
Vdesglymidodrine
p5506
sI5537
Vdesign
p5507
sI5538
Vdesigned
p5508
sI5539
Vdesmethylastemizole
p5509
sI5540
Vdesmethylclozapine
p5510
sI5541
Vdetail
p5511
sI5542
Vdetected..
p5512
sI5543
Vdetecting
p5513
sI5544
Vdetermining
p5514
sI5545
Vdetoxification
p5515
sI5546
Vdetrimental
p5516
sI5547
Vdevice
p5517
sI5548
Vdevices
p5518
sI5549
Vdextropropoxyphene
p5519
sI5550
Vdezocine
p5520
sI5551
Vdiastolic
p5521
sI5552
Vdictate
p5522
sI5553
Vdictates
p5523
sI5554
Vdied
p5524
sI5555
Vdiethyl
p5525
sI5556
Vdiethylstilbestrol
p5526
sI5557
Vdifferently
p5527
sI5558
Vdifficult
p5528
sI5559
Vdiffusion
p5529
sI5560
Vdiftitox
p5530
sI5561
Vdigestion
p5531
sI5562
Vdigestive
p5532
sI5563
Vdigit
p5533
sI5564
Vdihydrotachysterol
p5534
sI5565
Vdilation
p5535
sI5566
Vdiluent
p5536
sI5567
Vdilute
p5537
sI5568
Vdinitrate
p5538
sI5569
Vdinitrobenzene
p5539
sI5570
Vdiol
p5540
sI5571
Vdip
p5541
sI5572
Vdiphenhydramine
p5542
sI5573
Vdiphosphonate
p5543
sI5574
Vdiphosphonates
p5544
sI5575
Vdipotassium
p5545
sI5576
Vdirection
p5546
sI5577
Vdiscernible
p5547
sI5578
Vdiscoloration
p5548
sI5579
Vdiscontinuance
p5549
sI5580
Vdiscontinues
p5550
sI5581
Vdiscuss
p5551
sI5582
Vdisoproxil
p5552
sI5583
Vdisorder
p5553
sI5584
Vdisorientation
p5554
sI5585
Vdispersed
p5555
sI5586
Vdispersible
p5556
sI5587
Vdissolution
p5557
sI5588
Vdiuresis
p5558
sI5589
Vdizziness
p5559
sI5590
Vdocetaxel
p5560
sI5591
Vdocument
p5561
sI5592
Vdocumentation
p5562
sI5593
Vdocumenting
p5563
sI5594
Vdog
p5564
sI5595
Vdong
p5565
sI5596
Vdonor
p5566
sI5597
Vdorzolamide
p5567
sI5598
Vdoxorubicinol
p5568
sI5599
Vdrinks
p5569
sI5600
Vdriving
p5570
sI5601
Vdrowsy
p5571
sI5602
Vdrugs.9
p5572
sI5603
Vdrying
p5573
sI5604
Vdual
p5574
sI5605
Vdynamic
p5575
sI5606
Vdynamics
p5576
sI5607
Vdyscrasia
p5577
sI5608
Vdysesthesia
p5578
sI5609
Vdyskinesia
p5579
sI5610
Ve
sI5611
Veasily
p5580
sI5612
Veating
p5581
sI5613
Vectopic
p5582
sI5614
Vedisylate
p5583
sI5615
Vefflux
p5584
sI5616
Velapsed
p5585
sI5617
Velc
p5586
sI5618
Velective
p5587
sI5619
Velectrolytes
p5588
sI5620
Velectrophysiologic
p5589
sI5621
Veleven
p5590
sI5622
Velimination.9
p5591
sI5623
Velucidate
p5592
sI5624
Vemboli
p5593
sI5625
Vembolism
p5594
sI5626
Vembryocidal
p5595
sI5627
Vemergency
p5596
sI5628
Vemploy
p5597
sI5629
Venantiomers
p5598
sI5630
Vencephalopathic
p5599
sI5631
Vendemic
p5600
sI5632
Vendoscopic
p5601
sI5633
Vendoscopy
p5602
sI5634
Venough
p5603
sI5635
Venoximone
p5604
sI5636
Vensure
p5605
sI5637
Ventry
p5606
sI5638
Veosinophilia
p5607
sI5639
Vepididymides
p5608
sI5640
Vepiphyseal
p5609
sI5641
Vepisode
p5610
sI5642
Vepistaxis
p5611
sI5643
Veptifibatide
p5612
sI5644
Vequipment
p5613
sI5645
Vergocalciferol
p5614
sI5646
Verroneously
p5615
sI5647
Verythrocytes
p5616
sI5648
Verythromycins
p5617
sI5649
Vestablish
p5618
sI5650
Vestablishing
p5619
sI5651
Vesterases
p5620
sI5652
Vestimated
p5621
sI5653
Vestrogenic
p5622
sI5654
Vet
p5623
sI5655
Vether
p5624
sI5656
Vethotoin
p5625
sI5657
Vethoxzolamide
p5626
sI5658
Vetidronate
p5627
sI5659
Vevaluation
p5628
sI5660
Vex
p5629
sI5661
Vexacerbation
p5630
sI5662
Vexact
p5631
sI5663
Vexaggeration
p5632
sI5664
Vexaminations
p5633
sI5665
Vexamine
p5634
sI5666
Vexamined
p5635
sI5667
Vexceeding
p5636
sI5668
Vexceeds
p5637
sI5669
Vexception
p5638
sI5670
Vexcessively
p5639
sI5671
Vexcretory
p5640
sI5672
Vexemestane
p5641
sI5673
Vexert
p5642
sI5674
Vexerts
p5643
sI5675
Vexfoliation
p5644
sI5676
Vexfoliative
p5645
sI5677
Vexhaustive
p5646
sI5678
Vexhibited
p5647
sI5679
Vexist
p5648
sI5680
Vexistence
p5649
sI5681
Vexpanders
p5650
sI5682
Vexpansion
p5651
sI5683
Vexperiment
p5652
sI5684
Vexplained
p5653
sI5685
Vextend
p5654
sI5686
Vextends
p5655
sI5687
Vexternal
p5656
sI5688
Vextrapolated
p5657
sI5689
Vextrapolating
p5658
sI5690
Vextrusion
p5659
sI5691
Vf
sI5692
Vfall
p5660
sI5693
Vfamciclovir
p5661
sI5694
Vfasted
p5662
sI5695
Vfaster
p5663
sI5696
Vfatality
p5664
sI5697
Vfatigue
p5665
sI5698
Vfed
p5666
sI5699
Vfeedback
p5667
sI5700
Vfeels
p5668
sI5701
Vfelt
p5669
sI5702
Vfenbufen
p5670
sI5703
Vfenfluramine
p5671
sI5704
Vfenofibric
p5672
sI5705
Vfewer
p5673
sI5706
Vfibric
p5674
sI5707
Vfiltrated
p5675
sI5708
Vflexure
p5676
sI5709
Vflour
p5677
sI5710
Vflucon_cp.htm
p5678
sI5711
Vflucoxacillin
p5679
sI5712
Vfludrocortisone
p5680
sI5713
Vfluorescence
p5681
sI5714
Vfluorimetric
p5682
sI5715
Vfluoroquinolone
p5683
sI5716
Vflupenthixol
p5684
sI5717
Vflutamide
p5685
sI5718
Vfollicle
p5686
sI5719
Vfoscarnets
p5687
sI5720
Vfosfomycin
p5688
sI5721
Vfosinoprilat
p5689
sI5722
Vfourth
p5690
sI5723
Vfractions
p5691
sI5724
Vfresh
p5692
sI5725
Vfrova_od.htm
p5693
sI5726
Vfrovatriptan
p5694
sI5727
Vfulminant
p5695
sI5728
Vfunction..
p5696
sI5729
Vfunctioning
p5697
sI5730
Vfurafylline
p5698
sI5731
Vgain
p5699
sI5732
Vgained
p5700
sI5733
Vgait
p5701
sI5734
Vgallamine
p5702
sI5735
Vgallbladder
p5703
sI5736
Vgamma
p5704
sI5737
Vgammaherpes
p5705
sI5738
Vganglion
p5706
sI5739
Vgarlic
p5707
sI5740
Vgas
p5708
sI5741
Vgastroduodenal
p5709
sI5742
Vgavage
p5710
sI5743
Vgemifloxacin
p5711
sI5744
Vgeneralized
p5712
sI5745
Vgeneric9
p5713
sI5746
Vgenitourinary
p5714
sI5747
Vgerminal
p5715
sI5748
Vgestation
p5716
sI5749
Vgets
p5717
sI5750
Vgirdle
p5718
sI5751
Vglasses
p5719
sI5752
Vglobulinemias
p5720
sI5753
Vglucagon
p5721
sI5754
Vglucosidase
p5722
sI5755
Vglutamyl
p5723
sI5756
Vgly
p5724
sI5757
Vglycopyrrolate
p5725
sI5758
Vglycoside
p5726
sI5759
Vglycosuria
p5727
sI5760
Vgonadotropins
p5728
sI5761
Vgraft
p5729
sI5762
Vgranisetron
p5730
sI5763
Vgranulosa
p5731
sI5764
Vgreatly
p5732
sI5765
Vgreen
p5733
sI5766
Vgrens
p5734
sI5767
Vgritty
p5735
sI5768
Vgrouped
p5736
sI5769
Vguafacine
p5737
sI5770
Vguanadrel
p5738
sI5771
Vguanethidine_od.htm
p5739
sI5772
Vguardians
p5740
sI5773
Vguide
p5741
sI5774
Vguidelines
p5742
sI5775
Vhaemorrhagic
p5743
sI5776
Vhallucinations
p5744
sI5777
Vhard
p5745
sI5778
Vhazardous
p5746
sI5779
Vhaze
p5747
sI5780
Vheadaches
p5748
sI5781
Vheartbeat
p5749
sI5782
Vheavy
p5750
sI5783
Vhelpful
p5751
sI5784
Vhematocrit
p5752
sI5785
Vhematopoiesis
p5753
sI5786
Vhematuria
p5754
sI5787
Vhemodynamic
p5755
sI5788
Vhemoglobin
p5756
sI5789
Vhemolysis
p5757
sI5790
Vhemorrhages
p5758
sI5791
Vhemostatic
p5759
sI5792
Vheparinized
p5760
sI5793
Vheparins
p5761
sI5794
Vherbs
p5762
sI5795
Vhighintersubject
p5763
sI5796
Vhind
p5764
sI5797
Vhistorical
p5765
sI5798
Vhistoricalcontrol
p5766
sI5799
Vhormonalmethods
p5767
sI5800
Vhospital
p5768
sI5801
Vhospitals
p5769
sI5802
Vhost
p5770
sI5803
Vhttp
p5771
sI5804
Vhumidity
p5772
sI5805
Vhundredth
p5773
sI5806
Vhydantoin
p5774
sI5807
Vhydatid
p5775
sI5808
Vhydoxide
p5776
sI5809
Vhydralazines
p5777
sI5810
Vhydrobromide
p5778
sI5811
Vhydrochloroquine
p5779
sI5812
Vhydroflumethiazide
p5780
sI5813
Vhydrogen
p5781
sI5814
Vhydroxides
p5782
sI5815
Vhydroxyatomoxetine
p5783
sI5816
Vhydroxydesloratadine
p5784
sI5817
Vhydroxylamine
p5785
sI5818
Vhydroxylase
p5786
sI5819
Vhydroxylated
p5787
sI5820
Vhyper
p5788
sI5821
Vhyperbilirubinemia
p5789
sI5822
Vhypercholesterolemia
p5790
sI5823
Vhyperglycemic
p5791
sI5824
Vhypericum
p5792
sI5825
Vhyperlactatemia
p5793
sI5826
Vhyperlipidemia
p5794
sI5827
Vhyperreninemia
p5795
sI5828
Vhypersensitive
p5796
sI5829
Vhypertensives
p5797
sI5830
Vhypokinesia
p5798
sI5831
Vhypomagnesemia
p5799
sI5832
Vhypoplasia
p5800
sI5833
Vhypopro
p5801
sI5834
Vhypotension.Cimetidine
p5802
sI5835
Vhypotensite
p5803
sI5836
Vhypothalamic
p5804
sI5837
Vhysterectomy
p5805
sI5838
Vi.e
p5806
sI5839
ViPTH
p5807
sI5840
Vicodextrin
p5808
sI5841
Videntical
p5809
sI5842
Vidiosyncrasy
p5810
sI5843
Vii
p5811
sI5844
Vill
p5812
sI5845
Villustrated
p5813
sI5846
Vimaging
p5814
sI5847
Vimbalance
p5815
sI5848
Vimiglucerase
p5816
sI5849
Vimmature
p5817
sI5850
Vimmunization
p5818
sI5851
Vimmuno
p5819
sI5852
Vimmunodeficiencies
p5820
sI5853
Vimmunomodulating
p5821
sI5854
Vimmunoreactive
p5822
sI5855
Vimmunosuppressant
p5823
sI5856
Vimpact
p5824
sI5857
Vimpacted
p5825
sI5858
Vimpairs
p5826
sI5859
Vimplant
p5827
sI5860
Vimplantable
p5828
sI5861
Vimplications
p5829
sI5862
Vimproved
p5830
sI5863
VinTables
p5831
sI5864
Vinaccurate
p5832
sI5865
Vinaccurately
p5833
sI5866
Vinactivated
p5834
sI5867
Vinactivity
p5835
sI5868
Vinadvisable
p5836
sI5869
Vincidences
p5837
sI5870
Vincomplete
p5838
sI5871
Vinconcomitant
p5839
sI5872
Vinconsistent
p5840
sI5873
Vincrease9
p5841
sI5874
Vincreased.Because
p5842
sI5875
Vincremental
p5843
sI5876
Vincrements
p5844
sI5877
Vindandione
p5845
sI5878
Vindications
p5846
sI5879
Vindirect
p5847
sI5880
Vindistinguishable
p5848
sI5881
Vindividualized
p5849
sI5882
Vindoleacetic
p5850
sI5883
Vinducible
p5851
sI5884
Vinduration
p5852
sI5885
Vineffectiveness
p5853
sI5886
Vinfectious
p5854
sI5887
Vinfective
p5855
sI5888
Vinfectives
p5856
sI5889
Vinfiltration
p5857
sI5890
Vinfliximab
p5858
sI5891
Vinfrequent
p5859
sI5892
Vinfusional
p5860
sI5893
Vingredients
p5861
sI5894
Vinherent
p5862
sI5895
Vinitiates
p5863
sI5896
Vinjuries
p5864
sI5897
Vinotropes
p5865
sI5898
Vinsect
p5866
sI5899
Vinsertable
p5867
sI5900
Vinsertion
p5868
sI5901
Vinserts
p5869
sI5902
Vinsomnia
p5870
sI5903
Vinstability
p5871
sI5904
Vinstead
p5872
sI5905
Vinstituted
p5873
sI5906
Vinstitutionalized
p5874
sI5907
Vintense
p5875
sI5908
Vintentional
p5876
sI5909
Vinteracts
p5877
sI5910
Vintercourse
p5878
sI5911
Vintercurrent
p5879
sI5912
Vinterferons
p5880
sI5913
Vinterindividual
p5881
sI5914
Vinterpretation
p5882
sI5915
Vinterpreting
p5883
sI5916
Vinterrupt
p5884
sI5917
Vintervention
p5885
sI5918
Vintracellulare
p5886
sI5919
Vintraconazole
p5887
sI5920
Vintranasal
p5888
sI5921
Vintraocular
p5889
sI5922
Vintraperitoneal
p5890
sI5923
Vintraperitoneally
p5891
sI5924
Vintravascular
p5892
sI5925
Vintrinsic
p5893
sI5926
Vintroducing
p5894
sI5927
Vinvalidate
p5895
sI5928
Vinvestigate
p5896
sI5929
Vinvestigating
p5897
sI5930
Vinvestigations
p5898
sI5931
Vinvestigator
p5899
sI5932
Vinvolvement
p5900
sI5933
Vinwomen
p5901
sI5934
Viodide
p5902
sI5935
Virrational
p5903
sI5936
Virregular
p5904
sI5937
Virrespective
p5905
sI5938
Virreversible
p5906
sI5939
Virreversibly
p5907
sI5940
Virritating
p5908
sI5941
Virritation
p5909
sI5942
Viso
p5910
sI5943
Visoen
p5911
sI5944
Visomer
p5912
sI5945
Visomers
p5913
sI5946
Visotretinoin
p5914
sI5947
Vitching
p5915
sI5948
Vjoint
p5916
sI5949
Vjudgement
p5917
sI5950
Vjudgment
p5918
sI5951
Vkaliuresis
p5919
sI5952
Vkanamycin
p5920
sI5953
Vkeratoses
p5921
sI5954
Vketoacidosis
p5922
sI5955
Vketogenic
p5923
sI5956
Vketone
p5924
sI5957
Vketosteroids
p5925
sI5958
Vkill
p5926
sI5959
Vkind
p5927
sI5960
Vknow
p5928
sI5961
Vl9
p5929
sI5962
Vlab
p5930
sI5963
Vlabel
p5931
sI5964
Vlactams
p5932
sI5965
Vlactamtype
p5933
sI5966
Vlactating
p5934
sI5967
Vlactic
p5935
sI5968
Vlactulose
p5936
sI5969
Vlargely
p5937
sI5970
Vlasma
p5938
sI5971
Vlatamoxef
p5939
sI5972
Vlatanoprost
p5940
sI5973
Vlaxative
p5941
sI5974
Vlearned
p5942
sI5975
Vlengthening
p5943
sI5976
Vlengths
p5944
sI5977
Vleprosy
p5945
sI5978
Vleukemia
p5946
sI5979
Vleukocytosis
p5947
sI5980
Vleukopenic
p5948
sI5981
Vlevonorgesterol
p5949
sI5982
Vlevonorgestrol
p5950
sI5983
Vlight
p5951
sI5984
Vlignocaine
p5952
sI5985
Vlikelyhood
p5953
sI5986
Vlimb
p5954
sI5987
Vlime
p5955
sI5988
Vlinear
p5956
sI5989
Vlines
p5957
sI5990
Vlinked
p5958
sI5991
Vlipids
p5959
sI5992
Vlofexidine
p5960
sI5993
Vlosses
p5961
sI5994
Vlotions
p5962
sI5995
Vlowers
p5963
sI5996
Vlying
p5964
sI5997
Vlymecycline
p5965
sI5998
Vlymph
p5966
sI5999
Vlymphocryptovirus
p5967
sI6000
Vlymphocytopenia
p5968
sI6001
Vlymphomas
p5969
sI6002
Vlymphopenia
p5970
sI6003
VmIU
p5971
sI6004
VmMol
p5972
sI6005
Vmachinery
p5973
sI6006
Vmaking
p5974
sI6007
Vmalabsorption
p5975
sI6008
Vmalarial
p5976
sI6009
Vmalignancies
p5977
sI6010
Vmanifest
p5978
sI6011
Vmanifestation
p5979
sI6012
Vmanifestations
p5980
sI6013
Vmannitol
p5981
sI6014
Vmanufacturer
p5982
sI6015
Vmanufacturers
p5983
sI6016
Vmaprotiline
p5984
sI6017
Vmargin
p5985
sI6018
Vmarker
p5986
sI6019
Vmarketed
p5987
sI6020
Vmass
p5988
sI6021
Vmassively
p5989
sI6022
Vmatched
p5990
sI6023
Vmatching
p5991
sI6024
Vmating
p5992
sI6025
Vmatrix
p5993
sI6026
Vmaximally
p5994
sI6027
Vmaximize
p5995
sI6028
Vmayuse
p5996
sI6029
Vmeal..
p5997
sI6030
Vmeals
p5998
sI6031
Vmeaning
p5999
sI6032
Vmeaningfully
p6000
sI6033
Vmeant
p6001
sI6034
Vmeasures
p6002
sI6035
Vmechlorethamine
p6003
sI6036
Vmeclofenamic
p6004
sI6037
Vmedicated
p6005
sI6038
Vmefloquine
p6006
sI6039
Vmelena
p6007
sI6040
Vmesalamine
p6008
sI6041
Vmesalazine
p6009
sI6042
Vmesoridazine
p6010
sI6043
Vmet
p6011
sI6044
Vmetabolised
p6012
sI6045
Vmetabolize
p6013
sI6046
Vmetaclopramide
p6014
sI6047
Vmetals
p6015
sI6048
Vmetanephrine
p6016
sI6049
Vmethaemoglobinaemia
p6017
sI6050
Vmethandrostenolone
p6018
sI6051
Vmethazolamide
p6019
sI6052
Vmethemoglobinemia
p6020
sI6053
Vmethimazole
p6021
sI6054
Vmethodology
p6022
sI6055
Vmethoxyflurane
p6023
sI6056
Vmethylthiadiazole
p6024
sI6057
Vmethylthiotetrazole
p6025
sI6058
Vmethyltransferase
p6026
sI6059
Vmethyprylon
p6027
sI6060
Vmetrizamide
p6028
sI6061
Vmicroalbuminuria
p6029
sI6062
Vmicrobial
p6030
sI6063
Vmicroflora
p6031
sI6064
Vmicroorganisms
p6032
sI6065
Vmigraines
p6033
sI6066
Vmimic
p6034
sI6067
Vminimize
p6035
sI6068
Vminimizes
p6036
sI6069
Vminipills
p6037
sI6070
Vminus
p6038
sI6071
Vminute
p6039
sI6072
Vmiotic
p6040
sI6073
Vmisoprostol
p6041
sI6074
Vmisuse
p6042
sI6075
Vmmol
p6043
sI6076
Vmoclobemide
p6044
sI6077
Vmodafinil
p6045
sI6078
Vmodifications
p6046
sI6079
Vmodifies
p6047
sI6080
Vmodify
p6048
sI6081
Vmodulation
p6049
sI6082
Vmoexpril
p6050
sI6083
Vmolecular
p6051
sI6084
Vmonoclonal
p6052
sI6085
Vmononitrate
p6053
sI6086
Vmoribund
p6054
sI6087
Vmorning
p6055
sI6088
Vmortality
p6056
sI6089
Vmother
p6057
sI6090
Vmotion
p6058
sI6091
Vmsec
p6059
sI6092
Vmucositis
p6060
sI6093
Vmulti
p6061
sI6094
Vmultidose
p6062
sI6095
Vmultipledose
p6063
sI6096
Vmultivitamin
p6064
sI6097
Vmurine
p6065
sI6098
Vmuromonab
p6066
sI6099
Vmuscular
p6067
sI6100
Vmusculoskeletal
p6068
sI6101
Vmustard
p6069
sI6102
Vmutual
p6070
sI6103
Vmy
p6071
sI6104
Vmyalgia
p6072
sI6105
Vmyeloproliferative
p6073
sI6106
Vmyelotoxic
p6074
sI6107
Vmyocarditis
p6075
sI6108
Vmyoclonus
p6076
sI6109
Vnafcillin
p6077
sI6110
Vnaftate
p6078
sI6111
Vnaive
p6079
sI6112
Vnaltrexone
p6080
sI6113
Vnandrolone
p6081
sI6114
Vnaphthol
p6082
sI6115
Vnateglinide
p6083
sI6116
Vnational
p6084
sI6117
Vnature
p6085
sI6118
Vnc
p6086
sI6119
Vnecessitated
p6087
sI6120
Vnecrosis
p6088
sI6121
Vneeding
p6089
sI6122
Vneeds
p6090
sI6123
Vnegatively
p6091
sI6124
Vneglect
p6092
sI6125
Vnegligible
p6093
sI6126
Vneoplastic
p6094
sI6127
Vneostgmine
p6095
sI6128
Vnephropathy
p6096
sI6129
Vnephrosis
p6097
sI6130
Vnetilmicin
p6098
sI6131
Vneurocysticercosis
p6099
sI6132
Vneuropsychiatric
p6100
sI6133
Vneurotoxicity
p6101
sI6134
Vneurotoxin
p6102
sI6135
Vneutropenic
p6103
sI6136
Vnevirapinemay
p6104
sI6137
Vnewborns
p6105
sI6138
Vnewly
p6106
sI6139
Vng*hr
p6107
sI6140
Vniacinamide
p6108
sI6141
Vnicotinamide
p6109
sI6142
Vnine
p6110
sI6143
Vnitric
p6111
sI6144
Vnitrites
p6112
sI6145
Vnitrobluetetrazolium
p6113
sI6146
Vnitrogen
p6114
sI6147
Vnitrosamine
p6115
sI6148
Vnizatidine
p6116
sI6149
Vnodes
p6117
sI6150
Vnodular
p6118
sI6151
Vnonabsorbable
p6119
sI6152
Vnonbarbiturate
p6120
sI6153
Vnonfunctioning
p6121
sI6154
Vnonopioid
p6122
sI6155
Vnonprescription
p6123
sI6156
Vnonrenal
p6124
sI6157
Vnonsedating
p6125
sI6158
Vnonsignificant
p6126
sI6159
Vnonsmokers
p6127
sI6160
Vnonsmoking
p6128
sI6161
Vnorethandrolone
p6129
sI6162
Vnormetanephrine
p6130
sI6163
Vnormovolemic
p6131
sI6164
Vnostrils
p6132
sI6165
Vnoticeably
p6133
sI6166
Vnumbers
p6134
sI6167
Vnutrient
p6135
sI6168
Vnutrients
p6136
sI6169
Vnutrition
p6137
sI6170
Vnutritionally
p6138
sI6171
Vobjective
p6139
sI6172
Vobstruction
p6140
sI6173
Vobstructive
p6141
sI6174
Vobtain
p6142
sI6175
Voccasion
p6143
sI6176
Voccurrences
p6144
sI6177
Voccurring
p6145
sI6178
Voctreotide
p6146
sI6179
Vodontoid
p6147
sI6180
Vofthe
p6148
sI6181
Voil
p6149
sI6182
Volprinone
p6150
sI6183
Volsalazine
p6151
sI6184
Voncogenic
p6152
sI6185
Vongoing
p6153
sI6186
Vonto
p6154
sI6187
Vonwards
p6155
sI6188
Voperating
p6156
sI6189
Vopiate
p6157
sI6190
Vopportunistic
p6158
sI6191
Vopposite
p6159
sI6192
Voptic
p6160
sI6193
Voptimum
p6161
sI6194
Vorange
p6162
sI6195
Vorganism
p6163
sI6196
Vorganisms
p6164
sI6197
Vorganophosphate
p6165
sI6198
Voriginal
p6166
sI6199
Vorphan
p6167
sI6200
Vossification
p6168
sI6201
Votthostatic
p6169
sI6202
Voutset
p6170
sI6203
Voutside
p6171
sI6204
Voverallactivity
p6172
sI6205
Voverlapping
p6173
sI6206
Voveruse
p6174
sI6207
Vovulation
p6175
sI6208
Vown
p6176
sI6209
Voxacillin
p6177
sI6210
Voxaprozin
p6178
sI6211
Voxi
p6179
sI6212
Voxidative
p6180
sI6213
Voxidized
p6181
sI6214
Voxybutynin
p6182
sI6215
Voxycodone
p6183
sI6216
Voxymetazoline
p6184
sI6217
Voxymorphone
p6185
sI6218
Voxypurines
p6186
sI6219
Voz
p6187
sI6220
Vpains
p6188
sI6221
Vpair
p6189
sI6222
Vpalpitations
p6190
sI6223
Vpancreatic
p6191
sI6224
Vpancreatin
p6192
sI6225
Vpara
p6193
sI6226
Vparacetamol
p6194
sI6227
Vparameter
p6195
sI6228
Vparaxanthine
p6196
sI6229
Vpargyline
p6197
sI6230
Vpartially
p6198
sI6231
Vpartner
p6199
sI6232
Vparts
p6200
sI6233
Vparturition
p6201
sI6234
Vpathogen
p6202
sI6235
Vpattern
p6203
sI6236
Vpaw
p6204
sI6237
Vpeginterferon
p6205
sI6238
Vpegvisomant
p6206
sI6239
Vpemoline
p6207
sI6240
Vpentostatin
p6208
sI6241
Vpentoxifylline
p6209
sI6242
Vpeople
p6210
sI6243
Vperchlorate
p6211
sI6244
Vperhaps
p6212
sI6245
Vperiodically
p6213
sI6246
Vperioperatively
p6214
sI6247
Vperitoneal
p6215
sI6248
Vpersist
p6216
sI6249
Vpersistence
p6217
sI6250
Vperspiration
p6218
sI6251
Vpertechnetate
p6219
sI6252
Vpharmacoktnetics
p6220
sI6253
Vphenolic
p6221
sI6254
Vphenomena
p6222
sI6255
Vphenotype
p6223
sI6256
Vphenprocoumon
p6224
sI6257
Vphentermine
p6225
sI6258
Vphenylalkylamine
p6226
sI6259
Vphenylpropanolamine
p6227
sI6260
Vphlebitis
p6228
sI6261
Vphosphatases
p6229
sI6262
Vphosphokinase
p6230
sI6263
Vphospholipid
p6231
sI6264
Vphosphorylated
p6232
sI6265
Vphosphotungstate
p6233
sI6266
Vphotometric
p6234
sI6267
Vphotosensitivity
p6235
sI6268
Vphotosensitizing
p6236
sI6269
Vphysiological
p6237
sI6270
Vphysostigmine
p6238
sI6271
Vpicrate
p6239
sI6272
Vpill
p6240
sI6273
Vpindolol
p6241
sI6274
Vplace
p6242
sI6275
Vplacenta
p6243
sI6276
Vplanned
p6244
sI6277
Vplasmaconcentration
p6245
sI6278
Vplasmacytic
p6246
sI6279
Vplatinum
p6247
sI6280
Vplay
p6248
sI6281
Vpointe
p6249
sI6282
Vpolymorphic
p6250
sI6283
Vpolymyxin
p6251
sI6284
Vpolystyrene
p6252
sI6285
Vpoorly
p6253
sI6286
Vporpranolol
p6254
sI6287
Vposed
p6255
sI6288
Vposing
p6256
sI6289
Vposition
p6257
sI6290
Vpositively
p6258
sI6291
Vpossibilities
p6259
sI6292
Vpostdose
p6260
sI6293
Vpostmenopausal
p6261
sI6294
Vpostnatal
p6262
sI6295
Vpractices
p6263
sI6296
Vpractitioners
p6264
sI6297
Vprealbumin
p6265
sI6298
Vprecede
p6266
sI6299
Vprecipitated
p6267
sI6300
Vprecipitating
p6268
sI6301
Vpredictable
p6269
sI6302
Vpredicted
p6270
sI6303
Vpredictive
p6271
sI6304
Vpredispose
p6272
sI6305
Vpredisposing
p6273
sI6306
Vpredisposition
p6274
sI6307
Vpredominant
p6275
sI6308
Vpreferably
p6276
sI6309
Vpregnancies
p6277
sI6310
Vpremenopausal
p6278
sI6311
Vpremixed
p6279
sI6312
Vprescribing
p6280
sI6313
Vpreservative
p6281
sI6314
Vpressures
p6282
sI6315
Vpresyncope
p6283
sI6316
Vpreventing
p6284
sI6317
Vprevious
p6285
sI6318
Vprilocaine
p6286
sI6319
Vprincipal
p6287
sI6320
Vprincipally
p6288
sI6321
Vproarrhythmic
p6289
sI6322
Vprobable
p6290
sI6323
Vprobe
p6291
sI6324
Vproblem
p6292
sI6325
Vproconvertin
p6293
sI6326
Vproducing
p6294
sI6327
Vprofessional
p6295
sI6328
Vprogram
p6296
sI6329
Vprogressing
p6297
sI6330
Vprohibited
p6298
sI6331
Vproliferating
p6299
sI6332
Vpromazine
p6300
sI6333
Vpromptly
p6301
sI6334
Vpropatenone
p6302
sI6335
Vproperly
p6303
sI6336
Vprophylactic
p6304
sI6337
Vpropranolols
p6305
sI6338
Vproprietary
p6306
sI6339
Vprostacyclin
p6307
sI6340
Vprostate
p6308
sI6341
Vprostatic
p6309
sI6342
Vprotective
p6310
sI6343
Vprothrom
p6311
sI6344
Vprothrombinemic
p6312
sI6345
Vprotriptyline
p6313
sI6346
Vprovide
p6314
sI6347
Vprudent
p6315
sI6348
Vpsoriatic
p6316
sI6349
Vpsychiatric
p6317
sI6350
Vpsychoactive
p6318
sI6351
Vpumps
p6319
sI6352
Vpuncture
p6320
sI6353
Vpupil
p6321
sI6354
Vpure
p6322
sI6355
Vpurpura
p6323
sI6356
Vpursue
p6324
sI6357
Vpyrroloquinolinequinone
p6325
sI6358
Vq.i.d
p6326
sI6359
Vquai
p6327
sI6360
Vqualification
p6328
sI6361
Vquantities
p6329
sI6362
Vquart
p6330
sI6363
Vquery
p6331
sI6364
Vquetiapine
p6332
sI6365
Vquickens
p6333
sI6366
Vquinupristin
p6334
sI6367
Vquit
p6335
sI6368
Vradiographic
p6336
sI6369
Vradioimmunoassays
p6337
sI6370
Vramipril
p6338
sI6371
Vrather
p6339
sI6372
Vratios
p6340
sI6373
Vrauwolfia
p6341
sI6374
Vre
p6342
sI6375
Vreaching
p6343
sI6376
Vreact
p6344
sI6377
Vreally
p6345
sI6378
Vreason
p6346
sI6379
Vreassess
p6347
sI6380
Vrecalcitrant
p6348
sI6381
Vrecall
p6349
sI6382
Vrechallenged
p6350
sI6383
Vrecipients
p6351
sI6384
Vrecognize
p6352
sI6385
Vrecombinant
p6353
sI6386
Vrecommend
p6354
sI6387
Vrecommendation
p6355
sI6388
Vrecommended.Levetiracetam
p6356
sI6389
Vrecurrence
p6357
sI6390
Vrecurrent
p6358
sI6391
Vreddish
p6359
sI6392
Vreduced..
p6360
sI6393
Vreflects
p6361
sI6394
Vregression
p6362
sI6395
Vreinfarction
p6363
sI6396
Vrejection
p6364
sI6397
Vrelate
p6365
sI6398
Vrelation
p6366
sI6399
Vrelatively
p6367
sI6400
Vrelaxing
p6368
sI6401
Vreleaser
p6369
sI6402
Vreleases
p6370
sI6403
Vreleasing
p6371
sI6404
Vrelief
p6372
sI6405
Vrelieve
p6373
sI6406
Vremainder
p6374
sI6407
Vremains
p6375
sI6408
Vrepellent
p6376
sI6409
Vreplicate
p6377
sI6410
Vrepresent
p6378
sI6411
Vrepresentative
p6379
sI6412
Vrepresenting
p6380
sI6413
Vrepresents
p6381
sI6414
Vreproduction
p6382
sI6415
Vresedation
p6383
sI6416
Vreserve
p6384
sI6417
Vreserved
p6385
sI6418
Vresidual
p6386
sI6419
Vresistant
p6387
sI6420
Vresists
p6388
sI6421
Vresolution
p6389
sI6422
Vresolve
p6390
sI6423
Vresorptive
p6391
sI6424
Vrespond
p6392
sI6425
Vrestlessness
p6393
sI6426
Vrestored
p6394
sI6427
Vrestricted
p6395
sI6428
Vresultant
p6396
sI6429
Vretaining
p6397
sI6430
Vretinal
p6398
sI6431
Vretinoid
p6399
sI6432
Vretinoids
p6400
sI6433
Vreversal
p6401
sI6434
Vreversed
p6402
sI6435
Vreverses
p6403
sI6436
Vreview
p6404
sI6437
Vrheumatic
p6405
sI6438
Vrhythm
p6406
sI6439
Vriboflavin
p6407
sI6440
Vrich
p6408
sI6441
Vrifadin
p6409
sI6442
Vrifamipicin
p6410
sI6443
Vrifamycin
p6411
sI6444
Vrifamycins
p6412
sI6445
Vrifapentin
p6413
sI6446
Vrifapentine
p6414
sI6447
Vrigidity
p6415
sI6448
Vripe
p6416
sI6449
Vrising
p6417
sI6450
Vriskfor
p6418
sI6451
Vritanovir
p6419
sI6452
Vrosiglitazone
p6420
sI6453
Vrosuvastatin
p6421
sI6454
Vroutes
p6422
sI6455
Vs.c
p6423
sI6456
Vsacral
p6424
sI6457
Vsacrificed
p6425
sI6458
Vsafe
p6426
sI6459
Vsalbutamol
p6427
sI6460
Vsaline
p6428
sI6461
Vsalsalate
p6429
sI6462
Vsample
p6430
sI6463
Vsarcoma
p6431
sI6464
Vsaturable
p6432
sI6465
Vsc
p6433
sI6466
Vscientists
p6434
sI6467
Vsclerosis
p6435
sI6468
Vsecobarbital
p6436
sI6469
Vsecobarbitone
p6437
sI6470
Vsecreting
p6438
sI6471
Vsections
p6439
sI6472
Vselect
p6440
sI6473
Vselection
p6441
sI6474
Vself
p6442
sI6475
Vsepsis
p6443
sI6476
Vsequelae
p6444
sI6477
Vsequence
p6445
sI6478
Vsequestrant
p6446
sI6479
Vsequestrates
p6447
sI6480
Vsera
p6448
sI6481
Vseriously
p6449
sI6482
Vseriraline
p6450
sI6483
Vserotypes
p6451
sI6484
Vseverely
p6452
sI6485
Vsevoflurane
p6453
sI6486
Vsex
p6454
sI6487
Vsexual
p6455
sI6488
Vshampoos
p6456
sI6489
Vsharing
p6457
sI6490
Vshock
p6458
sI6491
Vshortened
p6459
sI6492
Vshortness
p6460
sI6493
Vshows
p6461
sI6494
Vsickness
p6462
sI6495
Vsign
p6463
sI6496
Vsimethicone
p6464
sI6497
Vsitagliptin
p6465
sI6498
Vsitosterolemia
p6466
sI6499
Vsitu
p6467
sI6500
Vsixth
p6468
sI6501
Vsixty
p6469
sI6502
Vsize
p6470
sI6503
Vsleep
p6471
sI6504
Vsodation
p6472
sI6505
Vsoft
p6473
sI6506
Vsolid
p6474
sI6507
Vsomatic
p6475
sI6508
Vsomatrem
p6476
sI6509
Vsomepatients
p6477
sI6510
Vsomnolence
p6478
sI6511
Vsores
p6479
sI6512
Vsotalol
p6480
sI6513
Vsource
p6481
sI6514
Vsoybean
p6482
sI6515
Vspaces
p6483
sI6516
Vsparfloxacin
p6484
sI6517
Vspectrometer
p6485
sI6518
Vspectrophotometric
p6486
sI6519
Vspermatozoa
p6487
sI6520
Vspices
p6488
sI6521
Vspite
p6489
sI6522
Vsplitting
p6490
sI6523
Vsprain
p6491
sI6524
Vstanozolol
p6492
sI6525
Vstasis
p6493
sI6526
Vstatements
p6494
sI6527
Vstered
p6495
sI6528
Vsterilize
p6496
sI6529
Vstick
p6497
sI6530
Vstimulantes
p6498
sI6531
Vstimulator
p6499
sI6532
Vstool
p6500
sI6533
Vstore
p6501
sI6534
Vstrains
p6502
sI6535
Vstrength
p6503
sI6536
Vstreptomycin
p6504
sI6537
Vstriking
p6505
sI6538
Vstrips
p6506
sI6539
Vstroke
p6507
sI6540
Vstrongly
p6508
sI6541
Vstructurally
p6509
sI6542
Vstupor
p6510
sI6543
Vsubgroup
p6511
sI6544
Vsubjected
p6512
sI6545
Vsublingual
p6513
sI6546
Vsubmaximal
p6514
sI6547
Vsubpopulation
p6515
sI6548
Vsubsections
p6516
sI6549
Vsubsequentcourses
p6517
sI6550
Vsubstance
p6518
sI6551
Vsubstitution
p6519
sI6552
Vsuccinimides
p6520
sI6553
Vsuffer
p6521
sI6554
Vsuggestive
p6522
sI6555
Vsulfa
p6523
sI6556
Vsulfadoxine
p6524
sI6557
Vsulfamethizole
p6525
sI6558
Vsulfide
p6526
sI6559
Vsulfisoxazole
p6527
sI6560
Vsulfobromophthalein
p6528
sI6561
Vsulfonate
p6529
sI6562
Vsulfur
p6530
sI6563
Vsulphenazole
p6531
sI6564
Vsulphonylureas
p6532
sI6565
Vsum
p6533
sI6566
Vsummarized
p6534
sI6567
Vsupplementation
p6535
sI6568
Vsupplemented
p6536
sI6569
Vsupplied
p6537
sI6570
Vsuppressant
p6538
sI6571
Vsuppressed
p6539
sI6572
Vsuppresses
p6540
sI6573
Vsuppressing
p6541
sI6574
Vsuprofen
p6542
sI6575
Vsurfactant
p6543
sI6576
Vsurgical
p6544
sI6577
Vsurveillance
p6545
sI6578
Vsusceptibility
p6546
sI6579
Vsuspending
p6547
sI6580
Vswelling
p6548
sI6581
Vswine
p6549
sI6582
Vswitched
p6550
sI6583
Vsymptomatology
p6551
sI6584
Vsynergistically
p6552
sI6585
Vsynthase
p6553
sI6586
Vsystematic
p6554
sI6587
Vtacrine
p6555
sI6588
Vtadalafil
p6556
sI6589
Vtamponades
p6557
sI6590
Vtapering
p6558
sI6591
Vtardive
p6559
sI6592
Vtarsal
p6560
sI6593
Vtartrate
p6561
sI6594
Vtazobactam
p6562
sI6595
Vtears
p6563
sI6596
Vtechniques
p6564
sI6597
Vtemozolomide
p6565
sI6598
Vtemperature
p6566
sI6599
Vten
p6567
sI6600
Vtenderness
p6568
sI6601
Vtermed
p6569
sI6602
Vterminate
p6570
sI6603
Vtestosterone
p6571
sI6604
Vtetracyclic
p6572
sI6605
Vtetrahydrocannabinol
p6573
sI6606
Vthedosage
p6574
sI6607
Vthemselves
p6575
sI6608
Vtherapeutically
p6576
sI6609
Vthesemedications
p6577
sI6610
Vthiabendazole
p6578
sI6611
Vthiazolesulfone
p6579
sI6612
Vthimerosal
p6580
sI6613
Vthiocyanate
p6581
sI6614
Vthioguanine
p6582
sI6615
Vthiopental
p6583
sI6616
Vthiothixene
p6584
sI6617
Vthiouric
p6585
sI6618
Vthioxanthene
p6586
sI6619
Vthirst
p6587
sI6620
Vthoroughly
p6588
sI6621
Vthought
p6589
sI6622
Vthousandth
p6590
sI6623
Vthreefold
p6591
sI6624
Vthreohydrobupropion
p6592
sI6625
Vthrombinemia
p6593
sI6626
Vthrombocyte
p6594
sI6627
Vthrombolytic
p6595
sI6628
Vthrombopenia
p6596
sI6629
Vthrombus
p6597
sI6630
Vthroughout
p6598
sI6631
Vthyroidal
p6599
sI6632
Vtidine
p6600
sI6633
Vtiming
p6601
sI6634
Vtimolol
p6602
sI6635
Vtiters
p6603
sI6636
Vtizoxanide
p6604
sI6637
Vtobramycin
p6605
sI6638
Vtolazamide
p6606
sI6639
Vtolazoline
p6607
sI6640
Vtolerant
p6608
sI6641
Vtolterodine
p6609
sI6642
Vtoluamide
p6610
sI6643
Vtonic
p6611
sI6644
Vtook
p6612
sI6645
Vtotally
p6613
sI6646
Vtowards
p6614
sI6647
Vtoxicokinetic
p6615
sI6648
Vtoxicologic
p6616
sI6649
Vtoxoids
p6617
sI6650
Vtraction
p6618
sI6651
Vtrademark
p6619
sI6652
Vtranquillisers
p6620
sI6653
Vtrans
p6621
sI6654
Vtransfer
p6622
sI6655
Vtransiently
p6623
sI6656
Vtransit
p6624
sI6657
Vtranslates
p6625
sI6658
Vtranspeptidase
p6626
sI6659
Vtreatments
p6627
sI6660
Vtreatpatients
p6628
sI6661
Vtremulousness
p6629
sI6662
Vtriacetyloleandomycin
p6630
sI6663
Vtriazolo
p6631
sI6664
Vtriazolobenzodiazepines
p6632
sI6665
Vtried
p6633
sI6666
Vtrifluoperazine
p6634
sI6667
Vtriflupromazine
p6635
sI6668
Vtriglycerides
p6636
sI6669
Vtrihexyphenidyl
p6637
sI6670
Vtriiodothyronine
p6638
sI6671
Vtrimeprazine
p6639
sI6672
Vtrimoxazole
p6640
sI6673
Vtriphosphate
p6641
sI6674
Vtrisilicate
p6642
sI6675
Vtromethamine
p6643
sI6676
Vtruly
p6644
sI6677
Vtryptophan
p6645
sI6678
Vtubercle
p6646
sI6679
Vtubules
p6647
sI6680
Vtumor
p6648
sI6681
Vtumorigenic
p6649
sI6682
Vturn
p6650
sI6683
Vtxt
p6651
sI6684
Vtyphoid
p6652
sI6685
Vtypical
p6653
sI6686
Vtypically
p6654
sI6687
Vtyramine
p6655
sI6688
Vulcer
p6656
sI6689
Vulcerogenic
p6657
sI6690
Vulcers
p6658
sI6691
Vultimate
p6659
sI6692
Vunavailable
p6660
sI6693
Vuncomplicated
p6661
sI6694
Vunderdosage
p6662
sI6695
Vundergone
p6663
sI6696
Vunderstand
p6664
sI6697
Vunderstood
p6665
sI6698
Vunexpectedly
p6666
sI6699
Vunimportant
p6667
sI6700
Vunintentional
p6668
sI6701
Vunnecessary
p6669
sI6702
Vunossified
p6670
sI6703
Vunpredictably
p6671
sI6704
Vunrecognized
p6672
sI6705
Vunsatisfactory
p6673
sI6706
Vunsteady
p6674
sI6707
Vunusually
p6675
sI6708
Vurea
p6676
sI6709
Vuremic
p6677
sI6710
Vurobilin
p6678
sI6711
Vurticaria
p6679
sI6712
Vusedas
p6680
sI6713
Vuseof
p6681
sI6714
Vutero
p6682
sI6715
Vutilization
p6683
sI6716
Vutilize
p6684
sI6717
Vutilizing
p6685
sI6718
Vuveitis
p6686
sI6719
Vv
sI6720
Vvaccinations
p6687
sI6721
Vvacuolation
p6688
sI6722
Vvaiproic
p6689
sI6723
Vvalid
p6690
sI6724
Vvalsartan
p6691
sI6725
Vvanillylmandelic
p6692
sI6726
Vvarapamil
p6693
sI6727
Vvariably
p6694
sI6728
Vvariation
p6695
sI6729
Vvariations
p6696
sI6730
Vvasculitis
p6697
sI6731
Vvasoactive
p6698
sI6732
Vvasodilator
p6699
sI6733
Vvenous
p6700
sI6734
Vventilation
p6701
sI6735
Vventral
p6702
sI6736
Vverified
p6703
sI6737
Vverify
p6704
sI6738
Vversa
p6705
sI6739
Vversus
p6706
sI6740
Vvertebra
p6707
sI6741
Vvertebrae
p6708
sI6742
Vvertebral
p6709
sI6743
Vvi
p6710
sI6744
Vvice
p6711
sI6745
Vview
p6712
sI6746
Vvigorous
p6713
sI6747
Vviomycin
p6714
sI6748
Vvoiding
p6715
sI6749
Vvolunteer
p6716
sI6750
Vvoriconizole
p6717
sI6751
Vvs.
p6718
sI6752
Vwait
p6719
sI6753
Vwall
p6720
sI6754
Vwant
p6721
sI6755
Vwarrants
p6722
sI6756
Vwashout
p6723
sI6757
Vwave
p6724
sI6758
Vwax
p6725
sI6759
Vweaker
p6726
sI6760
Vwear
p6727
sI6761
Vwedge
p6728
sI6762
Vwhereas
p6729
sI6763
Vwhite
p6730
sI6764
Vwish
p6731
sI6765
Vwishing
p6732
sI6766
Vwithhold
p6733
sI6767
Vwithin9
p6734
sI6768
Vwork
p6735
sI6769
Vworking
p6736
sI6770
Vwthionamide
p6737
sI6771
Vwww.rxlist.com
p6738
sI6772
Vxenobiotic
p6739
sI6773
Vyielded
p6740
sI6774
Vyogurt
p6741
sI6775
Vyoung
p6742
sI6776
Vyounger
p6743
sI6777
Vzafirlukast
p6744
sI6778
Vziprasidone
p6745
sI6779
Vzonisamide
p6746
sI6780
Vzopiclone
p6747
sI6781
Vzymes
p6748
ss.