ccollections
OrderedDict
p1
((lp2
(lp3
S'tag_scheme'
p4
aS'iobes'
p5
aa(lp6
S'lower'
p7
aI00
aa(lp8
S'zeros'
p9
aI00
aa(lp10
S'char_dim'
p11
aI25
aa(lp12
S'char_lstm_dim'
p13
aI25
aa(lp14
S'char_bidirect'
p15
aI01
aa(lp16
S'word_dim'
p17
aI100
aa(lp18
S'word_lstm_dim'
p19
aI100
aa(lp20
S'word_bidirect'
p21
aI01
aa(lp22
S'pre_emb'
p23
aS''
aa(lp24
S'all_emb'
p25
aI00
aa(lp26
S'cap_dim'
p27
aI0
aa(lp28
S'crf'
p29
aI01
aa(lp30
S'dropout'
p31
aF0.5
aa(lp32
S'lr_method'
p33
aS'sgd-lr_.005'
p34
aatRp35
.