(dp1
S'id_to_char'
p2
(dp3
I0
Ve
sI1
Vi
sI2
Vn
sI3
Vo
sI4
Va
sI5
Vr
sI6
Vt
sI7
Vl
sI8
Vs
sI9
Vc
sI10
Vd
sI11
Vh
sI12
Vp
sI13
Vm
sI14
Vu
sI15
Vy
sI16
Vg
sI17
VI
sI18
Vf
sI19
Vb
sI20
V.
sI21
VA
sI22
Vz
sI23
VM
sI24
Vv
sI25
VP
sI26
VE
sI27
VC
sI28
VT
sI29
Vx
sI30
VN
sI31
V/
sI32
V*
sI33
VS
sI34
V-
sI35
VR
sI36
VL
sI37
VB
sI38
VO
sI39
VZ
sI40
VD
sI41
VH
sI42
V9
sI43
Vk
sI44
VV
sI45
VU
sI46
Vw
sI47
VX
sI48
VF
sI49
VG
sI50
VK
sI51
V#
sI52
VJ
sI53
VW
sI54
V;
sI55
Vj
sI56
VY
sI57
Vq
sI58
V<
sI59
V=
sI60
V+
sI61
VQ
sI62
V]
sI63
V'
sI64
V_
sI65
V:
sI66
V?
sI67
V%
sI68
V`
sI69
V(
sI70
V>
sI71
V[
ssS'id_to_tag'
p4
(dp5
I0
VO
sI1
VB-Drug
p6
sI2
VB-Drug_n
p7
sI3
VB-Group
p8
sI4
VI-Group
p9
sI5
VI-Drug_n
p10
sI6
VI-Drug
p11
sI7
VB-Brand
p12
sI8
VI-Brand
p13
ssS'id_to_word'
p14
(dp15
I0
S'<UNK>'
p16
sI1
Veye
p17
sI2
V.
sI3
V/
sI4
Vneutrophils
p18
sI5
V-
sI6
VMethadone
p19
sI7
Vcleared
p20
sI8
V*CBZ
p21
sI9
V*Increased
p22
sI10
Vnorethandrolone
p23
sI11
Vphosphotungstate
p24
sI12
VInducers
p25
sI13
Vpharmaco
p26
sI14
V.9
p27
sI15
Vazathioprine
p28
sI16
VPirenzepine
p29
sI17
VHuman
p30
sI18
Vcortico
p31
sI19
Vneutrophil
p32
sI20
Vfat
p33
sI21
Vphentermine
p34
sI22
Vferricyanide
p35
sI23
Vdopamine
p36
sI24
V#
sI25
Vair
p37
sI26
Vagitation
p38
sI27
Vexcretion
p39
sI28
VNine
p40
sI29
Vbasis
p41
sI30
VNovoSeven
p42
sI31
VPATIENTS
p43
sI32
V;
sI33
Vgemfibrozil
p44
sI34
VNeither
p45
sI35
VMedication
p46
sI36
Vonce
p47
sI37
Vcolchicine
p48
sI38
Vadmixtures
p49
sI39
VControlled
p50
sI40
Vcurare
p51
sI41
Vdiminishes
p52
sI42
Vaddition
p53
sI43
Vadolescents
p54
sI44
VLEVULAN
p55
sI45
Vmitomycin
p56
sI46
Vnizatidine
p57
sI47
Vinherent
p58
sI48
V<
sI49
VPROPECIA
p59
sI50
VPyrimethamine
p60
sI51
VTopical
p61
sI52
Vbut
p62
sI53
Vneutropenia
p63
sI54
Vbutazone
p64
sI55
VPimozide
p65
sI56
Vferrous
p66
sI57
Vmayuse
p67
sI58
VLinezolid
p68
sI59
VPyrazolone
p69
sI60
VMIRAPEX
p70
sI61
VPERSANTINE
p71
sI62
Vclose
p72
sI63
V+
sI64
VJuices
p73
sI65
Vphenytoins
p74
sI66
Vnicotinamide
p75
sI67
Vnine
p76
sI68
Vparallel
p77
sI69
VPosicor
p78
sI70
VPersons
p79
sI71
Vconfirmatory
p80
sI72
V=9
p81
sI73
Vacceptable
p82
sI74
Virregular
p83
sI75
Vlab
p84
sI76
Vomeprazole
p85
sI77
Vphenylephrine
p86
sI78
Vdeficiency
p87
sI79
Vosteomalacia
p88
sI80
Vcoupled
p89
sI81
Vevents
p90
sI82
VHyperglycemia
p91
sI83
Vmay
p92
sI84
VEndocrine
p93
sI85
VIndocyanine
p94
sI86
VIndomethacin
p95
sI87
VSalicylates
p96
sI88
Vflexure
p97
sI89
Vgold
p98
sI90
VA
sI91
VSolution
p99
sI92
Valerted
p100
sI93
Vmaintained
p101
sI94
Vmitochondria
p102
sI95
Vnutritional
p103
sI96
VMHD
p104
sI97
VRopivacaine
p105
sI98
Vclorazepate
p106
sI99
Vconfirmed
p107
sI100
Vdornase
p108
sI101
Vkg
p109
sI102
Vparalysis
p110
sI103
VD
sI104
VSerotonergic
p111
sI105
VTorsades
p112
sI106
VXL
p113
sI107
Vadditive
p114
sI108
Vantituberculosis
p115
sI109
Vbuffalo
p116
sI110
Vcream
p117
sI111
Vextend
p118
sI112
Vhealthy
p119
sI113
VLocal
p120
sI114
VHydroxide
p121
sI115
VIsocarboxazid
p122
sI116
VSomatrem
p123
sI117
Vcardiorespiratory
p124
sI118
Vcefoperazone
p125
sI119
Vcompelling
p126
sI120
Vconcomitan
p127
sI121
VLEVEL
p128
sI122
V9.Farr
p129
sI123
VTriamterene
p130
sI124
VVASOTEC
p131
sI125
Vfecal
p132
sI126
Vperivascular
p133
sI127
VImmunosuppressants
p134
sI128
VPositive
p135
sI129
VTCAs
p136
sI130
VTolbutamide
p137
sI131
V]
sI132
Vcompatible
p138
sI133
Vdogs
p139
sI134
Vnevirapinemay
p140
sI135
VNormalized
p141
sI136
Vcompatibility
p142
sI137
Vleft
p143
sI138
Vmeasures
p144
sI139
Vpharmacology
p145
sI140
VCoA
p146
sI141
VSKELID
p147
sI142
Vadsorption
p148
sI143
Vantagonism
p149
sI144
Vbecome
p150
sI145
Velicit
p151
sI146
Vinteracting
p152
sI147
Vintravenous
p153
sI148
Vmonohydroxy
p154
sI149
VKEMSTROTM
p155
sI150
Vbiopsy
p156
sI151
Vcrossover
p157
sI152
Vexcessively
p158
sI153
Vinvestigate
p159
sI154
Vketoacidosis
p160
sI155
Vmisused
p161
sI156
Vmonth
p162
sI157
VHydrodiuril
p163
sI158
VInitial
p164
sI159
VJANUVIA
p165
sI160
VLaxatives
p166
sI161
VPT
p167
sI162
VPepto
p168
sI163
VPlenaxis
p169
sI164
VREMICADE
p170
sI165
Vatomoxetine
p171
sI166
Vbrinzolamide
p172
sI167
Vcardioselective
p173
sI168
Vconventional
p174
sI169
Vcynomolgus
p175
sI170
Vdepolarizing
p176
sI171
Vdry
p177
sI172
Visoenzyme
p178
sI173
Vmesalazine
p179
sI174
Vng
p180
sI175
Vnonsmokers
p181
sI176
VALPHAGAN
p182
sI177
VLiterature
p183
sI178
Vawareness
p184
sI179
Vclass
p185
sI180
Vevident
p186
sI181
Vmarked
p187
sI182
Vphenprocoumon
p188
sI183
VEnoxacin
p189
sI184
VNOT
p190
sI185
VPeriodic
p191
sI186
VTrial
p192
sI187
VUntil
p193
sI188
VZEVALIN
p194
sI189
Val
p195
sI190
Vantibacterial
p196
sI191
Vbromide
p197
sI192
Vdesmethylastermizole
p198
sI193
Vdextrothyroxine
p199
sI194
Vexceeds
p200
sI195
Vhematologic
p201
sI196
Vheroin
p202
sI197
Vhormonalmethods
p203
sI198
Vhypericum
p204
sI199
Vinfusional
p205
sI200
Vminimally
p206
sI201
Vnewly
p207
sI202
Vnicotine
p208
sI203
Vnodal
p209
sI204
VLevosimendan
p210
sI205
VPresumably
p211
sI206
Vaminoglycoside
p212
sI207
Vantivirals
p213
sI208
Vblocked
p214
sI209
Vbudesonide
p215
sI210
Vcomparisons
p216
sI211
Veach
p217
sI212
Vexpect
p218
sI213
Vfatigue
p219
sI214
Vgoing
p220
sI215
Vgreat
p221
sI216
Vhaving
p222
sI217
Vnumbers
p223
sI218
VCoated
p224
sI219
VEnflurane
p225
sI220
VLiver
p226
sI221
VLupus
p227
sI222
VRitanovir
p228
sI223
VTime
p229
sI224
Vbacteriostatic
p230
sI225
Vcontraceptives
p231
sI226
Vdecreases
p232
sI227
Vdesmethylclozapine
p233
sI228
Vdirect
p234
sI229
Velimination
p235
sI230
Vfamciclovir
p236
sI231
Vfluconazole
p237
sI232
Vformulation
p238
sI233
Vgelatin
p239
sI234
Vgrepafloxacin
p240
sI235
Vhyperglycemic
p241
sI236
Vhypothalamic
p242
sI237
Vinteracts
p243
sI238
Vkept
p244
sI239
Vkidney
p245
sI240
Vlymphocryptovirus
p246
sI241
Vmodel
p247
sI242
Vnafcillin
p248
sI243
Vneuropathy
p249
sI244
Vneurotoxin
p250
sI245
Vpalpitations
p251
sI246
Vphenyramidol
p252
sI247
Vphenytoin
p253
sI248
VMaximum
p254
sI249
VProthrombin
p255
sI250
VWhether
p256
sI251
Vcorrespond
p257
sI252
Vinotropes
p258
sI253
Vinsert
p259
sI254
Vlipids
p260
sI255
Vlower
p261
sI256
Vmetabolizing
p262
sI257
Vnodular
p263
sI258
Vpermeability
p264
sI259
Vpertechnetate
p265
sI260
Vpheochromocytoma
p266
sI261
V**
p267
sI262
VAnaphylactic
p268
sI263
VBrief
p269
sI264
VJohn
p270
sI265
VNon
p271
sI266
VRepeating
p272
sI267
VSince
p273
sI268
Vadditives
p274
sI269
Vanticholinergics
p275
sI270
Vapprox
p276
sI271
Vaware
p277
sI272
Vbetter
p278
sI273
Vcompletely
p279
sI274
Vdissolution
p280
sI275
Vdosing
p281
sI276
Vembryocidal
p282
sI277
Vestimated
p283
sI278
Vformal
p284
sI279
Vglimepiride
p285
sI280
Vmarker
p286
sI281
Vmeals
p287
sI282
Vother
p288
sI283
Vparanoid
p289
sI284
Vpersistently
p290
sI285
Vphotosensitivity
p291
sI286
V..
p292
sI287
VA.C
p293
sI288
VActivase
p294
sI289
VAminoglycosides
p295
sI290
VAnadrol
p296
sI291
VHypnotics
p297
sI292
VPhase
p298
sI293
VREGRANEX
p299
sI294
VWITH
p300
sI295
VZERIT
p301
sI296
Vadrenergic
p302
sI297
Vadvanced
p303
sI298
Vaffect
p304
sI299
Vapomorphine
p305
sI300
Vbrand
p306
sI301
Vca
p307
sI302
Vcardiovascular
p308
sI303
Vcoad
p309
sI304
Vderived
p310
sI305
Vdiarrhea
p311
sI306
Vdiphenidol
p312
sI307
Vdipivoxil
p313
sI308
Vdissolving
p314
sI309
Vfluids
p315
sI310
Vgram
p316
sI311
Vgroup
p317
sI312
Vin
p318
sI313
Vinfusion
p319
sI314
Vkits
p320
sI315
Vlevothyroxine
p321
sI316
Vmalabsorption
p322
sI317
Vmechanism
p323
sI318
Vnarrow
p324
sI319
Vphenothiazine
p325
sI320
VAminophylline
p326
sI321
VBREVIBLOC
p327
sI322
VDIFFERIN
p328
sI323
VDay
p329
sI324
VGris
p330
sI325
VIntravenous
p331
sI326
VKaletra
p332
sI327
VMAOIs
p333
sI328
VMethyprylon
p334
sI329
VOn
p335
sI330
VPIPRACIL
p336
sI331
VSpectrum
p337
sI332
VState
p338
sI333
VThese
p339
sI334
VZETIA
p340
sI335
VaPTT
p341
sI336
Vachlorhydria
p342
sI337
Vagonists
p343
sI338
Vanorexia
p344
sI339
Vanthralin
p345
sI340
Vantipsychotics
p346
sI341
Vbreath
p347
sI342
Vcefditoren
p348
sI343
Vcomments
p349
sI344
Vconstipation
p350
sI345
Vcylcopholsphamide
p351
sI346
Vdeficiencies
p352
sI347
Vdemonstrates
p353
sI348
Vdysarthria
p354
sI349
Vfraction
p355
sI350
Vgets
p356
sI351
Vhigher
p357
sI352
Vlevonorgesterol
p358
sI353
Vlomefloxacin
p359
sI354
Vmembranes
p360
sI355
Vneuropsychiatric
p361
sI356
Vnonsmoking
p362
sI357
Vpapaverine
p363
sI358
Vphosphatase
p364
sI359
Vphotometric
p365
sI360
Vplasma
p366
sI361
V9HT9
p367
sI362
V?
sI363
VAldomet
p368
sI364
VConcurrent
p369
sI365
VDownward
p370
sI366
VEffectiveness
p371
sI367
VJapan
p372
sI368
VMODIFIED
p373
sI369
VMUST
p374
sI370
VMequitazine
p375
sI371
VMinimum
p376
sI372
VNelfinavir
p377
sI373
VProcainamide
p378
sI374
VQuinolone
p379
sI375
VRESIN
p380
sI376
VRe
p381
sI377
VRoutine
p382
sI378
VSHOULD
p383
sI379
VSalmonella
p384
sI380
VSalt
p385
sI381
VTiagabine
p386
sI382
VTolazamide
p387
sI383
VWarning
p388
sI384
VZADAXIN
p389
sI385
Vautomaticity
p390
sI386
Vcaptopril
p391
sI387
Vclinical
p392
sI388
Vcoadministered
p393
sI389
Vconsume
p394
sI390
Vdegradation
p395
sI391
Vdehydrogenase
p396
sI392
Vdeveloped
p397
sI393
Vdevice
p398
sI394
Vdisoproxil
p399
sI395
Vdocumenting
p400
sI396
Vendings
p401
sI397
Vepisodes
p402
sI398
Vexceeded
p403
sI399
Vfetus
p404
sI400
Vhormonal
p405
sI401
Vhypotensive
p406
sI402
Villustrated
p407
sI403
Vinhibitors
p408
sI404
Vlead
p409
sI405
Vleads
p410
sI406
Vobjective
p411
sI407
Voncogenic
p412
sI408
Vorganophosphate
p413
sI409
Vovulation
p414
sI410
Vpair
p415
sI411
Vparenterally
p416
sI412
V9MNA
p417
sI413
V9a
p418
sI414
VAzlocillin
p419
sI415
VChlorotrianisene
p420
sI416
VCholestyramine
p421
sI417
VCombination
p422
sI418
VDepakote
p423
sI419
VDose
p424
sI420
VINTERVAL
p425
sI421
VJohnson
p426
sI422
VKeppra
p427
sI423
VMeclofenamate
p428
sI424
VMyochrysine
p429
sI425
VPHARMACOLOGY
p430
sI426
VPLETAL
p431
sI427
VProgesterone
p432
sI428
VProteins
p433
sI429
VRhabdomyolysis
p434
sI430
VSedatives
p435
sI431
VSparine
p436
sI432
VSporanox
p437
sI433
VWARFARIN
p438
sI434
Vactinic
p439
sI435
Vactivated
p440
sI436
Vadd
p441
sI437
Vallowing
p442
sI438
Vamprenavir
p443
sI439
Vamrinone
p444
sI440
Vantidepressant
p445
sI441
Vautomated
p446
sI442
Vbalance
p447
sI443
Vbasal
p448
sI444
Vbind
p449
sI445
Vbullous
p450
sI446
Vclofibrate
p451
sI447
Vco
p452
sI448
Vcompensate
p453
sI449
Vcurariform
p454
sI450
Vdied
p455
sI451
Vdip
p456
sI452
Vdiplopia
p457
sI453
Vdoubled
p458
sI454
Vdoxapram
p459
sI455
Vdoxorubicin
p460
sI456
Vectopic
p461
sI457
Venrolled
p462
sI458
Vflu
p463
sI459
Vform
p464
sI460
Vgait
p465
sI461
Vglasses
p466
sI462
Vgonadotropin
p467
sI463
Vheartbeat
p468
sI464
Vimmunizations
p469
sI465
Vindicates
p470
sI466
Vinfusions
p471
sI467
Vinsect
p472
sI468
Vinterval
p473
sI469
Visozyme
p474
sI470
Vkanamycin
p475
sI471
Vknown
p476
sI472
Vlarger
p477
sI473
Vlength
p478
sI474
Vlowers
p479
sI475
Vmargin
p480
sI476
Vmask
p481
sI477
Vmcg
p482
sI478
Vmetoprolol
p483
sI479
Vmice
p484
sI480
Vmoclobemide
p485
sI481
Vmouth
p486
sI482
Vnandrolone
p487
sI483
Vnephrosis
p488
sI484
Vnitric
p489
sI485
Vparameters
p490
sI486
Vparts
p491
sI487
Vpathways
p492
sI488
Vpenicillins
p493
sI489
Vphenolic
p494
sI490
Vphotodynamic
p495
sI491
Vplacebo
p496
sI492
Vplanned
p497
sI493
V9:9
p498
sI494
V=
sI495
VAdminister
p499
sI496
VAffected
p500
sI497
VAmpicillin
p501
sI498
VAnagrelide
p502
sI499
VChlorpromazine
p503
sI500
VChlorpropamides
p504
sI501
VClinitest
p505
sI502
VDecrease
p506
sI503
VDepressants
p507
sI504
VEACA
p508
sI505
VEmit
p509
sI506
VEprosartan
p510
sI507
VHeart
p511
sI508
VIC9
p512
sI509
VImpairment
p513
sI510
VKetamine
p514
sI511
VLithostat
p515
sI512
VMg
p516
sI513
VMidazolam
p517
sI514
VMyfortic
p518
sI515
VNINDS
p519
sI516
VNicotinic
p520
sI517
VNone
p521
sI518
VOrasone
p522
sI519
VPAH
p523
sI520
VPeak
p524
sI521
VPharmacokinetic
p525
sI522
VPlatelet
p526
sI523
VPump
p527
sI524
VQ
sI525
VRifampin
p528
sI526
VSingle
p529
sI527
VTRISENOX
p530
sI528
VTRITEC
p531
sI529
VTemaril
p532
sI530
VWARNING
p533
sI531
VZIAGEN
p534
sI532
Vaddicts
p535
sI533
Vantiasthmatic
p536
sI534
Vantiparkinsonism
p537
sI535
Varabinoside
p538
sI536
Vattenuates
p539
sI537
Vautoimmune
p540
sI538
Vbarbituates
p541
sI539
Vbecomes
p542
sI540
Vbehave
p543
sI541
Vbethanechol
p544
sI542
Vbetween
p545
sI543
Vbulbar
p546
sI544
Vcefotaxime
p547
sI545
Vchildhood
p548
sI546
Vcoagulants
p549
sI547
Vcomparison
p550
sI548
Vconvulsion
p551
sI549
Vcough
p552
sI550
Vdepletor
p553
sI551
Vdesloratadine
p554
sI552
Vdevices
p555
sI553
Vdiagnostic
p556
sI554
Vdisorder
p557
sI555
Velectrolyte
p558
sI556
Vexemestane
p559
sI557
Vexperiment
p560
sI558
Vexperiments
p561
sI559
Vginseng
p562
sI560
Vhydrobromide
p563
sI561
Vi.e.
p564
sI562
VinTables
p565
sI563
Vinfectives
p566
sI564
Vinflammation
p567
sI565
Vl9
p568
sI566
Vless
p569
sI567
Vmaprotiline
p570
sI568
Vmechlorethamine
p571
sI569
Vnaphthol
p572
sI570
Vnefazadone
p573
sI571
Vneurotoxicity
p574
sI572
Vorlistat
p575
sI573
Vothers
p576
sI574
Vparticularly
p577
sI575
Vpenciclovir
p578
sI576
Vphysical
p579
sI577
Vpiroxicam
p580
sI578
VATAC
p581
sI579
VATROVENT
p582
sI580
VAddition
p583
sI581
VAluminum
p584
sI582
VAnalgesics
p585
sI583
VAzithromycin
p586
sI584
VButyrophenones
p587
sI585
VCssmax
p588
sI586
VDaypro
p589
sI587
VDerivative
p590
sI588
VEnzymes
p591
sI589
VEstrogens
p592
sI590
VG
sI591
VInfarction
p593
sI592
VInfusion
p594
sI593
VLimited
p595
sI594
VLoop
p596
sI595
VMIC
p597
sI596
VMONUROL
p598
sI597
VMofetil
p599
sI598
VMultistix
p600
sI599
VMutagenesis
p601
sI600
VNSAIDs
p602
sI601
VNafazodone
p603
sI602
VNausea
p604
sI603
VPD
p605
sI604
VReductions
p606
sI605
VReproductive
p607
sI606
VRoegnik
p608
sI607
VSHBG
p609
sI608
VSeptra
p610
sI609
VSildenafil
p611
sI610
VSimultaneous
p612
sI611
VTAXOTERE
p613
sI612
VTablets
p614
sI613
VTetradecyl
p615
sI614
VThiazides
p616
sI615
VTindal
p617
sI616
VTo
p618
sI617
VTranscriptase
p619
sI618
VV
sI619
VWhere
p620
sI620
Vaccelerates
p621
sI621
Vacetyl
p622
sI622
Vadjunctive
p623
sI623
Vamines
p624
sI624
Vaminoglutethimide
p625
sI625
Vamyl
p626
sI626
Vantianginals
p627
sI627
Vantianxiety
p628
sI628
Vanticancer
p629
sI629
Vanticoagulant
p630
sI630
Vantitrypsin
p631
sI631
Varea
p632
sI632
Vat
p633
sI633
Vaveraged
p634
sI634
Vbananas
p635
sI635
Vbeing
p636
sI636
Vbenzothiazepine
p637
sI637
Vblocks
p638
sI638
Vbumetanide
p639
sI639
Vcabergoline
p640
sI640
Vcarbonic
p641
sI641
Vcaused
p642
sI642
Vcefixime
p643
sI643
Vchloramphenicol
p644
sI644
Vclosely
p645
sI645
Vcoadministration
p646
sI646
Vcoated
p647
sI647
Vcoincide
p648
sI648
Vcolistin
p649
sI649
Vcompensatory
p650
sI650
Vcompleted
p651
sI651
Vcontrols
p652
sI652
Vcrystalline
p653
sI653
Vdecided
p654
sI654
Vdifferential
p655
sI655
Vdiscernible
p656
sI656
Vdiscoloration
p657
sI657
Vdiscontinued
p658
sI658
Vdronabinol
p659
sI659
Venough
p660
sI660
Venteric
p661
sI661
Vepiphyseal
p662
sI662
Vessentially
p663
sI663
Vesters
p664
sI664
Vexerts
p665
sI665
Vexfoliative
p666
sI666
Vexistence
p667
sI667
Vextremities
p668
sI668
Vfrom
p669
sI669
Vgel
p670
sI670
Vhepatoxicity
p671
sI671
Vhighintersubject
p672
sI672
Vhospitals
p673
sI673
Vhyperpyrexia
p674
sI674
Vhypertension
p675
sI675
Vimpacted
p676
sI676
Vinform
p677
sI677
Vinterruption
p678
sI678
Vintraconazole
p679
sI679
Visozymes
p680
sI680
Vlansoprazole
p681
sI681
Vlevobupivacaine
p682
sI682
Vlonger
p683
sI683
Vlymph
p684
sI684
Vlymphocyte
p685
sI685
Vmefenamic
p686
sI686
Vmelphalan
p687
sI687
Vmigraine
p688
sI688
Vministered
p689
sI689
Vmydriasis
p690
sI690
Vnatriuresis
p691
sI691
Vnecessary
p692
sI692
Vnonfunctioning
p693
sI693
Vnoninsulin
p694
sI694
Vnorfluoxetine
p695
sI695
Vonwards
p696
sI696
Vototoxicity
p697
sI697
Vpersistence
p698
sI698
Vphenformin
p699
sI699
V*Not
p700
sI700
VABCB9
p701
sI701
VADP
p702
sI702
VAUCs
p703
sI703
VAV
p704
sI704
VAVOID
p705
sI705
VAdjuvant
p706
sI706
VAlpha
p707
sI707
VBEFORE
p708
sI708
VBlunting
p709
sI709
VCPK
p710
sI710
VCausing
p711
sI711
VDiuretic
p712
sI712
VDoxylamine
p713
sI713
VEMTRIVA
p714
sI714
VERTACZOTM
p715
sI715
VETHANOL
p716
sI716
VEpoxide
p717
sI717
VFehling
p718
sI718
VFehlings
p719
sI719
VHT9B
p720
sI720
VHypertension
p721
sI721
VInfergen
p722
sI722
VInhibition
p723
sI723
VIntron
p724
sI724
VJaff
p725
sI725
VKerlone
p726
sI726
VMarplan
p727
sI727
VMeasurement
p728
sI728
VMellaril
p729
sI729
VNarcotic
p730
sI730
VP9IID9
p731
sI731
VPediatric
p732
sI732
VPhospholine
p733
sI733
VPlatelia
p734
sI734
VProlongation
p735
sI735
VReaction
p736
sI736
VReview
p737
sI737
VSEDATIVE
p738
sI738
VSKELAXIN
p739
sI739
VSee
p740
sI740
VSertraline
p741
sI741
VTAMBOCOR
p742
sI742
VTEMODAR
p743
sI743
VThat
p744
sI744
VUricosuric
p745
sI745
Vaberration
p746
sI746
Vaccompany
p747
sI747
Vaddiction
p748
sI748
Vadds
p749
sI749
Vadrenocorticoids
p750
sI750
Vaffecting
p751
sI751
Vagranulocytosis
p752
sI752
Vaminoglycosides
p753
sI753
Vandrogens
p754
sI754
Vantichlolinergic
p755
sI755
Vanticonvulsants
p756
sI756
Vantiglobulin
p757
sI757
Vantiparkinsonian
p758
sI758
Vapart
p759
sI759
Vapproved
p760
sI760
Varuonic
p761
sI761
Vatracurium
p762
sI762
Vatrioventricular
p763
sI763
Vattenuated
p764
sI764
Vbased
p765
sI765
Vblue
p766
sI766
Vblunts
p767
sI767
Vbupropz_od.htm
p768
sI768
Vcannabinoids
p769
sI769
Vcharacteristics
p770
sI770
Vchronically
p771
sI771
Vcited
p772
sI772
Vclassified
p773
sI773
Vclastogenic
p774
sI774
Vclofarabine
p775
sI775
Vclosure
p776
sI776
Vcolorimetric
p777
sI777
Vcolumn
p778
sI778
Vcompletion
p779
sI779
Vconcern
p780
sI780
Vconfirm
p781
sI781
Vcortisol
p782
sI782
Vcramps
p783
sI783
Vdecamethonium
p784
sI784
Vdeficit
p785
sI785
Vdemonstrate
p786
sI786
Vdescribing
p787
sI787
Vdesethylamiodarone
p788
sI788
Vdetecting
p789
sI789
Vdifferences
p790
sI790
Vdipyrone
p791
sI791
Vdiseases
p792
sI792
Vdisorders
p793
sI793
Vdistribution
p794
sI794
Vdiuretics
p795
sI795
Vdorzolamide
p796
sI796
Vdual
p797
sI797
Vdynamic
p798
sI798
Ve.
p799
sI799
Velapsed
p800
sI800
Velevating
p801
sI801
Venantiomer
p802
sI802
Vencainide
p803
sI803
Vepinephrine
p804
sI804
Verythrohydrobupropion
p805
sI805
Vethinyl
p806
sI806
Vfemale
p807
sI807
Vfenoldopam
p808
sI808
Vfludrocortisone
p809
sI809
Vfondaparinux
p810
sI810
Vfree
p811
sI811
Vgluconate
p812
sI812
Vguanfacine
p813
sI813
Vheart
p814
sI814
Vhyperthyroid
p815
sI815
Vhypnotic
p816
sI816
Vibutilide
p817
sI817
Vidoxuridine
p818
sI818
Vileus
p819
sI819
Vimmunomodulating
p820
sI820
Vinducer
p821
sI821
Vinfused
p822
sI822
Vinsertable
p823
sI823
Vinteract
p824
sI824
Visoen
p825
sI825
Visoform
p826
sI826
Vketorolac
p827
sI827
Vlactam
p828
sI828
Vlactic
p829
sI829
Vlunch
p830
sI830
VmL
p831
sI831
Vmanifestations
p832
sI832
Vmeperidine
p833
sI833
Vmetabolizers
p834
sI834
Vmethotrexate
p835
sI835
Vmethsuximide
p836
sI836
Vmexiletine
p837
sI837
Vminute
p838
sI838
Vmodafinil
p839
sI839
Vmodification
p840
sI840
Vmonthly
p841
sI841
Vmonths
p842
sI842
Vnarcotic
p843
sI843
Vnecessitate
p844
sI844
Vneuroleptics
p845
sI845
Vnisoldipine
p846
sI846
Vnitrofurantoin
p847
sI847
Vnitroprusside
p848
sI848
Vnonselective
p849
sI849
Vnorfluoxe
p850
sI850
Vnormal
p851
sI851
Vnutrients
p852
sI852
Voccasionally
p853
sI853
Voxaprozin
p854
sI854
Vpalonosetron
p855
sI855
Vpantoprazole
p856
sI856
Vparticular
p857
sI857
Vpentoxifylline
p858
sI858
Vpersist
p859
sI859
Vpindolol
p860
sI860
Vpiperazine
p861
sI861
V%
sI862
V''cidal
p862
sI863
VACEI
p863
sI864
VADDITIVE
p864
sI865
VAVONEX
p865
sI866
VAdministration
p866
sI867
VAdrenocorticoids
p867
sI868
VAmoxicillin
p868
sI869
VAnabolin
p869
sI870
VAngiotensin
p870
sI871
VBritish
p871
sI872
VCANCIDAS
p872
sI873
VCLINITEST
p873
sI874
VCP
p874
sI875
VCampath
p875
sI876
VCations
p876
sI877
VCholinesterase
p877
sI878
VConjunction
p878
sI879
VDETROL
p879
sI880
VDIAMOND
p880
sI881
VDecreased
p881
sI882
VDemonstrated
p882
sI883
VDosages
p883
sI884
VDosed
p884
sI885
VECG
p885
sI886
VEdetate
p886
sI887
VEphedrine
p887
sI888
VEspecially
p888
sI889
VFenbufen
p889
sI890
VGanciclovir
p890
sI891
VGantrisin
p891
sI892
VGarlic
p892
sI893
VHaloperidol
p893
sI894
VHydrolase
p894
sI895
VIM
p895
sI896
VInc
p896
sI897
VInduce
p897
sI898
VInjection
p898
sI899
VInterval
p899
sI900
VIsoflurane
p900
sI901
VKeflex
p901
sI902
VKi
p902
sI903
VLevo
p903
sI904
VMIVACRON
p904
sI905
VMainly
p905
sI906
VMaprotiline
p906
sI907
VMicro
p907
sI908
VMixed
p908
sI909
VModest
p909
sI910
VNORVIR
p910
sI911
VNardil
p911
sI912
VNiacin
p912
sI913
VNitroglycerin
p913
sI914
VOXC
p914
sI915
VOnly
p915
sI916
VP9IIIA9
p916
sI917
VPULMOZYME
p917
sI918
VPaget
p918
sI919
VPending
p919
sI920
VPeripheral
p920
sI921
VPlaquenil
p921
sI922
VPletal
p922
sI923
VPossible
p923
sI924
VPowder
p924
sI925
VProlonged
p925
sI926
VPropantheline
p926
sI927
VREMERON
p927
sI928
VResistance
p928
sI929
VRespiratory
p929
sI930
VSTADOL
p930
sI931
VSUSTIVAhas
p931
sI932
VSilber
p932
sI933
VSinequan
p933
sI934
VSpontaneous
p934
sI935
VSteroidal
p935
sI936
VSteroids
p936
sI937
VSucralfate
p937
sI938
VT
sI939
VTBPA
p938
sI940
VTENORMIN
p939
sI941
VTOXIC
p940
sI942
VTerbinafine
p941
sI943
VTetracycline
p942
sI944
VTherefore
p943
sI945
VThyroxine
p944
sI946
VUnless
p945
sI947
VVIRACEPT
p946
sI948
VVIRAZOLE
p947
sI949
VVISTIDE
p948
sI950
VVMA
p949
sI951
VViracept
p950
sI952
VVoltaren
p951
sI953
VWHO
p952
sI954
VWhich
p953
sI955
VWyeth
p954
sI956
VYour
p955
sI957
VZinc
p956
sI958
Vabolished
p957
sI959
Vaccordance
p958
sI960
Vact
p959
sI961
Vacting
p960
sI962
Valosetron
p961
sI963
Vaminopyrine
p962
sI964
Vaminosalicylate
p963
sI965
Vandrogen
p964
sI966
Vangiotensinogen
p965
sI967
Vanother
p966
sI968
Vantibiotics
p967
sI969
Vantidiabetes
p968
sI970
Vantimycotic
p969
sI971
Vantiviral
p970
sI972
Vapparently
p971
sI973
Vapproximates
p972
sI974
Vasthma
p973
sI975
Vauranofin
p974
sI976
Vbackwards
p975
sI977
Vbases
p976
sI978
Vbiliary
p977
sI979
Vbleedings
p978
sI980
Vblock
p979
sI981
Vcan
p980
sI982
Vcarefully
p981
sI983
Vcarmustine
p982
sI984
Vcationic
p983
sI985
Vcefamandole
p984
sI986
Vcefazolin
p985
sI987
Vcefepime
p986
sI988
Vcelecoxib
p987
sI989
Vchemical
p988
sI990
Vchemotherapies
p989
sI991
Vchloralose
p990
sI992
Vchloride
p991
sI993
Vchlorpromazine
p992
sI994
Vcodeine
p993
sI995
Vcommit
p994
sI996
Vconclusive
p995
sI997
Vconjugated
p996
sI998
Vcontained
p997
sI999
Vcontinuous
p998
sI1000
Vcyclosporin
p999
sI1001
Vdalfopristin
p1000
sI1002
Vdams
p1001
sI1003
Vdarken
p1002
sI1004
Vdecisions
p1003
sI1005
Vdehydroaripiprazole
p1004
sI1006
Vdeleted
p1005
sI1007
Vdelirium
p1006
sI1008
Vdepolarising
p1007
sI1009
Vdetect
p1008
sI1010
Vdeveloping
p1009
sI1011
Vdiminished
p1010
sI1012
Vdinoprost
p1011
sI1013
Vdiphen
p1012
sI1014
Vdiphosphonate
p1013
sI1015
Vdirectly
p1014
sI1016
Vdisplaced
p1015
sI1017
Vdiuresis
p1016
sI1018
Vdivided
p1017
sI1019
Vdocument
p1018
sI1020
Vdone
p1019
sI1021
Vdoxylamine
p1020
sI1022
Vdyscrasia
p1021
sI1023
Vearly
p1022
sI1024
Vectopy
p1023
sI1025
Vedema
p1024
sI1026
Velectrocardiographic
p1025
sI1027
Vembryonic
p1026
sI1028
Vemptying
p1027
sI1029
Vendoscopy
p1028
sI1030
Venhancing
p1029
sI1031
Vepididymides
p1030
sI1032
Vexacerbation
p1031
sI1033
Vexact
p1032
sI1034
Vexceeding
p1033
sI1035
Vexposure
p1034
sI1036
Vextensively
p1035
sI1037
Vextreme
p1036
sI1038
Vflumazenil
p1037
sI1039
Vfluphenazine
p1038
sI1040
Vformally
p1039
sI1041
Vformate
p1040
sI1042
Vformed
p1041
sI1043
Vfunctioning
p1042
sI1044
Vgain
p1043
sI1045
Vgained
p1044
sI1046
Vgeriatric
p1045
sI1047
Vgive
p1046
sI1048
Vglibenclamide
p1047
sI1049
Vglipizide
p1048
sI1050
Vhazardous
p1049
sI1051
Vher
p1050
sI1052
Vhour
p1051
sI1053
Vhypertriglyceridemia
p1052
sI1054
Vhypokinesia
p1053
sI1055
Vhypoplasia
p1054
sI1056
Vhypothyroid
p1055
sI1057
Vimmunization
p1056
sI1058
Vimpotence
p1057
sI1059
Vinactivates
p1058
sI1060
Vinducers
p1059
sI1061
Vinhibitory
p1060
sI1062
Vinserts
p1061
sI1063
Vinstruct
p1062
sI1064
Vintense
p1063
sI1065
Vinteractive
p1064
sI1066
Vintercourse
p1065
sI1067
Vinto
p1066
sI1068
Vintolerance
p1067
sI1069
Vintroducing
p1068
sI1070
Vions
p1069
sI1071
Vketamine
p1070
sI1072
Vketoconazole
p1071
sI1073
Vlabel
p1072
sI1074
Vlaceration
p1073
sI1075
Vlamivudine
p1074
sI1076
Vlasma
p1075
sI1077
Vlatter
p1076
sI1078
Vlesions
p1077
sI1079
Vleucovorin
p1078
sI1080
Vlowered
p1079
sI1081
Vlymphopenia
p1080
sI1082
Vmagnesium
p1081
sI1083
Vmalignancies
p1082
sI1084
Vmatched
p1083
sI1085
Vmazindol
p1084
sI1086
Vmeasurements
p1085
sI1087
Vmedia
p1086
sI1088
Vmedicine
p1087
sI1089
Vmetrizamide
p1088
sI1090
Vmild
p1089
sI1091
Vmucosa
p1090
sI1092
Vmucositis
p1091
sI1093
Vnarcotics
p1092
sI1094
Vneoplastic
p1093
sI1095
Vnewborns
p1094
sI1096
Vniacinamide
p1095
sI1097
Vnifedipine
p1096
sI1098
Vnorepinephrine
p1097
sI1099
Vnormally
p1098
sI1100
Vobserved
p1099
sI1101
Voccur
p1100
sI1102
Vof
p1101
sI1103
Voliguria
p1102
sI1104
Vosteoarthritis
p1103
sI1105
Vosteocalcin
p1104
sI1106
Voutput
p1105
sI1107
Vpartial
p1106
sI1108
Vpartially
p1107
sI1109
Vpassage
p1108
sI1110
Vpathogen
p1109
sI1111
Vpelvic
p1110
sI1112
Vperiod
p1111
sI1113
Vperitoneal
p1112
sI1114
Vpharmacokinefics
p1113
sI1115
V''
p1114
sI1116
V9D
p1115
sI1117
V:
sI1118
VACID
p1116
sI1119
VADVERSE
p1117
sI1120
VANTICOAGULANTS
p1118
sI1121
VAUC
p1119
sI1122
VAlbuterol
p1120
sI1123
VAlso
p1121
sI1124
VAlternatively
p1122
sI1125
VAmphotericin
p1123
sI1126
VAnakinra
p1124
sI1127
VAnavar
p1125
sI1128
VAntiarrhythmics
p1126
sI1129
VAntimycobacterial
p1127
sI1130
VAntineoplastic
p1128
sI1131
VAntitubercular
p1129
sI1132
VApraclonidine
p1130
sI1133
VArthropan
p1131
sI1134
VAventyl
p1132
sI1135
VBARBITURATES
p1133
sI1136
VBIND
p1134
sI1137
VBPH
p1135
sI1138
VBoth
p1136
sI1139
VBound
p1137
sI1140
VBreast
p1138
sI1141
VBuprenorphine
p1139
sI1142
VCP9
p1140
sI1143
VCSF
p1141
sI1144
VCardiac
p1142
sI1145
VCaucasians
p1143
sI1146
VChlorprothixene
p1144
sI1147
VClofibric
p1145
sI1148
VCold
p1146
sI1149
VCombinations
p1147
sI1150
VContin
p1148
sI1151
VCorticotropin
p1149
sI1152
VCrohn
p1150
sI1153
VCuprimine
p1151
sI1154
VDESIRED
p1152
sI1155
VDNA
p1153
sI1156
VDoxepin
p1154
sI1157
VE
sI1158
VETOPOPHOS
p1155
sI1159
VEthyl
p1156
sI1160
VFOR
p1157
sI1161
VFat
p1158
sI1162
VFatalities
p1159
sI1163
VFortified
p1160
sI1164
VFuradantin
p1161
sI1165
VGlycosides
p1162
sI1166
VGrepafloxacin
p1163
sI1167
VHDL9
p1164
sI1168
VHERCEPTIN
p1165
sI1169
VHealthy
p1166
sI1170
VHematopoietic
p1167
sI1171
VHepatotoxic
p1168
sI1172
VHoFH
p1169
sI1173
VHormonal
p1170
sI1174
VIMITREX
p1171
sI1175
VINJECTION
p1172
sI1176
VIngestion
p1173
sI1177
VInterference
p1174
sI1178
VIronically
p1175
sI1179
VIsopto
p1176
sI1180
VIsozymes
p1177
sI1181
VJaffe
p1178
sI1182
VKey
p1179
sI1183
VKnown
p1180
sI1184
VLevels
p1181
sI1185
VMI
p1182
sI1186
VMazindol
p1183
sI1187
VMecamylamine
p1184
sI1188
VMetabolism
p1185
sI1189
VMicrodosed
p1186
sI1190
VMicroscopic
p1187
sI1191
VMinimal
p1188
sI1192
VMiochol
p1189
sI1193
VMultiple
p1190
sI1194
VMylotarg
p1191
sI1195
VNARCOTICS
p1192
sI1196
VNIDDM
p1193
sI1197
VNOTE
p1194
sI1198
VNSAID
p1195
sI1199
VNTG
p1196
sI1200
VNabilone
p1197
sI1201
VNeed
p1198
sI1202
VNeeded
p1199
sI1203
VNefazodone
p1200
sI1204
VNeoral
p1201
sI1205
VNervous
p1202
sI1206
VNifedipine
p1203
sI1207
VNimotop
p1204
sI1208
VNorpace
p1205
sI1209
VNucleoside
p1206
sI1210
VNutropin
p1207
sI1211
VO
sI1212
VOmniscan
p1208
sI1213
VOnset
p1209
sI1214
VOpioid
p1210
sI1215
VOral
p1211
sI1216
VOruvail
p1212
sI1217
VP9D9
p1213
sI1218
VPDE
p1214
sI1219
VPHENYTOIN
p1215
sI1220
VPHOTOFRIN
p1216
sI1221
VPK
p1217
sI1222
VPLASMA
p1218
sI1223
VPROCRIT
p1219
sI1224
VPROFOUND
p1220
sI1225
VPURINETHOL
p1221
sI1226
VParicalcitol
p1222
sI1227
VPentamidine
p1223
sI1228
VPertofrane
p1224
sI1229
VPhenothiazine
p1225
sI1230
VPrednisolone
p1226
sI1231
VPreliminary
p1227
sI1232
VPrevention
p1228
sI1233
VProton
p1229
sI1234
VProzac
p1230
sI1235
VQD
p1231
sI1236
VQuinamm
p1232
sI1237
VRIA
p1233
sI1238
VRabbits
p1234
sI1239
VRaloxifene
p1235
sI1240
VRead
p1236
sI1241
VReciprocal
p1237
sI1242
VRepeat
p1238
sI1243
VRibavirin
p1239
sI1244
VRimantadine
p1240
sI1245
VS
sI1246
VSALICYLIC
p1241
sI1247
VSEDATION
p1242
sI1248
VSIDE
p1243
sI1249
VSINCE
p1244
sI1250
VSPRYCEL
p1245
sI1251
VSR
p1246
sI1252
VSUPRAX
p1247
sI1253
VSerentil
p1248
sI1254
VSimvastatin
p1249
sI1255
VStroke
p1250
sI1256
VSynthesis
p1251
sI1257
VTCA
p1252
sI1258
VTID
p1253
sI1259
VTMP
p1254
sI1260
VTORADOLIV
p1255
sI1261
VTRANXENE
p1256
sI1262
VTREATED
p1257
sI1263
VTab
p1258
sI1264
VTell
p1259
sI1265
VThe
p1260
sI1266
VTheobromine
p1261
sI1267
VThiamine
p1262
sI1268
VTofranil
p1263
sI1269
VTosylate
p1264
sI1270
VTramadol
p1265
sI1271
VTriazolam
p1266
sI1272
VTrilostane
p1267
sI1273
VType
p1268
sI1274
VUncontrolled
p1269
sI1275
VVIGAMOX
p1270
sI1276
VVIOXX
p1271
sI1277
VVUMON
p1272
sI1278
VVaginal
p1273
sI1279
VVasoconstrictors
p1274
sI1280
VVasopressors
p1275
sI1281
VVasospastic
p1276
sI1282
VVecuronium
p1277
sI1283
VVenlafaxine
p1278
sI1284
VWarfarin
p1279
sI1285
VXR
p1280
sI1286
VXa
p1281
sI1287
VZmax
p1282
sI1288
Vabraded
p1283
sI1289
Vaccelerating
p1284
sI1290
Vacidifying
p1285
sI1291
Vactivities
p1286
sI1292
Vadding
p1287
sI1293
Vadditional
p1288
sI1294
Vadequately
p1289
sI1295
Vaggressive
p1290
sI1296
Valbuterol
p1291
sI1297
Valert
p1292
sI1298
Valmost
p1293
sI1299
Valthough
p1294
sI1300
Valveolar
p1295
sI1301
Vamine
p1296
sI1302
Vamong
p1297
sI1303
Vanesthesia
p1298
sI1304
Vanesthetic
p1299
sI1305
Vanidulafungin
p1300
sI1306
Vanileridine
p1301
sI1307
Vantagonist
p1302
sI1308
Vantibiotic
p1303
sI1309
Vanticholinergic
p1304
sI1310
Vantidiarrheal
p1305
sI1311
Vantigout
p1306
sI1312
Vantihistaminics
p1307
sI1313
Vantimyasthenics
p1308
sI1314
Vantiplatelet
p1309
sI1315
Vappear
p1310
sI1316
Vapt
p1311
sI1317
Varenot
p1312
sI1318
Varipiprazole
p1313
sI1319
Vaugmented
p1314
sI1320
Vavailability
p1315
sI1321
Vback
p1316
sI1322
Vbenazepril
p1317
sI1323
Vbenzodiazepines
p1318
sI1324
Vbile
p1319
sI1325
Vbinding
p1320
sI1326
Vbiologic
p1321
sI1327
Vblunted
p1322
sI1328
Vbruising
p1323
sI1329
Vcandesartan
p1324
sI1330
Vcarcinogenic
p1325
sI1331
Vcefprozil
p1326
sI1332
Vcellular
p1327
sI1333
Vchemotherapy
p1328
sI1334
Vchildren
p1329
sI1335
Vcholinergic
p1330
sI1336
Vciclesonide
p1331
sI1337
Vciprofloxacin
p1332
sI1338
Vcirculars
p1333
sI1339
Vcirculating
p1334
sI1340
Vclarithromycin
p1335
sI1341
Vclearly
p1336
sI1342
Vclobazam
p1337
sI1343
Vclotibrate
p1338
sI1344
Vclotting
p1339
sI1345
VcmaxSS
p1340
sI1346
Vcoat
p1341
sI1347
Vcollapse
p1342
sI1348
Vcommon
p1343
sI1349
Vcompassionate
p1344
sI1350
Vcomplete
p1345
sI1351
Vcompromise
p1346
sI1352
Vconivaptan
p1347
sI1353
Vconsistent
p1348
sI1354
Vconsisting
p1349
sI1355
Vcontact
p1350
sI1356
Vcontraction
p1351
sI1357
Vcontraindicated
p1352
sI1358
Vcorrect
p1353
sI1359
Vcreate
p1354
sI1360
Vcycles
p1355
sI1361
Vcytochrome
p1356
sI1362
Vcytochromes
p1357
sI1363
Vdays
p1358
sI1364
Vde
p1359
sI1365
Vdefinitely
p1360
sI1366
Vdefinitively
p1361
sI1367
Vdelivered
p1362
sI1368
Vdelivery
p1363
sI1369
Vdermatitis
p1364
sI1370
Vdesmethyldiazepam
p1365
sI1371
Vdetermining
p1366
sI1372
Vdiagnosed
p1367
sI1373
Vdiflunisal
p1368
sI1374
Vdiphenoxylate
p1369
sI1375
Vdipstick
p1370
sI1376
Vdisease
p1371
sI1377
Vdisopyramide
p1372
sI1378
Vdisplacing
p1373
sI1379
Vdisturbance
p1374
sI1380
Vdorsocervical
p1375
sI1381
Vdrowsiness
p1376
sI1382
Vdynamics
p1377
sI1383
Ve.g.
p1378
sI1384
Vefavirenz
p1379
sI1385
Veffectively
p1380
sI1386
Vemboli
p1381
sI1387
Vemergent
p1382
sI1388
Vemployed
p1383
sI1389
Venflurane
p1384
sI1390
Venoximone
p1385
sI1391
Vequivalent
p1386
sI1392
Verythema
p1387
sI1393
Verythrocytes
p1388
sI1394
Vethinamate
p1389
sI1395
Vethyl
p1390
sI1396
Vetodolac
p1391
sI1397
Vexaggerated
p1392
sI1398
Vexaggeration
p1393
sI1399
Vexisting
p1394
sI1400
Vextrapolating
p1395
sI1401
Vfailure
p1396
sI1402
Vfatal
p1397
sI1403
Vfelbamate
p1398
sI1404
Vfertility
p1399
sI1405
Vfoods
p1400
sI1406
Vganciclovir
p1401
sI1407
Vgeneralized
p1402
sI1408
Vgland
p1403
sI1409
Vglucocorticoid
p1404
sI1410
Vglycoside
p1405
sI1411
Vgrams
p1406
sI1412
Vgrouped
p1407
sI1413
Vgrowth
p1408
sI1414
Vhallucinations
p1409
sI1415
Vhalofantrine
p1410
sI1416
Vhave
p1411
sI1417
Vhormone
p1412
sI1418
Vhormones
p1413
sI1419
Vhttp
p1414
sI1420
Vhydoxide
p1415
sI1421
Vhydroxides
p1416
sI1422
Vhypercholesterolemic
p1417
sI1423
Vhyperreflexia
p1418
sI1424
Vhyperthyroidism
p1419
sI1425
Vhypo
p1420
sI1426
Vhypomania
p1421
sI1427
Vhypopro
p1422
sI1428
Vhypoprothrombinemia
p1423
sI1429
Vhysterectomy
p1424
sI1430
Vimatinib
p1425
sI1431
Vincluding
p1426
sI1432
Vinclusive
p1427
sI1433
Vincreasing
p1428
sI1434
Vindication
p1429
sI1435
Vinduce
p1430
sI1436
Vinfected
p1431
sI1437
Vingestion
p1432
sI1438
Vinhibiting
p1433
sI1439
Vinhibits
p1434
sI1440
Vinsecticide
p1435
sI1441
Vinsecticides
p1436
sI1442
Vinteraction
p1437
sI1443
Vinteractions
p1438
sI1444
Vintoxication
p1439
sI1445
Vintroduced
p1440
sI1446
Vintroduction
p1441
sI1447
Vintubating
p1442
sI1448
Vinvestigating
p1443
sI1449
Virritability
p1444
sI1450
Visradipine
p1445
sI1451
Vketone
p1446
sI1452
Vlactulose
p1447
sI1453
Vlevamisole
p1448
sI1454
Vlevetiracetam
p1449
sI1455
Vlike
p1450
sI1456
VmIU
p1451
sI1457
Vmacrolide
p1452
sI1458
Vmalaria
p1453
sI1459
Vmax
p1454
sI1460
Vmeasurement
p1455
sI1461
Vmeprobamate
p1456
sI1462
Vmetabolized
p1457
sI1463
Vmethylphenidate
p1458
sI1464
Vmethylprednisolone
p1459
sI1465
Vmethyltetrahydro
p1460
sI1466
Vmetyrapone
p1461
sI1467
Vmg
p1462
sI1468
Vmicrosome
p1463
sI1469
Vmidcycle
p1464
sI1470
Vmin
p1465
sI1471
Vmineral
p1466
sI1472
Vminimal
p1467
sI1473
Vminimized
p1468
sI1474
Vmiosis
p1469
sI1475
Vmisuse
p1470
sI1476
Vmodulation
p1471
sI1477
Vmonkeys
p1472
sI1478
Vmoribund
p1473
sI1479
Vmortality
p1474
sI1480
Vmultivitamin
p1475
sI1481
Vmusculoskeletal
p1476
sI1482
Vmutagenicity
p1477
sI1483
Vmutual
p1478
sI1484
Vmyelotoxic
p1479
sI1485
Vnaproxen
p1480
sI1486
Vnateglinide
p1481
sI1487
Vnational
p1482
sI1488
Vnecrolysis
p1483
sI1489
Vnecrosis
p1484
sI1490
Vneed
p1485
sI1491
Vneeded
p1486
sI1492
Vnew
p1487
sI1493
Vnonprescription
p1488
sI1494
Vnonsteroidal
p1489
sI1495
Vnor
p1490
sI1496
Vnorgestimate
p1491
sI1497
Vnose
p1492
sI1498
Vnosebleeds
p1493
sI1499
Vnotified
p1494
sI1500
Vobtained
p1495
sI1501
Voccurred
p1496
sI1502
Voff
p1497
sI1503
Vofthe
p1498
sI1504
Vointment
p1499
sI1505
Volsalazine
p1500
sI1506
Voperating
p1501
sI1507
Vossification
p1502
sI1508
Voverallactivity
p1503
sI1509
Vpaid
p1504
sI1510
Vparalytic
p1505
sI1511
Vpathway.9
p1506
sI1512
Vpeptic
p1507
sI1513
Vpeptide
p1508
sI1514
Vpergolide
p1509
sI1515
Vpersistent
p1510
sI1516
Vpharmacoktnetics
p1511
sI1517
Vphenylpropanolamine
p1512
sI1518
Vphosphorylated
p1513
sI1519
Vpimecrolimus
p1514
sI1520
V9A
p1515
sI1521
V9B9
p1516
sI1522
V9C9
p1517
sI1523
VA.C.
p1518
sI1524
VACETEST
p1519
sI1525
VAFTER
p1520
sI1526
VAIDS
p1521
sI1527
VALKERAN
p1522
sI1528
VALTABAX
p1523
sI1529
VANALGESICS
p1524
sI1530
VARB
p1525
sI1531
VAUTOHALER
p1526
sI1532
VAbciximab
p1527
sI1533
VAccelerated
p1528
sI1534
VAcellular
p1529
sI1535
VAcetate
p1530
sI1536
VAcquired
p1531
sI1537
VAdjustment
p1532
sI1538
VAffect
p1533
sI1539
VAffecting
p1534
sI1540
VAfter
p1535
sI1541
VAl
p1536
sI1542
VAllopurinol
p1537
sI1543
VAlosetron
p1538
sI1544
VAlprazolam
p1539
sI1545
VAlternatives
p1540
sI1546
VAmerican
p1541
sI1547
VAnalgesic
p1542
sI1548
VAnaprox
p1543
sI1549
VAnastrozole
p1544
sI1550
VAnimal
p1545
sI1551
VAntabuse
p1546
sI1552
VAntidiabetic
p1547
sI1553
VAntihypertensive
p1548
sI1554
VAntimyasthenics
p1549
sI1555
VAntiplatelet
p1550
sI1556
VAsubnormal
p1551
sI1557
VAzathioprine
p1552
sI1558
VBILTRICIDE
p1553
sI1559
VBenazepril
p1554
sI1560
VBenzthiazide
p1555
sI1561
VBio
p1556
sI1562
VCAMPTOSAR
p1557
sI1563
VCAN
p1558
sI1564
VCASODEX
p1559
sI1565
VCOLAZAL
p1560
sI1566
VCOMA
p1561
sI1567
VCONTRAINDICATED
p1562
sI1568
VCOPD
p1563
sI1569
VCOPEGUS
p1564
sI1570
VCYP9A9
p1565
sI1571
VCalcitonin
p1566
sI1572
VCarboplatin
p1567
sI1573
VCaspofungin
p1568
sI1574
VCation
p1569
sI1575
VCelexa
p1570
sI1576
VCerebyx
p1571
sI1577
VCerezyme
p1572
sI1578
VCevimeline
p1573
sI1579
VChemical
p1574
sI1580
VCholestytamine
p1575
sI1581
VCholine
p1576
sI1582
VClomipramine
p1577
sI1583
VCmin
p1578
sI1584
VColchicine
p1579
sI1585
VCompazine
p1580
sI1586
VContraceptive
p1581
sI1587
VConversion
p1582
sI1588
VCorrelative
p1583
sI1589
VCromolyn
p1584
sI1590
VDAYS
p1585
sI1591
VDEET
p1586
sI1592
VDOXIL
p1587
sI1593
VDate
p1588
sI1594
VDepen
p1589
sI1595
VDescarboethoxyloratadine
p1590
sI1596
VDesyrel
p1591
sI1597
VDexfenfluramine
p1592
sI1598
VDiabetics
p1593
sI1599
VDiagnosis
p1594
sI1600
VDisopyramide
p1595
sI1601
VDiuretics
p1596
sI1602
VDiuril
p1597
sI1603
VDivision
p1598
sI1604
VDofetilide
p1599
sI1605
VDosage
p1600
sI1606
VDoxorubicin
p1601
sI1607
VDronabinol
p1602
sI1608
VDrs
p1603
sI1609
VELLENCE
p1604
sI1610
VERYTHROMYCIN
p1605
sI1611
VETHYOL
p1606
sI1612
VEdema
p1607
sI1613
VElectrolyte
p1608
sI1614
VEllison
p1609
sI1615
VEnzymatic
p1610
sI1616
VEscherichia
p1611
sI1617
VEstablished
p1612
sI1618
VExaggerated
p1613
sI1619
VExample
p1614
sI1620
VExelon
p1615
sI1621
VFASLODEX
p1616
sI1622
VFU
p1617
sI1623
VFatal
p1618
sI1624
VFelbamate
p1619
sI1625
VFluconazole
p1620
sI1626
VFolic
p1621
sI1627
VFondaparinux
p1622
sI1628
VFortovase
p1623
sI1629
VGUARDIAN
p1624
sI1630
VGenerally
p1625
sI1631
VGlibenclamide
p1626
sI1632
VGreater
p1627
sI1633
VGuanethidine
p1628
sI1634
VH9
p1629
sI1635
VHCL
p1630
sI1636
VHYPNOTICS
p1631
sI1637
VHeinz
p1632
sI1638
VHepatotoxicity
p1633
sI1639
VHighly
p1634
sI1640
VHormone
p1635
sI1641
VHydrochlorothiazide
p1636
sI1642
VI
sI1643
VINCREASE
p1637
sI1644
VINCREASED
p1638
sI1645
VINDOCIN
p1639
sI1646
VINTERACTIONS
p1640
sI1647
VImipramine
p1641
sI1648
VImportant
p1642
sI1649
VImuran
p1643
sI1650
VInc.
p1644
sI1651
VIncreasing
p1645
sI1652
VInfluenza
p1646
sI1653
VInstances
p1647
sI1654
VInteracts
p1648
sI1655
VInvirase
p1649
sI1656
VIsoenzyme
p1650
sI1657
VJ
sI1658
VJnl
p1651
sI1659
VKaposi
p1652
sI1660
VKay
p1653
sI1661
VLEXAPRO
p1654
sI1662
VLarge
p1655
sI1663
VLethargy
p1656
sI1664
VLevothyroxine
p1657
sI1665
VLeydig
p1658
sI1666
VLittle
p1659
sI1667
VLofexidine
p1660
sI1668
VLosartan
p1661
sI1669
VLovastatin
p1662
sI1670
VLow
p1663
sI1671
VLymphocytopenia
p1664
sI1672
VMARINOL
p1665
sI1673
VMAXIPIME
p1666
sI1674
VMOBIC
p1667
sI1675
VMP
p1668
sI1676
VMYCAMINE
p1669
sI1677
VMaalox
p1670
sI1678
VMacrolide
p1671
sI1679
VMedicinal
p1672
sI1680
VMedrol
p1673
sI1681
VMeloxicam
p1674
sI1682
VMenstrual
p1675
sI1683
VMexitil
p1676
sI1684
VMicafungin
p1677
sI1685
VMisoprostol
p1678
sI1686
VMitomycin
p1679
sI1687
VMost
p1680
sI1688
VMotility
p1681
sI1689
VMuscle
p1682
sI1690
VNERVOUS
p1683
sI1691
VNEXAVAR
p1684
sI1692
VNIZORAL
p1685
sI1693
VNNRTIs
p1686
sI1694
VNOVANTRONE
p1687
sI1695
VNPH
p1688
sI1696
VNRTIs
p1689
sI1697
VNeuropathy
p1690
sI1698
VNicardipine
p1691
sI1699
VNote
p1692
sI1700
VOF
p1693
sI1701
VORAL
p1694
sI1702
VOcupress
p1695
sI1703
VOil
p1696
sI1704
VOintment
p1697
sI1705
VOpiate
p1698
sI1706
VOrganic
p1699
sI1707
VOrtho
p1700
sI1708
VOxandrolone
p1701
sI1709
VPA
p1702
sI1710
VPDT
p1703
sI1711
VPHENOTHIAZINES
p1704
sI1712
VPQQ
p1705
sI1713
VPRECEDEX
p1706
sI1714
VPROLEUKIN
p1707
sI1715
VPROSCAR
p1708
sI1716
VParoxetine
p1709
sI1717
VPeganone
p1710
sI1718
VPegaptanib
p1711
sI1719
VPenicillin
p1712
sI1720
VPenthrane
p1713
sI1721
VPerhexiline
p1714
sI1722
VPertechnetate
p1715
sI1723
VPharmacological
p1716
sI1724
VPhenergan
p1717
sI1725
VPhenothiazines
p1718
sI1726
VPhysiological
p1719
sI1727
VPotentially
p1720
sI1728
VPraziquantel
p1721
sI1729
VPrimidone
p1722
sI1730
VProAmatine
p1723
sI1731
VPronestyl
p1724
sI1732
VPyrazinamide
p1725
sI1733
VQT
p1726
sI1734
VQuinolones
p1727
sI1735
VREACTIONS
p1728
sI1736
VRESULT
p1729
sI1737
VREVLIMID
p1730
sI1738
VRITUXAN
p1731
sI1739
VRating
p1732
sI1740
VReduced
p1733
sI1741
VReduction
p1734
sI1742
VRegistered
p1735
sI1743
VReported
p1736
sI1744
VRitalin
p1737
sI1745
VRivastigmine
p1738
sI1746
VSAMe
p1739
sI1747
VSC
p1740
sI1748
VSTABILIZED
p1741
sI1749
VSUCH
p1742
sI1750
VSafety
p1743
sI1751
VSimulect
p1744
sI1752
VSinus
p1745
sI1753
VSodium
p1746
sI1754
VSparfloxacin
p1747
sI1755
VSpray
p1748
sI1756
VStelazine
p1749
sI1757
VStrip
p1750
sI1758
VSubstrate
p1751
sI1759
VSubstrates
p1752
sI1760
VSuch
p1753
sI1761
VSulfobromophthalein
p1754
sI1762
VSulfonylureas
p1755
sI1763
VSymptoms
p1756
sI1764
VSynkayvite
p1757
sI1765
VSyrup
p1758
sI1766
VSystem
p1759
sI1767
VT9
p1760
sI1768
VTAKE
p1761
sI1769
VTHC
p1762
sI1770
VTNKase
p1763
sI1771
VTOBI
p1764
sI1772
VTRANQUILIZERS
p1765
sI1773
VTSH
p1766
sI1774
VTelbivudine
p1767
sI1775
VTes
p1768
sI1776
VTetracyclines
p1769
sI1777
VTherapeutic
p1770
sI1778
VThis
p1771
sI1779
VThose
p1772
sI1780
VThyroid
p1773
sI1781
VTopamax
p1774
sI1782
VTricyclic
p1775
sI1783
VTrilafon
p1776
sI1784
VTubocurarine
p1777
sI1785
VTylenol
p1778
sI1786
VU9
p1779
sI1787
VUGT9A9
p1780
sI1788
VUROXATRAL
p1781
sI1789
VUntreated
p1782
sI1790
VVELCADE
p1783
sI1791
VValstar
p1784
sI1792
VVariability
p1785
sI1793
VVasoconstrictive
p1786
sI1794
VVia
p1787
sI1795
VVivactil
p1788
sI1796
VWHEN
p1789
sI1797
VWomen
p1790
sI1798
VYounger
p1791
sI1799
VZANOSAR
p1792
sI1800
Va
sI1801
Vabsorbent
p1793
sI1802
Vacamprosate
p1794
sI1803
Vaccording
p1795
sI1804
Vacetazolamide
p1796
sI1805
Vacromegaly
p1797
sI1806
Vactivate
p1798
sI1807
Vadjunctively
p1799
sI1808
Vadjust
p1800
sI1809
Vadjustment
p1801
sI1810
Vadministration
p1802
sI1811
Vadreneric
p1803
sI1812
Vaffinity
p1804
sI1813
Vagent
p1805
sI1814
Vaid
p1806
sI1815
Valdehyde
p1807
sI1816
Valdosterone
p1808
sI1817
Valefacept
p1809
sI1818
Valertness
p1810
sI1819
Valfentanil
p1811
sI1820
Valkaloid
p1812
sI1821
Valkylated
p1813
sI1822
Vallergens
p1814
sI1823
Vallergic
p1815
sI1824
Valternate
p1816
sI1825
Valternatively
p1817
sI1826
Valuminum
p1818
sI1827
Vameliorate
p1819
sI1828
Vamide
p1820
sI1829
Vamiloride
p1821
sI1830
Vaminobenzoic
p1822
sI1831
Vamphetamines
p1823
sI1832
Vanalgesia
p1824
sI1833
Vanalog
p1825
sI1834
Vanalogs
p1826
sI1835
Vanalyses
p1827
sI1836
Vanalysis
p1828
sI1837
Vanesthesiologist
p1829
sI1838
Vanhydrase
p1830
sI1839
Vanimal
p1831
sI1840
Vantacids
p1832
sI1841
Vantibacterials
p1833
sI1842
Vanticholinesterase
p1834
sI1843
Vanticholinesterases
p1835
sI1844
Vanticoagulahts
p1836
sI1845
Vanticoagulation
p1837
sI1846
Vantiemetic
p1838
sI1847
Vantiglaucoma
p1839
sI1848
Vantihypertensives
p1840
sI1849
Vantiinflammatory
p1841
sI1850
Vantipyrine
p1842
sI1851
Vapproach
p1843
sI1852
Vaprepitant
p1844
sI1853
Vareas
p1845
sI1854
Varm
p1846
sI1855
Varrhythmias
p1847
sI1856
Varrythmias
p1848
sI1857
Varterial
p1849
sI1858
Vastringents
p1850
sI1859
Vattenuation
p1851
sI1860
Vaugment
p1852
sI1861
Vbackground
p1853
sI1862
Vbear
p1854
sI1863
Vbegin
p1855
sI1864
Vbehind
p1856
sI1865
Vbelow
p1857
sI1866
Vbentoquatam
p1858
sI1867
Vbeta9
p1859
sI1868
Vbezafibrate
p1860
sI1869
Vbiguanides
p1861
sI1870
Vbiotransformation
p1862
sI1871
Vbirth
p1863
sI1872
Vbivalirudin
p1864
sI1873
Vbleeding
p1865
sI1874
Vblunt
p1866
sI1875
Vblunting
p1867
sI1876
Vboric
p1868
sI1877
Vbosentan
p1869
sI1878
Vbrain
p1870
sI1879
Vbreakfast
p1871
sI1880
Vbuprenorphine
p1872
sI1881
Vbutalbital
p1873
sI1882
Vby
p1874
sI1883
Vcapacity
p1875
sI1884
Vcapsule
p1876
sI1885
Vcarbenicillin
p1877
sI1886
Vcardiac
p1878
sI1887
Vcarotene
p1879
sI1888
Vcarrying
p1880
sI1889
Vcausation
p1881
sI1890
Vcausing
p1882
sI1891
Vcaution
p1883
sI1892
Vcautioned
p1884
sI1893
Vcautious
p1885
sI1894
Vcautiously
p1886
sI1895
Vcavity
p1887
sI1896
Vcells.9
p1888
sI1897
Vcellulitis
p1889
sI1898
Vcephalosporins
p1890
sI1899
Vcereals
p1891
sI1900
Vcharacterization
p1892
sI1901
Vchelating
p1893
sI1902
Vchemotherapeutic
p1894
sI1903
Vchiefly
p1895
sI1904
Vchloral
p1896
sI1905
Vchlorprothixene
p1897
sI1906
Vchromatographic
p1898
sI1907
Vchronic
p1899
sI1908
Vcime
p1900
sI1909
Vclear
p1901
sI1910
Vcohort
p1902
sI1911
Vcohosh
p1903
sI1912
Vcoli
p1904
sI1913
Vcollected
p1905
sI1914
Vcolon
p1906
sI1915
Vcoma
p1907
sI1916
Vcompared
p1908
sI1917
Vcompetes
p1909
sI1918
Vcompeting
p1910
sI1919
Vcompetitive
p1911
sI1920
Vconcurent
p1912
sI1921
Vconduction
p1913
sI1922
Vconductivity
p1914
sI1923
Vconfirmation
p1915
sI1924
Vconjugation
p1916
sI1925
Vconsequences
p1917
sI1926
Vcontinued
p1918
sI1927
Vcontribute
p1919
sI1928
Vconverted
p1920
sI1929
Vconverting
p1921
sI1930
Vcosmetics
p1922
sI1931
Vcotherapy
p1923
sI1932
Vcould
p1924
sI1933
Vcrisis
p1925
sI1934
Vcritically
p1926
sI1935
Vcycle
p1927
sI1936
Vcyclopropane
p1928
sI1937
Vcytostatic
p1929
sI1938
Vd
sI1939
Vd.a.u
p1930
sI1940
Vdangerous
p1931
sI1941
Vdaptomycin
p1932
sI1942
Vdatabase
p1933
sI1943
Vdecarboxylase
p1934
sI1944
Vdeclining
p1935
sI1945
Vdecreased
p1936
sI1946
Vdeeper
p1937
sI1947
Vdefine
p1938
sI1948
Vdeleterious
p1939
sI1949
Vdemonstrated
p1940
sI1950
Vdenotes
p1941
sI1951
Vdeoxy
p1942
sI1952
Vdepend
p1943
sI1953
Vdepending
p1944
sI1954
Vdepends
p1945
sI1955
Vdepressed
p1946
sI1956
Vderivatives
p1947
sI1957
Vdescribe
p1948
sI1958
Vdetectable
p1949
sI1959
Vdetected..
p1950
sI1960
Vdetermination
p1951
sI1961
Vdetoxification
p1952
sI1962
Vdetrimental
p1953
sI1963
Vdexamethasone
p1954
sI1964
Vdexrazoxane
p1955
sI1965
Vdextran
p1956
sI1966
Vdiabetes
p1957
sI1967
Vdiabetic
p1958
sI1968
Vdiabetics
p1959
sI1969
Vdiagnosis
p1960
sI1970
Vdictates
p1961
sI1971
Vdicumarol
p1962
sI1972
Vdifferent
p1963
sI1973
Vdigitoxin
p1964
sI1974
Vdigoxin
p1965
sI1975
Vdilatation
p1966
sI1976
Vdilute
p1967
sI1977
Vdiminish
p1968
sI1978
Vdiphenylhydantoin
p1969
sI1979
Vdiscontinuing
p1970
sI1980
Vdiscuss
p1971
sI1981
Vdivalent
p1972
sI1982
Vdivalproex
p1973
sI1983
Vdobutamine
p1974
sI1984
Vdosage
p1975
sI1985
Vdrinking
p1976
sI1986
Vdrowsy
p1977
sI1987
Vdryness
p1978
sI1988
Vdue
p1979
sI1989
Vdyskinesia
p1980
sI1990
Velevated
p1981
sI1991
Velevation
p1982
sI1992
Veleven
p1983
sI1993
Vemerge
p1984
sI1994
Vencephalopathic
p1985
sI1995
Venhancement
p1986
sI1996
Vensure
p1987
sI1997
Ventacapone
p1988
sI1998
Vepidermal
p1989
sI1999
Vepilepsy
p1990
sI2000
Vequal
p1991
sI2001
Vergocalciferol
p1992
sI2002
Verythromycins
p1993
sI2003
Vestablish
p1994
sI2004
Vestrogenic
p1995
sI2005
Veszopiclone
p1996
sI2006
Vethotoin
p1997
sI2007
Vevaluated
p1998
sI2008
Veven
p1999
sI2009
Vexacerbated
p2000
sI2010
Vexamined
p2001
sI2011
Vexcluded
p2002
sI2012
Vexcreted
p2003
sI2013
Vexfoliation
p2004
sI2014
Vexist
p2005
sI2015
Vexpected
p2006
sI2016
Vexperience
p2007
sI2017
Vexplored
p2008
sI2018
Vextremely
p2009
sI2019
Vfactor
p2010
sI2020
Vfalls
p2011
sI2021
Vfamily
p2012
sI2022
Vfar
p2013
sI2023
Vfaster
p2014
sI2024
Vfemales
p2015
sI2025
Vfenofibric
p2016
sI2026
Vfever
p2017
sI2027
Vfibrate
p2018
sI2028
Vflucon_cp.htm
p2019
sI2029
Vfluctuate
p2020
sI2030
Vfluoroquinolone
p2021
sI2031
Vfollow
p2022
sI2032
Vfortified
p2023
sI2033
Vfound
p2024
sI2034
Vfull
p2025
sI2035
Vfumarate
p2026
sI2036
Vfunction..
p2027
sI2037
Vfunctional
p2028
sI2038
Vfurafylline
p2029
sI2039
Vfuroate
p2030
sI2040
Vgammaherpes
p2031
sI2041
Vgas
p2032
sI2042
Vgastrointestinal
p2033
sI2043
Vgemifloxacin
p2034
sI2044
Vgender
p2035
sI2045
Vgerminal
p2036
sI2046
Vgestation
p2037
sI2047
Vglomerular
p2038
sI2048
Vglucose
p2039
sI2049
Vglutamine
p2040
sI2050
Vgout
p2041
sI2051
Vgroups
p2042
sI2052
Vguanethidine_od.htm
p2043
sI2053
Vguardians
p2044
sI2054
Vguidelines
p2045
sI2055
Vhabituating
p2046
sI2056
Vhaemorrhagic
p2047
sI2057
Vhalothane
p2048
sI2058
Vhard
p2049
sI2059
Vheavy
p2050
sI2060
Vhemostasis
p2051
sI2061
Vhence
p2052
sI2062
Vhepatotoxic
p2053
sI2063
Vhigh
p2054
sI2064
Vhistoricalcontrol
p2055
sI2065
Vhistory
p2056
sI2066
Vhour..
p2057
sI2067
Vhours
p2058
sI2068
Vhundredth
p2059
sI2069
Vhydroxyindoleacetic
p2060
sI2070
Vhydroxylamine
p2061
sI2071
Vhydroxyzine
p2062
sI2072
Vhyperglycemia
p2063
sI2073
Vhyperlactatemia
p2064
sI2074
Vhypermagnesemia
p2065
sI2075
Vibandronate
p2066
sI2076
Vill
p2067
sI2077
Vimbalance
p2068
sI2078
Vimmunoreactive
p2069
sI2079
Vimpeding
p2070
sI2080
Vimplant
p2071
sI2081
Vimplicated
p2072
sI2082
Vimproved
p2073
sI2083
Vinability
p2074
sI2084
Vinaccurately
p2075
sI2085
Vincluded
p2076
sI2086
Vincludes
p2077
sI2087
Vinconclusive
p2078
sI2088
Vinconsistent
p2079
sI2089
Vincoordination
p2080
sI2090
Vincrease
p2081
sI2091
Vincreased.Because
p2082
sI2092
Vindividual
p2083
sI2093
Vindomethacin
p2084
sI2094
Vinducible
p2085
sI2095
Vinduction
p2086
sI2096
Vineffective
p2087
sI2097
Vinfants
p2088
sI2098
Vinfluence
p2089
sI2099
Vinformation
p2090
sI2100
Vingested
p2091
sI2101
Vinsignificant
p2092
sI2102
Vinstituted
p2093
sI2103
Vinsulin
p2094
sI2104
Vintensity
p2095
sI2105
Vintermenstrual
p2096
sI2106
Vinterpreting
p2097
sI2107
Vintestines
p2098
sI2108
Vintrathecal
p2099
sI2109
Vintravesical
p2100
sI2110
Vintravitreal
p2101
sI2111
Vinvalidate
p2102
sI2112
Vinvestigated
p2103
sI2113
Vinvestigation
p2104
sI2114
Viodide
p2105
sI2115
Viodinated
p2106
sI2116
Viodine
p2107
sI2117
Vipratropium
p2108
sI2118
Vjustifies
p2109
sI2119
Vketogenic
p2110
sI2120
Vkidneys
p2111
sI2121
Vkill
p2112
sI2122
Vlabetalol
p2113
sI2123
Vlactamtype
p2114
sI2124
Vlaryngeal
p2115
sI2125
Vled
p2116
sI2126
Vlessen
p2117
sI2127
Vleveomepromazine
p2118
sI2128
Vlight
p2119
sI2129
Vlimited
p2120
sI2130
Vlimits
p2121
sI2131
Vlittle
p2122
sI2132
Vlome
p2123
sI2133
Vlong
p2124
sI2134
Vlopinavir
p2125
sI2135
Vlymphocytes
p2126
sI2136
Vlymphoid
p2127
sI2137
Vlysine
p2128
sI2138
VmMol
p2129
sI2139
Vmachinery
p2130
sI2140
Vmacrolides
p2131
sI2141
Vmainly
p2132
sI2142
Vmajor
p2133
sI2143
Vmanufacturers
p2134
sI2144
Vmarkedly
p2135
sI2145
Vmaximally
p2136
sI2146
Vmaximum
p2137
sI2147
Vmeal..
p2138
sI2148
Vmeaningful
p2139
sI2149
Vmeasured
p2140
sI2150
Vmechanisms
p2141
sI2151
Vmeclizine
p2142
sI2152
Vmediated
p2143
sI2153
Vmedication
p2144
sI2154
Vmellitus
p2145
sI2155
Vmentioned
p2146
sI2156
Vmeropenem
p2147
sI2157
Vmesalamine
p2148
sI2158
Vmetabolizer
p2149
sI2159
Vmethod
p2150
sI2160
Vmethylxanthines
p2151
sI2161
Vmetolazone
p2152
sI2162
Vmidazolam
p2153
sI2163
Vmilk
p2154
sI2164
Vmimic
p2155
sI2165
Vminimize
p2156
sI2166
Vminimizes
p2157
sI2167
Vminipill
p2158
sI2168
Vminor
p2159
sI2169
Vminoxidil
p2160
sI2170
Vmixture
p2161
sI2171
Vmm
p2162
sI2172
Vmodels
p2163
sI2173
Vmodified
p2164
sI2174
Vmononitrate
p2165
sI2175
Vmother
p2166
sI2176
Vmultipledose
p2167
sI2177
Vmultivalent
p2168
sI2178
Vmurine
p2169
sI2179
Vmuscular
p2170
sI2180
Vmy
p2171
sI2181
Vmyelosuppressive
p2172
sI2182
Vnabumetone
p2173
sI2183
Vnafarelin
p2174
sI2184
Vnaltrexol
p2175
sI2185
Vnear
p2176
sI2186
Vnefazodone
p2177
sI2187
Vnephropathy
p2178
sI2188
Vnephrotoxic
p2179
sI2189
Vneuromuscular
p2180
sI2190
Vnext
p2181
sI2191
Vno
p2182
sI2192
Vnode
p2183
sI2193
Vnon
p2184
sI2194
Vnonetheless
p2185
sI2195
Vnonhormonal
p2186
sI2196
Vnoticeably
p2187
sI2197
Vnumerous
p2188
sI2198
Vobstipation
p2189
sI2199
Voccasion
p2190
sI2200
Voctreotide
p2191
sI2201
Volder
p2192
sI2202
Volizers
p2193
sI2203
Volmesartan
p2194
sI2204
Von
p2195
sI2205
Vonto
p2196
sI2206
Vopioid
p2197
sI2207
Voptimal
p2198
sI2208
Vorange
p2199
sI2209
Vorders
p2200
sI2210
Vosteoporosis
p2201
sI2211
Votherwise
p2202
sI2212
Vover
p2203
sI2213
Voxi
p2204
sI2214
Voxidative
p2205
sI2215
Voxymetholone
p2206
sI2216
Voxyphenbutazone
p2207
sI2217
Vparathyroid
p2208
sI2218
Vpargyline
p2209
sI2219
Vpassages
p2210
sI2220
Vpattern
p2211
sI2221
Vpegvisomant
p2212
sI2222
Vpegylated
p2213
sI2223
Vperioperatively
p2214
sI2224
Vpharmacokinetits
p2215
sI2225
Vpharmacological
p2216
sI2226
Vphenylalanine
p2217
sI2227
Vphosphatases
p2218
sI2228
Vphosphate
p2219
sI2229
Vphosphokinase
p2220
sI2230
Vphospholipid
p2221
sI2231
Vphotosensitizing
p2222
sI2232
Vphysicians
p2223
sI2233
Vpink
p2224
sI2234
Vpituitary
p2225
sI2235
V(
sI2236
V9%
p2226
sI2237
V9C
p2227
sI2238
V9D9
p2228
sI2239
V9HIAA
p2229
sI2240
V9IIE9
p2230
sI2241
V9O
p2231
sI2242
V9OH
p2232
sI2243
V9h
p2233
sI2244
V9m
p2234
sI2245
V9mg
p2235
sI2246
V>
sI2247
VA.V
p2236
sI2248
VACEON
p2237
sI2249
VACR
p2238
sI2250
VADMINISTERING
p2239
sI2251
VADMINISTRATION
p2240
sI2252
VAED
p2241
sI2253
VAEDs
p2242
sI2254
VALIMTA
p2243
sI2255
VALLEGRA
p2244
sI2256
VAMERGE
p2245
sI2257
VAMP
p2246
sI2258
VAND
p2247
sI2259
VANTACID
p2248
sI2260
VANTIDEPRESSANTS
p2249
sI2261
VAPPROPRIATE
p2250
sI2262
VAPRD99_IN
p2251
sI2263
VAPTT
p2252
sI2264
VARAMINE
p2253
sI2265
VARE
p2254
sI2266
VARIMIDEX
p2255
sI2267
VASA
p2256
sI2268
VASPIRIN
p2257
sI2269
VATG
p2258
sI2270
VAUC9
p2259
sI2271
VAVASTIN
p2260
sI2272
VAXERT
p2261
sI2273
VAZA
p2262
sI2274
VAZOPT
p2263
sI2275
VAbsorption
p2264
sI2276
VAccutane
p2265
sI2277
VAcebutolol
p2266
sI2278
VAcetazolamide
p2267
sI2279
VAcetohydroxamic
p2268
sI2280
VAcidifying
p2269
sI2281
VAcitretin
p2270
sI2282
VActions
p2271
sI2283
VActive
p2272
sI2284
VAdditional
p2273
sI2285
VAdditives
p2274
sI2286
VAdenosine
p2275
sI2287
VAdequate
p2276
sI2288
VAdrenal
p2277
sI2289
VAdverse
p2278
sI2290
VAfrican
p2279
sI2291
VAgenerase
p2280
sI2292
VAgonist
p2281
sI2293
VAgonists
p2282
sI2294
VAlcohol
p2283
sI2295
VAlkalinizers
p2284
sI2296
VAlone
p2285
sI2297
VAlteration
p2286
sI2298
VAltered
p2287
sI2299
VAmbulatory
p2288
sI2300
VAmes
p2289
sI2301
VAmphetamines
p2290
sI2302
VAmylase
p2291
sI2303
VAnabolic
p2292
sI2304
VAnalogues
p2293
sI2305
VAnesthetics
p2294
sI2306
VAnother
p2295
sI2307
VAntacids
p2296
sI2308
VAntagonist
p2297
sI2309
VAnti
p2298
sI2310
VAntibiotics
p2299
sI2311
VAnticholinesterases
p2300
sI2312
VAnticonvulsants
p2301
sI2313
VAntidepressants
p2302
sI2314
VAntihypertensives
p2303
sI2315
VAntiinflammatory
p2304
sI2316
VAntiplatelets
p2305
sI2317
VAntipyrine
p2306
sI2318
VAntiretroviral
p2307
sI2319
VAntiviral
p2308
sI2320
VAny
p2309
sI2321
VAprepitant
p2310
sI2322
VAquaMEPHYTON
p2311
sI2323
VAranesp
p2312
sI2324
VAre
p2313
sI2325
VArecoline
p2314
sI2326
VAripiprazole
p2315
sI2327
VAs
p2316
sI2328
VAscorbic
p2317
sI2329
VAspergillus
p2318
sI2330
VAssays
p2319
sI2331
VAstramorph
p2320
sI2332
VAtomoxetine
p2321
sI2333
VAtromid
p2322
sI2334
VAvailable
p2323
sI2335
VAvoid
p2324
sI2336
VAyerst
p2325
sI2337
VAzole
p2326
sI2338
VAzulfidine
p2327
sI2339
VBETAGAN
p2328
sI2340
VBEXTRA
p2329
sI2341
VBLEEDING
p2330
sI2342
VBLOOD
p2331
sI2343
VBROVANA
p2332
sI2344
VBUN
p2333
sI2345
VBUSULFEX
p2334
sI2346
VBactericidal
p2335
sI2347
VBacteriostatic
p2336
sI2348
VBactrim
p2337
sI2349
VBarbiturates
p2338
sI2350
VBased
p2339
sI2351
VBasis
p2340
sI2352
VBe
p2341
sI2353
VBefore
p2342
sI2354
VBenedicts
p2343
sI2355
VBenzodiazepines
p2344
sI2356
VBenzyl
p2345
sI2357
VBenzylpenicillin
p2346
sI2358
VBeta
p2347
sI2359
VBetween
p2348
sI2360
VBexarotene
p2349
sI2361
VBinding
p2350
sI2362
VBiogen
p2351
sI2363
VBismol
p2352
sI2364
VBisphosphonates
p2353
sI2365
VBlockers
p2354
sI2366
VBlocking
p2355
sI2367
VBone
p2356
sI2368
VBoric
p2357
sI2369
VBosentan
p2358
sI2370
VBreakthrough
p2359
sI2371
VBretylium
p2360
sI2372
VBromocriptine
p2361
sI2373
VBy
p2362
sI2374
VC.P.A
p2363
sI2375
VC9hr
p2364
sI2376
VCBZ
p2365
sI2377
VCEFOTAN
p2366
sI2378
VCHOLESTYRAMINE
p2367
sI2379
VCI
p2368
sI2380
VCIMETlDINE
p2369
sI2381
VCLINISTIX
p2370
sI2382
VCLOLAR
p2371
sI2383
VCMI
p2372
sI2384
VCMV
p2373
sI2385
VCNS
p2374
sI2386
VCOAGULATION
p2375
sI2387
VCOLESTID
p2376
sI2388
VCOMPLICATIONS
p2377
sI2389
VCOMT
p2378
sI2390
VCONCOMITANT
p2379
sI2391
VCONGENERS
p2380
sI2392
VCONJUNCTION
p2381
sI2393
VCONTINUING
p2382
sI2394
VCYP9
p2383
sI2395
VCYP9A
p2384
sI2396
VCYP9D9
p2385
sI2397
VCYP9E9
p2386
sI2398
VCYP9s
p2387
sI2399
VCaffeine
p2388
sI2400
VCalcidiol
p2389
sI2401
VCalcitriol
p2390
sI2402
VCalcium
p2391
sI2403
VCan
p2392
sI2404
VCapsules
p2393
sI2405
VCarbamazepine
p2394
sI2406
VCarboptic
p2395
sI2407
VCarcinogenesis
p2396
sI2408
VCardiovascular
p2397
sI2409
VCare
p2398
sI2410
VCareful
p2399
sI2411
VCataflam
p2400
sI2412
VCaverject
p2401
sI2413
VCefizox
p2402
sI2414
VCelontin
p2403
sI2415
VCentral
p2404
sI2416
VCerivastatin
p2405
sI2417
VCertain
p2406
sI2418
VCerubidine
p2407
sI2419
VChannel
p2408
sI2420
VCheck
p2409
sI2421
VChloral
p2410
sI2422
VChloramphenicol
p2411
sI2423
VChloromycetin
p2412
sI2424
VChlorthalidone
p2413
sI2425
VChoose
p2414
sI2426
VChromatogr
p2415
sI2427
VChronic
p2416
sI2428
VCiel
p2417
sI2429
VCimetidine
p2418
sI2430
VCitalopram
p2419
sI2431
VClearance
p2420
sI2432
VClidinium
p2421
sI2433
VClindamycin
p2422
sI2434
VClinistix
p2423
sI2435
VClonazepam
p2424
sI2436
VClonidine
p2425
sI2437
VClozapine
p2426
sI2438
VCmax
p2427
sI2439
VCo
p2428
sI2440
VCoadministered
p2429
sI2441
VCoadministration
p2430
sI2442
VCoadminstration
p2431
sI2443
VCoagulation
p2432
sI2444
VCodeine
p2433
sI2445
VComment
p2434
sI2446
VCommonly
p2435
sI2447
VCompany
p2436
sI2448
VConfidence
p2437
sI2449
VConflicting
p2438
sI2450
VCongestive
p2439
sI2451
VConsequently
p2440
sI2452
VConsider
p2441
sI2453
VConsideration
p2442
sI2454
VContaining
p2443
sI2455
VContinuous
p2444
sI2456
VContrast
p2445
sI2457
VCoombs
p2446
sI2458
VCordarone
p2447
sI2459
VCorresponding
p2448
sI2460
VCount
p2449
sI2461
VCrohns
p2450
sI2462
VCss
p2451
sI2463
VCurrently
p2452
sI2464
VCyclophosphamide
p2453
sI2465
VCyclopropane
p2454
sI2466
VCyclosporin
p2455
sI2467
VCyclosporine
p2456
sI2468
VCytokines
p2457
sI2469
VD.H.E
p2458
sI2470
VD9
p2459
sI2471
VDEA
p2460
sI2472
VDEFINITELY
p2461
sI2473
VDEPRESSANTS
p2462
sI2474
VDEPRESSION
p2463
sI2475
VDFUR
p2464
sI2476
VDHA
p2465
sI2477
VDIABINESE
p2466
sI2478
VDILAUDID
p2467
sI2479
VDISALCID
p2468
sI2480
VDOSAGE
p2469
sI2481
VDOSTINEX
p2470
sI2482
VDRUG
p2471
sI2483
VDRUGS
p2472
sI2484
VDanazol
p2473
sI2485
VDantrolene
p2474
sI2486
VDapsone
p2475
sI2487
VDasatinib
p2476
sI2488
VDays
p2477
sI2489
VDeferasirox
p2478
sI2490
VDelayed
p2479
sI2491
VDelivery
p2480
sI2492
VDeltasone
p2481
sI2493
VDepending
p2482
sI2494
VDextromethorphan
p2483
sI2495
VDiarrhea
p2484
sI2496
VDiasone
p2485
sI2497
VDiazepam
p2486
sI2498
VDiazoxide
p2487
sI2499
VDifferences
p2488
sI2500
VDiflunisal
p2489
sI2501
VDigitalis
p2490
sI2502
VDihydroergotamine
p2491
sI2503
VDilantin
p2492
sI2504
VDiltiazem
p2493
sI2505
VDimenhydrinate
p2494
sI2506
VDiphenhydramine
p2495
sI2507
VDipyridamole
p2496
sI2508
VDiscontinuation
p2497
sI2509
VDiscontinuing
p2498
sI2510
VDisintegrating
p2499
sI2511
VDispersible
p2500
sI2512
VDisulfiram
p2501
sI2513
VDo
p2502
sI2514
VDolasetron
p2503
sI2515
VDosing
p2504
sI2516
VDrug
p2505
sI2517
VE9
p2506
sI2518
VEDECRIN
p2507
sI2519
VEDTA
p2508
sI2520
VEE
p2509
sI2521
VEIA
p2510
sI2522
VELOXATIN
p2511
sI2523
VELSPAR
p2512
sI2524
VEMs
p2513
sI2525
VENABLEX
p2514
sI2526
VEPA
p2515
sI2527
VEPHESUS
p2516
sI2528
VEQUETROTM
p2517
sI2529
VERBITUX
p2518
sI2530
VERGAMISOL
p2519
sI2531
VERGOMAR
p2520
sI2532
VEULEXIN
p2521
sI2533
VEXERCISED
p2522
sI2534
VEXTREME
p2523
sI2535
VEach
p2524
sI2536
VEffects
p2525
sI2537
VEfficacy
p2526
sI2538
VEhrlich
p2527
sI2539
VElavil
p2528
sI2540
VElevations
p2529
sI2541
VElidel
p2530
sI2542
VEnalapril
p2531
sI2543
VEnhancing
p2532
sI2544
VEnoxaparin
p2533
sI2545
VEnteric
p2534
sI2546
VEpidemiological
p2535
sI2547
VEpidural
p2536
sI2548
VEpinephrine
p2537
sI2549
VEplerenone
p2538
sI2550
VErgot
p2539
sI2551
VErgotamine
p2540
sI2552
VErythromycin
p2541
sI2553
VEstazolam
p2542
sI2554
VEthanol
p2543
sI2555
VEthinyl
p2544
sI2556
VEthosuximide
p2545
sI2557
VEthotoin
p2546
sI2558
VEthoxzolamide
p2547
sI2559
VEtomidate
p2548
sI2560
VEtonogestrel
p2549
sI2561
VEtretinate
p2550
sI2562
VEuropean
p2551
sI2563
VEven
p2552
sI2564
VEvery
p2553
sI2565
VEvidence
p2554
sI2566
VExemestane
p2555
sI2567
VExert
p2556
sI2568
VExposure
p2557
sI2569
VEye
p2558
sI2570
VEzetimibe
p2559
sI2571
VFACTIVE
p2560
sI2572
VFDA
p2561
sI2573
VFELDENE
p2562
sI2574
VFINDINGS
p2563
sI2575
VFLEXERIL
p2564
sI2576
VFLOMAX
p2565
sI2577
VFORADIL
p2566
sI2578
VFREQUENT
p2567
sI2579
VFactor
p2568
sI2580
VFailure
p2569
sI2581
VFamilial
p2570
sI2582
VFeSO9
p2571
sI2583
VFelbatol
p2572
sI2584
VFelodipine
p2573
sI2585
VFenfluramine
p2574
sI2586
VFenofibrate
p2575
sI2587
VFentanyl
p2576
sI2588
VFertility
p2577
sI2589
VFibric
p2578
sI2590
VFifteen
p2579
sI2591
VFinasteride
p2580
sI2592
VFloxuridine
p2581
sI2593
VFlucytosine
p2582
sI2594
VFluoroquinolones
p2583
sI2595
VFluoxetine
p2584
sI2596
VFlurbiprofen
p2585
sI2597
VFluvoxamine
p2586
sI2598
VFollowing
p2587
sI2599
VFood
p2588
sI2600
VFor
p2589
sI2601
VFormal
p2590
sI2602
VFoscarnet
p2591
sI2603
VFree
p2592
sI2604
VFulvestrant
p2593
sI2605
VFunction
p2594
sI2606
VFurosemide
p2595
sI2607
VGABITRIL
p2596
sI2608
VGENERAL
p2597
sI2609
VGH
p2598
sI2610
VGI
p2599
sI2611
VGantanol
p2600
sI2612
VGastric
p2601
sI2613
VGastrointestinal
p2602
sI2614
VGemzar
p2603
sI2615
VGenentech
p2604
sI2616
VGenitourinary
p2605
sI2617
VGentamicin
p2606
sI2618
VGeocillin
p2607
sI2619
VGeref
p2608
sI2620
VGlucocorticoid
p2609
sI2621
VGlycoprotein
p2610
sI2622
VGold
p2611
sI2623
VGrade
p2612
sI2624
VGrapefruit
p2613
sI2625
VGriseofulvin
p2614
sI2626
VH
sI2627
VHACA
p2615
sI2628
VHAMA
p2616
sI2629
VHAS
p2617
sI2630
VHDAC
p2618
sI2631
VHEMABATE
p2619
sI2632
VHERB
p2620
sI2633
VHEXALEN
p2621
sI2634
VHIV
p2622
sI2635
VHMG
p2623
sI2636
VHOUR
p2624
sI2637
VHUMORSOL
p2625
sI2638
VHYPOTENSION
p2626
sI2639
VHalothane
p2627
sI2640
VHave
p2628
sI2641
VHaving
p2629
sI2642
VHematology
p2630
sI2643
VHemostasis
p2631
sI2644
VHerb
p2632
sI2645
VHowever
p2633
sI2646
VHyaluronidase
p2634
sI2647
VHydroxychloroquine
p2635
sI2648
VHydroxydesloratadine
p2636
sI2649
VHypericum
p2637
sI2650
VHypertensive
p2638
sI2651
VI.V
p2639
sI2652
VI9
p2640
sI2653
VIA
p2641
sI2654
VIGF
p2642
sI2655
VIIIA9
p2643
sI2656
VIIIa
p2644
sI2657
VIIb
p2645
sI2658
VINAPSINE
p2646
sI2659
VINCLUDING
p2647
sI2660
VINITIATION
p2648
sI2661
VINOmax
p2649
sI2662
VINR
p2650
sI2663
VINTERFERENCE
p2651
sI2664
VINVEGA
p2652
sI2665
VIOP
p2653
sI2666
VIS
p2654
sI2667
VISIS
p2655
sI2668
VIU
p2656
sI2669
VIV
p2657
sI2670
VIX
p2658
sI2671
VIbandronate
p2659
sI2672
VIf
p2660
sI2673
VIgA
p2661
sI2674
VImmunologic
p2662
sI2675
VImmunosuppressive
p2663
sI2676
VImmunosuppressives
p2664
sI2677
VImpaired
p2665
sI2678
VImplant
p2666
sI2679
VIncluding
p2667
sI2680
VIncreased
p2668
sI2681
VIncreases
p2669
sI2682
VIndex
p2670
sI2683
VInhibitor
p2671
sI2684
VInhibitors
p2672
sI2685
VInhibits
p2673
sI2686
VInjectable
p2674
sI2687
VInjectionSite
p2675
sI2688
VInsulin
p2676
sI2689
VInsulins
p2677
sI2690
VIntensified
p2678
sI2691
VInterations
p2679
sI2692
VInterconversion
p2680
sI2693
VInterfere
p2681
sI2694
VInterferences
p2682
sI2695
VInterferes
p2683
sI2696
VInterferon
p2684
sI2697
VInternational
p2685
sI2698
VIntestinal
p2686
sI2699
VIntracellular
p2687
sI2700
VInvestigations
p2688
sI2701
VInvolving
p2689
sI2702
VIodide
p2690
sI2703
VIodinated
p2691
sI2704
VIron
p2692
sI2705
VIs
p2693
sI2706
VIsmelin
p2694
sI2707
VIt
p2695
sI2708
VItraconazole
p2696
sI2709
VK
sI2710
VKEMSTRO
p2697
sI2711
VKERASTICK
p2698
sI2712
VKETOSTIX
p2699
sI2713
VKS
p2700
sI2714
VKT
p2701
sI2715
VKetorolac
p2702
sI2716
VKetostix
p2703
sI2717
VKilled
p2704
sI2718
VKineret
p2705
sI2719
VKit
p2706
sI2720
VL9
p2707
sI2721
VLA
p2708
sI2722
VLABORATORY
p2709
sI2723
VLEAD
p2710
sI2724
VLEAST
p2711
sI2725
VLEUSTATIN
p2712
sI2726
VLEVELS
p2713
sI2727
VLH
p2714
sI2728
VLNG
p2715
sI2729
VLODOSYN
p2716
sI2730
VLUCENTIS
p2717
sI2731
VLabor
p2718
sI2732
VLaboratoryTest
p2719
sI2733
VLamivudine
p2720
sI2734
VLanoxicaps
p2721
sI2735
VLapatinib
p2722
sI2736
VLeucovorin
p2723
sI2737
VLeukine
p2724
sI2738
VLeukocyte
p2725
sI2739
VLevel
p2726
sI2740
VLevetiracetam
p2727
sI2741
VLevodopa
p2728
sI2742
VLevofloxacin
p2729
sI2743
VLike
p2730
sI2744
VLincomycin
p2731
sI2745
VLipids
p2732
sI2746
VLipitor
p2733
sI2747
VLithium
p2734
sI2748
VLodine
p2735
sI2749
VLomefloxacin
p2736
sI2750
VLong
p2737
sI2751
VLopinavir
p2738
sI2752
VLopressor
p2739
sI2753
VLotensin
p2740
sI2754
VLower
p2741
sI2755
VM
sI2756
VM.C
p2742
sI2757
VMAINTAIN
p2743
sI2758
VMAO
p2744
sI2759
VMAOI
p2745
sI2760
VMAXAIR
p2746
sI2761
VMAY
p2747
sI2762
VMETROGEL
p2748
sI2763
VMEXITIL
p2749
sI2764
VMIDAMOR
p2750
sI2765
VMPAG
p2751
sI2766
VMS
p2752
sI2767
VMTX
p2753
sI2768
VMYOBLOC
p2754
sI2769
VMacrolides
p2755
sI2770
VMagan
p2756
sI2771
VMean
p2757
sI2772
VMefloquine
p2758
sI2773
VMefloquineuine
p2759
sI2774
VMelatonin
p2760
sI2775
VMeperidine
p2761
sI2776
VMephenytoin
p2762
sI2777
VMercaptopurine
p2763
sI2778
VMetabolized
p2764
sI2779
VMethadonea
p2765
sI2780
VMethazolamide
p2766
sI2781
VMethenamine
p2767
sI2782
VMethergine
p2768
sI2783
VMethionine
p2769
sI2784
VMethotrexate
p2770
sI2785
VMethyldopa
p2771
sI2786
VMethylprednisolone
p2772
sI2787
VMethylxanthines
p2773
sI2788
VMexate
p2774
sI2789
VMilk
p2775
sI2790
VMineral
p2776
sI2791
VMithracin
p2777
sI2792
VMitotane
p2778
sI2793
VMitoxantrone
p2779
sI2794
VMixing
p2780
sI2795
VMixtures
p2781
sI2796
VMolt
p2782
sI2797
VMonitor
p2783
sI2798
VMonitoring
p2784
sI2799
VMore
p2785
sI2800
VMoreover
p2786
sI2801
VMorphine
p2787
sI2802
VMothers
p2788
sI2803
VMotrin
p2789
sI2804
VMultivalent
p2790
sI2805
VMultivitamins
p2791
sI2806
VMycophenolate
p2792
sI2807
VMyelopoesis
p2793
sI2808
VMyocardial
p2794
sI2809
VNIMBEX
p2795
sI2810
VNS
p2796
sI2811
VNSAIDS
p2797
sI2812
VNSCLC
p2798
sI2813
VNalidixic
p2799
sI2814
VName
p2800
sI2815
VNarcotics
p2801
sI2816
VNasal
p2802
sI2817
VNateglinide
p2803
sI2818
VNephrotoxic
p2804
sI2819
VNephrotoxicity
p2805
sI2820
VNetilmicin
p2806
sI2821
VNeuromuscular
p2807
sI2822
VNeurontin
p2808
sI2823
VNevirapine
p2809
sI2824
VNicotine
p2810
sI2825
VNimodipine
p2811
sI2826
VNitrates
p2812
sI2827
VNitrofurantoin
p2813
sI2828
VNondepolarizing
p2814
sI2829
VNonsteroidal
p2815
sI2830
VNorepinephrine
p2816
sI2831
VNorethindrone
p2817
sI2832
VNormal
p2818
sI2833
VNorth
p2819
sI2834
VNorvir
p2820
sI2835
VNotably
p2821
sI2836
VNovum
p2822
sI2837
VNutraceutical
p2823
sI2838
VOMNICEF
p2824
sI2839
VON
p2825
sI2840
VOR
p2826
sI2841
VOccasionally
p2827
sI2842
VOf
p2828
sI2843
VOils
p2829
sI2844
VOlanzapine
p2830
sI2845
VOlmesartan
p2831
sI2846
VOmeprazole
p2832
sI2847
VOnce
p2833
sI2848
VOndansetron
p2834
sI2849
VOphthalmic
p2835
sI2850
VOpioids
p2836
sI2851
VOrally
p2837
sI2852
VOrthostatic
p2838
sI2853
VOrudis
p2839
sI2854
VOthers
p2840
sI2855
VOxcarbazepine
p2841
sI2856
VP
sI2857
VP9
p2842
sI2858
VPCI
p2843
sI2859
VPEG
p2844
sI2860
VPEGASYS
p2845
sI2861
VPLENDIL
p2846
sI2862
VPMs
p2847
sI2863
VPPIs
p2848
sI2864
VPR
p2849
sI2865
VPRA
p2850
sI2866
VPREVENT
p2851
sI2867
VPRINIVIL
p2852
sI2868
VPRIOR
p2853
sI2869
VPROSTIN
p2854
sI2870
VPROTHROMBIN
p2855
sI2871
VPTH
p2856
sI2872
VPaclitaxel
p2857
sI2873
VPaliperidone
p2858
sI2874
VPalonosetron
p2859
sI2875
VPanretin
p2860
sI2876
VParalytic
p2861
sI2877
VParnate
p2862
sI2878
VPatient
p2863
sI2879
VPediapred
p2864
sI2880
VPediatrics
p2865
sI2881
VPerioperative
p2866
sI2882
VPermax
p2867
sI2883
VPermitil
p2868
sI2884
VPgp
p2869
sI2885
VPharmacokinetics
p2870
sI2886
VPhenobarbital
p2871
sI2887
VPhenurone
p2872
sI2888
VPhenylbutazone
p2873
sI2889
VPhenytoin
p2874
sI2890
VPhosphate
p2875
sI2891
VPiperacillin
p2876
sI2892
VPneumocystis
p2877
sI2893
VPoor
p2878
sI2894
VPorter
p2879
sI2895
VPotent
p2880
sI2896
VPotential
p2881
sI2897
VPre
p2882
sI2898
VPrednisone
p2883
sI2899
VPregnancies
p2884
sI2900
VPreparations
p2885
sI2901
VPrescribers
p2886
sI2902
VPresence
p2887
sI2903
VPretreatment
p2888
sI2904
VPrimaquine
p2889
sI2905
VProSom
p2890
sI2906
VProbenecid
p2891
sI2907
VProduct
p2892
sI2908
VProducts
p2893
sI2909
VProfound
p2894
sI2910
VPromethazine
p2895
sI2911
VPropanolol
p2896
sI2912
VProquin
p2897
sI2913
VProtease
p2898
sI2914
VProvided
p2899
sI2915
VPsychiatric
p2900
sI2916
VPyrantel
p2901
sI2917
VQ9h
p2902
sI2918
VQRS
p2903
sI2919
VQT9
p2904
sI2920
VR
sI2921
VRA
p2905
sI2922
VRAPTIVA
p2906
sI2923
VREFERENCES
p2907
sI2924
VREFLUDAN
p2908
sI2925
VREVIA
p2909
sI2926
VRISE
p2910
sI2927
VROMAZICON
p2911
sI2928
VRacemic
p2912
sI2929
VRad
p2913
sI2930
VRadiation
p2914
sI2931
VRanitidine
p2915
sI2932
VRare
p2916
sI2933
VRatio
p2917
sI2934
VRebif
p2918
sI2935
VReceptor
p2919
sI2936
VRecommended
p2920
sI2937
VRecurrence
p2921
sI2938
VReductase
p2922
sI2939
VRefer
p2923
sI2940
VRegimen
p2924
sI2941
VRelafen
p2925
sI2942
VRelease
p2926
sI2943
VRenal
p2927
sI2944
VRenin
p2928
sI2945
VReports
p2929
sI2946
VRequire
p2930
sI2947
VResearch
p2931
sI2948
VResins
p2932
sI2949
VReuptake
p2933
sI2950
VReverse
p2934
sI2951
VReversible
p2935
sI2952
VRifadin
p2936
sI2953
VRifamate
p2937
sI2954
VRobinul
p2938
sI2955
VRocaltrol
p2939
sI2956
VRofecoxib
p2940
sI2957
VS.D
p2941
sI2958
VSALICYLATE
p2942
sI2959
VSGPT
p2943
sI2960
VSPIRIVA
p2944
sI2961
VSSRI
p2945
sI2962
VSULAR
p2946
sI2963
VSUSTIVA
p2947
sI2964
VSUSTIVAb
p2948
sI2965
VSUTENT
p2949
sI2966
VSYMLIN
p2950
sI2967
VSYNAREL
p2951
sI2968
VSalicylic
p2952
sI2969
VSanctura
p2953
sI2970
VSandimmune
p2954
sI2971
VScale
p2955
sI2972
VSecretion
p2956
sI2973
VSectral
p2957
sI2974
VSeizures
p2958
sI2975
VSerious
p2959
sI2976
VSevere
p2960
sI2977
VShort
p2961
sI2978
VSignificant
p2962
sI2979
VSimilar
p2963
sI2980
VSj
p2964
sI2981
VSkeletal
p2965
sI2982
VSkin
p2966
sI2983
VSolTab
p2967
sI2984
VSolganal
p2968
sI2985
VSome
p2969
sI2986
VSorafenib
p2970
sI2987
VSoriatane
p2971
sI2988
VSotradecol
p2972
sI2989
VSt
p2973
sI2990
VSt.
p2974
sI2991
VStandard
p2975
sI2992
VStarlix
p2976
sI2993
VStatins
p2977
sI2994
VStavudine
p2978
sI2995
VStevens
p2979
sI2996
VStreptase
p2980
sI2997
VStreptokinase
p2981
sI2998
VStreptozocin
p2982
sI2999
VStudies
p2983
sI3000
VSubjects
p2984
sI3001
VSublingual
p2985
sI3002
VSubstantial
p2986
sI3003
VSulfamethizole
p2987
sI3004
VSulfapyridine
p2988
sI3005
VSulfonamides
p2989
sI3006
VSumatriptan
p2990
sI3007
VSummary
p2991
sI3008
VSuppositories
p2992
sI3009
VSupraventricular
p2993
sI3010
VSurmontil
p2994
sI3011
VSympathomimetic
p2995
sI3012
VSympathomimetics
p2996
sI3013
VSynergism
p2997
sI3014
VSystemic
p2998
sI3015
VSystems
p2999
sI3016
VT.A
p3000
sI3017
VTABLE
p3001
sI3018
VTABLOID
p3002
sI3019
VTARCEVA
p3003
sI3020
VTBg
p3004
sI3021
VTCA9
p3005
sI3022
VTES
p3006
sI3023
VTEST
p3007
sI3024
VTHAT
p3008
sI3025
VTHERAPY
p3009
sI3026
VTHOSE
p3010
sI3027
VTIME
p3011
sI3028
VTO
p3012
sI3029
VTOLECTIN
p3013
sI3030
VTORADOL
p3014
sI3031
VTORADOLORAL
p3015
sI3032
VTPMT
p3016
sI3033
VTRACRIUM
p3017
sI3034
VTRICYCLIC
p3018
sI3035
VTWO
p3019
sI3036
VTXB9
p3020
sI3037
VTables
p3021
sI3038
VTacrolimus
p3022
sI3039
VTagamet
p3023
sI3040
VTalk
p3024
sI3041
VTargretin
p3025
sI3042
VTegison
p3026
sI3043
VTelithromycin
p3027
sI3044
VTen
p3028
sI3045
VTenecteplase
p3029
sI3046
VTesticular
p3030
sI3047
VThalidomide
p3031
sI3048
VTheir
p3032
sI3049
VTheo
p3033
sI3050
VTheoretically
p3034
sI3051
VTherapy
p3035
sI3052
VThere
p3036
sI3053
VTherophylline
p3037
sI3054
VThiazide
p3038
sI3055
VThioridazine
p3039
sI3056
VThorazine
p3040
sI3057
VThough
p3041
sI3058
VThree
p3042
sI3059
VThreshold
p3043
sI3060
VThrombolytic
p3044
sI3061
VTiazac
p3045
sI3062
VTilade
p3046
sI3063
VTissue
p3047
sI3064
VTizoxanide
p3048
sI3065
VTolbutamides
p3049
sI3066
VTotal
p3050
sI3067
VToxicity
p3051
sI3068
VToxicologic
p3052
sI3069
VToxicology
p3053
sI3070
VTransient
p3054
sI3071
VTransport
p3055
sI3072
VTreatment
p3056
sI3073
VTrecator
p3057
sI3074
VTrileptal
p3058
sI3075
VTrilisate
p3059
sI3076
VTriprolidine
p3060
sI3077
VTrough
p3061
sI3078
VTubular
p3062
sI3079
VTumor
p3063
sI3080
VTwelve
p3064
sI3081
VTwo
p3065
sI3082
VUDPGT
p3066
sI3083
VUGT
p3067
sI3084
VUNIVASC
p3068
sI3085
VUltram
p3069
sI3086
VUnder
p3070
sI3087
VUnfortunately
p3071
sI3088
VUnited
p3072
sI3089
VUrinary
p3073
sI3090
VUsage
p3074
sI3091
VUse
p3075
sI3092
VUsing
p3076
sI3093
VUsually
p3077
sI3094
VVAPRISOL
p3078
sI3095
VVESIcare
p3079
sI3096
VVIDEX
p3080
sI3097
VVII
p3081
sI3098
VVIII
p3082
sI3099
VVaccinations
p3083
sI3100
VValdecoxib
p3084
sI3101
VValium
p3085
sI3102
VValproate
p3086
sI3103
VValproic
p3087
sI3104
VVardenafil
p3088
sI3105
VVasodilator
p3089
sI3106
VVectibix
p3090
sI3107
VVeratrum
p3091
sI3108
VVesprin
p3092
sI3109
VVidex
p3093
sI3110
VVindesine
p3094
sI3111
VVitamin
p3095
sI3112
VVitrasert
p3096
sI3113
VVolatile
p3097
sI3114
VWARNINGS
p3098
sI3115
VWELLBUTRIN
p3099
sI3116
VWILL
p3100
sI3117
VWait
p3101
sI3118
VWales
p3102
sI3119
VWallerian
p3103
sI3120
VWeak
p3104
sI3121
VWhile
p3105
sI3122
VWinstrol
p3106
sI3123
VWort
p3107
sI3124
VX
sI3125
VXENICAL
p3108
sI3126
VXII
p3109
sI3127
VYou
p3110
sI3128
VZANTAC
p3111
sI3129
VZEBETA
p3112
sI3130
VZOLINZA
p3113
sI3131
VZYVOX
p3114
sI3132
VZalcitabine
p3115
sI3133
VZarontin
p3116
sI3134
VZidovudine
p3117
sI3135
VZimelidine
p3118
sI3136
VZofran
p3119
sI3137
VZollinger
p3120
sI3138
V[
sI3139
V``
p3121
sI3140
Vabacavir
p3122
sI3141
Vabatacept
p3123
sI3142
Vabciximab
p3124
sI3143
Vabnormal
p3125
sI3144
Vabolish
p3126
sI3145
Vabortifacient
p3127
sI3146
Vabout
p3128
sI3147
Vabrupt
p3129
sI3148
Vabruptly
p3130
sI3149
Vabsorption
p3131
sI3150
Vabstinence
p3132
sI3151
Vabuse
p3133
sI3152
Vacceleration
p3134
sI3153
Vaccidents
p3135
sI3154
Vaccompanied
p3136
sI3155
Vaccordingly
p3137
sI3156
Vaccount
p3138
sI3157
Vaccounts
p3139
sI3158
Vaccumulation
p3140
sI3159
Vaccuracy
p3141
sI3160
Vacebutolol
p3142
sI3161
Vacetate
p3143
sI3162
Vacetophenazine
p3144
sI3163
Vacetylsalicylic
p3145
sI3164
Vacid
p3146
sI3165
Vacidic
p3147
sI3166
Vacidity
p3148
sI3167
Vacidsequestering
p3149
sI3168
Vacitretin
p3150
sI3169
Vacquired
p3151
sI3170
Vactivation
p3152
sI3171
Vactive
p3153
sI3172
Vactively
p3154
sI3173
Vadded
p3155
sI3174
Vadenosine
p3156
sI3175
Vadequate
p3157
sI3176
Vadhesion
p3158
sI3177
Vadjusted
p3159
sI3178
Vadjustments
p3160
sI3179
Vadmini
p3161
sI3180
Vadministered
p3162
sI3181
Vadministering
p3163
sI3182
Vadministrations
p3164
sI3183
Vadrenal
p3165
sI3184
Vadrenaline
p3166
sI3185
Vadsorbents
p3167
sI3186
Vadverse
p3168
sI3187
Vadversely
p3169
sI3188
Vadvised
p3170
sI3189
Vaerosol
p3171
sI3190
Vaerosolized
p3172
sI3191
Vafter
p3173
sI3192
Vagainst
p3174
sI3193
Vaged
p3175
sI3194
Vaggravated
p3176
sI3195
Vaggravating
p3177
sI3196
Vaggregability
p3178
sI3197
Vaggregation
p3179
sI3198
Vakathisia
p3180
sI3199
Valbendazole
p3181
sI3200
Valiskiren
p3182
sI3201
Valkaline
p3183
sI3202
Valkalinization
p3184
sI3203
Valkalinizing
p3185
sI3204
Valkalizing
p3186
sI3205
Valkaloids
p3187
sI3206
Vall
p3188
sI3207
Valleviate
p3189
sI3208
Vallopurinol
p3190
sI3209
Vallow
p3191
sI3210
Vallowed
p3192
sI3211
Vallows
p3193
sI3212
Valmotriptan
p3194
sI3213
Valopecia
p3195
sI3214
Valpha
p3196
sI3215
Valprostadil
p3197
sI3216
Valready
p3198
sI3217
Valter
p3199
sI3218
Valterations
p3200
sI3219
Valternately
p3201
sI3220
Valternating
p3202
sI3221
Valternatives
p3203
sI3222
Valways
p3204
sI3223
Vamantadine
p3205
sI3224
Vamenorrhea
p3206
sI3225
Vaminosalicylates
p3207
sI3226
Vaminosalicylic
p3208
sI3227
Vamiodarone
p3209
sI3228
Vamitriptyline
p3210
sI3229
Vammonium
p3211
sI3230
Vamoxapine
p3212
sI3231
Vamoxicillin
p3213
sI3232
Vamphetamine
p3214
sI3233
Vampicillin
p3215
sI3234
Vamplifies
p3216
sI3235
Vamylase
p3217
sI3236
Van
p3218
sI3237
Vanabolic
p3219
sI3238
Vanaesthetised
p3220
sI3239
Vanagrelide
p3221
sI3240
Vanakinra
p3222
sI3241
Vanalogues
p3223
sI3242
Vanalyzed
p3224
sI3243
Vanaphylactoid
p3225
sI3244
Vanaphylaxis
p3226
sI3245
Vand
p3227
sI3246
Vandtolbutamide
p3228
sI3247
Vandusing
p3229
sI3248
Vanecdotal
p3230
sI3249
Vanemia
p3231
sI3250
Vanesthetized
p3232
sI3251
Vangina
p3233
sI3252
Vangiotensin
p3234
sI3253
Vanionic
p3235
sI3254
Vanions
p3236
sI3255
Vanisindione
p3237
sI3256
Vanorectic
p3238
sI3257
Vantacid
p3239
sI3258
Vantagonistic
p3240
sI3259
Vantagonists
p3241
sI3260
Vanticoagulants
p3242
sI3261
Vanticonvulsant
p3243
sI3262
Vantidepressants
p3244
sI3263
Vantidiabetic
p3245
sI3264
Vantidiuretic
p3246
sI3265
Vantiemetics
p3247
sI3266
Vantiepileptic
p3248
sI3267
Vantigen
p3249
sI3268
Vantihypertensive
p3250
sI3269
Vantiinflammatories
p3251
sI3270
Vantimalarials
p3252
sI3271
Vantimicrobial
p3253
sI3272
Vantimuscarinics
p3254
sI3273
Vantimycotics
p3255
sI3274
Vantinociceptive
p3256
sI3275
Vantiovulatory
p3257
sI3276
Vantiparkinson
p3258
sI3277
Vantipsychotic
p3259
sI3278
Vantiseizure
p3260
sI3279
Vantiseptic
p3261
sI3280
Vantithrombotic
p3262
sI3281
Vapnea
p3263
sI3282
Vapplications
p3264
sI3283
Vapproval
p3265
sI3284
Vapproximate
p3266
sI3285
Vapraclonidine
p3267
sI3286
Varachidonate
p3268
sI3287
Varbutamine
p3269
sI3288
Vardeparin
p3270
sI3289
Varise
p3271
sI3290
Varrest
p3272
sI3291
Varrhythmic
p3273
sI3292
Varrhythmics
p3274
sI3293
Vartifactually
p3275
sI3294
Vartificial
p3276
sI3295
Vask
p3277
sI3296
Vasparagine
p3278
sI3297
Vaspirins
p3279
sI3298
Vassay
p3280
sI3299
Vassumed
p3281
sI3300
Vastemizole
p3282
sI3301
Vasymptomatic
p3283
sI3302
Vataxia
p3284
sI3303
Vatrial
p3285
sI3304
Vattapulgite
p3286
sI3305
Vattempted
p3287
sI3306
Vattention
p3288
sI3307
Vattenuate
p3289
sI3308
Vattenuating
p3290
sI3309
Vattributed
p3291
sI3310
Vatypical
p3292
sI3311
Vaugments
p3293
sI3312
Vautonomic
p3294
sI3313
Vavoid
p3295
sI3314
Vavoided
p3296
sI3315
Vaxis
p3297
sI3316
Vazole
p3298
sI3317
Vb
sI3318
Vbacilli
p3299
sI3319
Vbacitracin
p3300
sI3320
Vbaclofen
p3301
sI3321
Vbactericidal
p3302
sI3322
Vbarbiturates
p3303
sI3323
Vbase
p3304
sI3324
Vbaseline
p3305
sI3325
Vbasic
p3306
sI3326
Vbe
p3307
sI3327
Vbealtered
p3308
sI3328
Vbecausedecreases
p3309
sI3329
Vbeen
p3310
sI3330
Vbehavior
p3311
sI3331
Vbelieved
p3312
sI3332
Vbenefits
p3313
sI3333
Vbengal
p3314
sI3334
Vbenzocaine
p3315
sI3335
Vbenzodiazepine
p3316
sI3336
Vbenzothiadiazines
p3317
sI3337
Vbeta
p3318
sI3338
Vbetablockers
p3319
sI3339
Vbexarotene
p3320
sI3340
Vbeyond
p3321
sI3341
Vbilirubin
p3322
sI3342
Vbin
p3323
sI3343
Vbinds
p3324
sI3344
Vbioassay
p3325
sI3345
Vbioavailability
p3326
sI3346
Vbioequivalent
p3327
sI3347
Vbiological
p3328
sI3348
Vbishydroxycoumarin
p3329
sI3349
Vbleomycin
p3330
sI3350
Vblocker
p3331
sI3351
Vblockers
p3332
sI3352
Vblocking
p3333
sI3353
Vblood
p3334
sI3354
Vblurred
p3335
sI3355
Vbodys
p3336
sI3356
Vbolus
p3337
sI3357
Vborne
p3338
sI3358
Vbortezomib
p3339
sI3359
Vbotulinum
p3340
sI3360
Vbound
p3341
sI3361
Vbowel
p3342
sI3362
Vbradycardia
p3343
sI3363
Vbreakdown
p3344
sI3364
Vbreakthrough
p3345
sI3365
Vbroad
p3346
sI3366
Vbuffer
p3347
sI3367
Vbuffered
p3348
sI3368
Vbupropion
p3349
sI3369
Vburide
p3350
sI3370
Vbusulfan
p3351
sI3371
Vbutenafine
p3352
sI3372
Vbutorphanol
p3353
sI3373
Vcalcium
p3354
sI3374
Vcalling
p3355
sI3375
Vcancer
p3356
sI3376
Vcapecitabine
p3357
sI3377
Vcapsules
p3358
sI3378
Vcar
p3359
sI3379
Vcarbachol
p3360
sI3380
Vcarbidopa
p3361
sI3381
Vcarcinogenesis
p3362
sI3382
Vcardioactive
p3363
sI3383
Vcardiopulmonary
p3364
sI3384
Vcardioselectivity
p3365
sI3385
Vcardiotoxicity
p3366
sI3386
Vcare
p3367
sI3387
Vcarinii
p3368
sI3388
Vcarried
p3369
sI3389
Vcarvedilol
p3370
sI3390
Vcases
p3371
sI3391
Vcaspofungin
p3372
sI3392
Vcatabloism
p3373
sI3393
Vcatabolic
p3374
sI3394
Vcatabolism
p3375
sI3395
Vcatalyzed
p3376
sI3396
Vcations
p3377
sI3397
Vcaucasian
p3378
sI3398
Vcaudal
p3379
sI3399
Vcausal
p3380
sI3400
Vcausality
p3381
sI3401
Vcausally
p3382
sI3402
Vcefdinir
p3383
sI3403
Vcefmenoxime
p3384
sI3404
Vcefotetan
p3385
sI3405
Vcefuroxime
p3386
sI3406
Vcell
p3387
sI3407
Vcells
p3388
sI3408
Vcenters
p3389
sI3409
Vcentra
p3390
sI3410
Vcentral
p3391
sI3411
Vcephalosporin
p3392
sI3412
Vcephalothin
p3393
sI3413
Vcerebral
p3394
sI3414
Vcerebri
p3395
sI3415
Vcerebroactive
p3396
sI3416
Vcerebrovascular
p3397
sI3417
Vcerivastatin
p3398
sI3418
Vcertain
p3399
sI3419
Vcessation
p3400
sI3420
Vcetirizine
p3401
sI3421
Vcevimeline
p3402
sI3422
Vcgi
p3403
sI3423
Vchain
p3404
sI3424
Vchains
p3405
sI3425
Vchallenge
p3406
sI3426
Vchance
p3407
sI3427
Vchange
p3408
sI3428
Vchanged
p3409
sI3429
Vchanging
p3410
sI3430
Vcharcoal
p3411
sI3431
Vcharged
p3412
sI3432
Vchboramphenicol
p3413
sI3433
Vcheck
p3414
sI3434
Vchecked
p3415
sI3435
Vcheese
p3416
sI3436
Vchelates
p3417
sI3437
Vchelation
p3418
sI3438
Vchelator
p3419
sI3439
Vchest
p3420
sI3440
Vchewable
p3421
sI3441
Vchildbearing
p3422
sI3442
Vchlordiazepoxide
p3423
sI3443
Vchloroprocaine
p3424
sI3444
Vchlorthalidone
p3425
sI3445
Vcholestryramine
p3426
sI3446
Vcholestyramine
p3427
sI3447
Vcholine
p3428
sI3448
Vchosen
p3429
sI3449
Vchronotropic
p3430
sI3450
Vchymotrypsin
p3431
sI3451
Vcilexetil
p3432
sI3452
Vcilostazol
p3433
sI3453
Vcimetidine
p3434
sI3454
Vcinacalcet
p3435
sI3455
Vcinchophen
p3436
sI3456
Vcinoxacin
p3437
sI3457
Vcirculates
p3438
sI3458
Vcirculation
p3439
sI3459
Vcircumstance
p3440
sI3460
Vcircumstances
p3441
sI3461
Vcitalopram
p3442
sI3462
Vcitrate
p3443
sI3463
Vclasses
p3444
sI3464
Vcleansers
p3445
sI3465
Vclearance
p3446
sI3466
Vclearances
p3447
sI3467
Vclinician
p3448
sI3468
Vclofazimine
p3449
sI3469
Vclonazepam
p3450
sI3470
Vclotrimazole
p3451
sI3471
Vclover
p3452
sI3472
Vclozapine
p3453
sI3473
Vcmax
p3454
sI3474
Vcoagulant
p3455
sI3475
Vcoal
p3456
sI3476
Vcoexistence
p3457
sI3477
Vcoffee
p3458
sI3478
Vcold
p3459
sI3479
Vcolistimethate
p3460
sI3480
Vcollagen
p3461
sI3481
Vcolonic
p3462
sI3482
Vcolorectal
p3463
sI3483
Vcombine
p3464
sI3484
Vcombining
p3465
sI3485
Vcommercially
p3466
sI3486
Vcommonly
p3467
sI3487
Vcomparable
p3468
sI3488
Vcomparative
p3469
sI3489
Vcomplex
p3470
sI3490
Vcomplexometric
p3471
sI3491
Vcomplicated
p3472
sI3492
Vcomplication
p3473
sI3493
Vcomplications
p3474
sI3494
Vcomponent
p3475
sI3495
Vcomponents
p3476
sI3496
Vcompounds
p3477
sI3497
Vcompromised
p3478
sI3498
Vconcentrate
p3479
sI3499
Vconcentrates
p3480
sI3500
Vconcerning
p3481
sI3501
Vconclusively
p3482
sI3502
Vconcomitant
p3483
sI3503
Vconcomitantly
p3484
sI3504
Vconcurrent
p3485
sI3505
Vcondition
p3486
sI3506
Vconditioned
p3487
sI3507
Vconditions
p3488
sI3508
Vconduct
p3489
sI3509
Vconflicting
p3490
sI3510
Vconfusion
p3491
sI3511
Vcongenital
p3492
sI3512
Vcongestion
p3493
sI3513
Vconjunction
p3494
sI3514
Vconnection
p3495
sI3515
Vconsciousness
p3496
sI3516
Vconsecutive
p3497
sI3517
Vconsequence
p3498
sI3518
Vconsequent
p3499
sI3519
Vconsequently
p3500
sI3520
Vconservatively
p3501
sI3521
Vconsiderably
p3502
sI3522
Vconsulting
p3503
sI3523
Vconsumption
p3504
sI3524
Vcontent
p3505
sI3525
Vcontinue
p3506
sI3526
Vcontinuing
p3507
sI3527
Vcontinuously
p3508
sI3528
Vcontraception
p3509
sI3529
Vcontraceptive
p3510
sI3530
Vcontractility
p3511
sI3531
Vcontributed
p3512
sI3532
Vcontributing
p3513
sI3533
Vcontribution
p3514
sI3534
Vcontrol
p3515
sI3535
Vcontrolled
p3516
sI3536
Vconversely
p3517
sI3537
Vconvert
p3518
sI3538
Vconvulsions
p3519
sI3539
Vcoordination
p3520
sI3540
Vcopper
p3521
sI3541
Vcopying
p3522
sI3542
Vcorresponding
p3523
sI3543
Vcortical
p3524
sI3544
Vcorticosteroid
p3525
sI3545
Vcorticosteroids
p3526
sI3546
Vcosteroids..
p3527
sI3547
Vcount
p3528
sI3548
Vcreams
p3529
sI3549
Vcreatine
p3530
sI3550
Vcrescentic
p3531
sI3551
Vcrises
p3532
sI3552
Vcriteria
p3533
sI3553
Vcromolyn
p3534
sI3554
Vcrossed
p3535
sI3555
Vcumulative
p3536
sI3556
Vcups
p3537
sI3557
Vcurrent
p3538
sI3558
Vcushingoid
p3539
sI3559
Vcut
p3540
sI3560
Vcyclic
p3541
sI3561
Vcyclophosphamide
p3542
sI3562
Vcycloserine
p3543
sI3563
Vcyclosporine
p3544
sI3564
Vcylates
p3545
sI3565
Vcyst
p3546
sI3566
Vcytarabine
p3547
sI3567
Vcytogenetics
p3548
sI3568
Vcytotoxicity
p3549
sI3569
Vdacarbazine
p3550
sI3570
Vdaily
p3551
sI3571
Vdamage
p3552
sI3572
Vdandruff
p3553
sI3573
Vdanger
p3554
sI3574
Vdarifenacin
p3555
sI3575
Vdata
p3556
sI3576
Vdate
p3557
sI3577
Vday
p3558
sI3578
Vdeath
p3559
sI3579
Vdeaths
p3560
sI3580
Vdebrisoquin
p3561
sI3581
Vdecitabine
p3562
sI3582
Vdecreasing
p3563
sI3583
Vdefense
p3564
sI3584
Vdeferasirox
p3565
sI3585
Vdeferred
p3566
sI3586
Vdeficient
p3567
sI3587
Vdefinite
p3568
sI3588
Vdefinitive
p3569
sI3589
Vdegeneration
p3570
sI3590
Vdegenerative
p3571
sI3591
Vdegraded
p3572
sI3592
Vdegree
p3573
sI3593
Vdegrees
p3574
sI3594
Vdehydrated
p3575
sI3595
Vdehydro
p3576
sI3596
Vdelay
p3577
sI3597
Vdelayed
p3578
sI3598
Vdelaying
p3579
sI3599
Vdensity
p3580
sI3600
Vdeparture
p3581
sI3601
Vdependency
p3582
sI3602
Vdependent
p3583
sI3603
Vdepleting
p3584
sI3604
Vdepletion
p3585
sI3605
Vdepo
p3586
sI3606
Vdepress
p3587
sI3607
Vdepressants
p3588
sI3608
Vdepressasnts
p3589
sI3609
Vdepression
p3590
sI3610
Vderivative
p3591
sI3611
Vdesbutyl
p3592
sI3612
Vdescarboethoxyloratadine
p3593
sI3613
Vdescribed
p3594
sI3614
Vdesethylzaleplon
p3595
sI3615
Vdesflurane
p3596
sI3616
Vdesglymidodrine
p3597
sI3617
Vdesigned
p3598
sI3618
Vdesipramine
p3599
sI3619
Vdesmethylastemizole
p3600
sI3620
Vdeterminant
p3601
sI3621
Vdeterminations
p3602
sI3622
Vdetermined
p3603
sI3623
Vdevelop
p3604
sI3624
Vdevelopment
p3605
sI3625
Vdextropropoxyphene
p3606
sI3626
Vdezocine
p3607
sI3627
Vdiazepam
p3608
sI3628
Vdiazoxide
p3609
sI3629
Vdiclofenac
p3610
sI3630
Vdictate
p3611
sI3631
Vdiethylpropion
p3612
sI3632
Vdifference
p3613
sI3633
Vdifficult
p3614
sI3634
Vdifficulty
p3615
sI3635
Vdiffusion
p3616
sI3636
Vdigit
p3617
sI3637
Vdigitalization
p3618
sI3638
Vdigitalized
p3619
sI3639
Vdihydroergotamine
p3620
sI3640
Vdihydropyridine
p3621
sI3641
Vdiluent
p3622
sI3642
Vdinitrate
p3623
sI3643
Vdinitrobenzene
p3624
sI3644
Vdiol
p3625
sI3645
Vdiphenhydramine
p3626
sI3646
Vdipyridamole
p3627
sI3647
Vdirected
p3628
sI3648
Vdiscontinuance
p3629
sI3649
Vdisintegrating
p3630
sI3650
Vdispersible
p3631
sI3651
Vdisplacement
p3632
sI3652
Vdisposition
p3633
sI3653
Vdisrupting
p3634
sI3654
Vdisturbances
p3635
sI3655
Vdiuretic
p3636
sI3656
Vdizziness
p3637
sI3657
Vdocumentation
p3638
sI3658
Vdog
p3639
sI3659
Vdomestic
p3640
sI3660
Vdong
p3641
sI3661
Vdonor
p3642
sI3662
Vdosages
p3643
sI3663
Vdose
p3644
sI3664
Vdoxepin
p3645
sI3665
Vdoxorubicinol
p3646
sI3666
Vdrawn
p3647
sI3667
Vdrinks
p3648
sI3668
Vdriving
p3649
sI3669
Vdrug
p3650
sI3670
Vdrugs
p3651
sI3671
Vdrugs.9
p3652
sI3672
Vduration
p3653
sI3673
Vdyphylline
p3654
sI3674
Vdysesthesia
p3655
sI3675
Vdysfunction
p3656
sI3676
Vdystonia
p3657
sI3677
Vdysuria
p3658
sI3678
Ve.g
p3659
sI3679
Vearlier
p3660
sI3680
Veasily
p3661
sI3681
Vechothiophate
p3662
sI3682
Veffect
p3663
sI3683
Veffectiveness
p3664
sI3684
Veffects
p3665
sI3685
Vefficient
p3666
sI3686
Veight
p3667
sI3687
Veither
p3668
sI3688
Velc
p3669
sI3689
Velderly
p3670
sI3690
Velectrolytes
p3671
sI3691
Velemental
p3672
sI3692
Velements
p3673
sI3693
Velevate
p3674
sI3694
Veliminated
p3675
sI3695
Velucidate
p3676
sI3696
Vembolism
p3677
sI3697
Vemergency
p3678
sI3698
Vemesis
p3679
sI3699
Vemetic
p3680
sI3700
Vempty
p3681
sI3701
Venalapril
p3682
sI3702
Venalaprilat
p3683
sI3703
Venantiomers
p3684
sI3704
Vend
p3685
sI3705
Vendemic
p3686
sI3706
Vendogenous
p3687
sI3707
Vendoscopic
p3688
sI3708
Vengaging
p3689
sI3709
Venhance
p3690
sI3710
Venhances
p3691
sI3711
Venlargement
p3692
sI3712
Venoxacin
p3693
sI3713
Ventecavir
p3694
sI3714
Venzymatic
p3695
sI3715
Venzymes
p3696
sI3716
Veosinophilia
p3697
sI3717
Vephedrine
p3698
sI3718
Vepistaxis
p3699
sI3719
Veplerenone
p3700
sI3720
Vequivocally
p3701
sI3721
Vergocalcitriol
p3702
sI3722
Vergot
p3703
sI3723
Vergotamine
p3704
sI3724
Verlotinib
p3705
sI3725
Verroneously
p3706
sI3726
Vertapenem
p3707
sI3727
Vescalating
p3708
sI3728
Vesmolol
p3709
sI3729
Vessential
p3710
sI3730
Vestablished
p3711
sI3731
Vestimates
p3712
sI3732
Vetc
p3713
sI3733
Vethacrynic
p3714
sI3734
Vethanol
p3715
sI3735
Vethchlorvynol
p3716
sI3736
Vethionamide
p3717
sI3737
Vethosuximide
p3718
sI3738
Vethoxycoumarin
p3719
sI3739
Vethoxzolamide
p3720
sI3740
Vetoposide
p3721
sI3741
Veuphoria
p3722
sI3742
Vevaluate
p3723
sI3743
Vevening
p3724
sI3744
Vevent
p3725
sI3745
Vevery
p3726
sI3746
Vexacerbate
p3727
sI3747
Vexamining
p3728
sI3748
Vexamples
p3729
sI3749
Vexcept
p3730
sI3750
Vexception
p3731
sI3751
Vexcess
p3732
sI3752
Vexcessive
p3733
sI3753
Vexchange
p3734
sI3754
Vexcitement
p3735
sI3755
Vexclude
p3736
sI3756
Vexcretory
p3737
sI3757
Vexercised
p3738
sI3758
Vexhibit
p3739
sI3759
Vexhibits
p3740
sI3760
Vexists
p3741
sI3761
Vexogenously
p3742
sI3762
Vexpanders
p3743
sI3763
Vexperiences
p3744
sI3764
Vexperiencing
p3745
sI3765
Vexperimental
p3746
sI3766
Vexplained
p3747
sI3767
Vextent
p3748
sI3768
Vextra
p3749
sI3769
Vextrapolated
p3750
sI3770
Vextravasation
p3751
sI3771
Vfacial
p3752
sI3772
Vfacilitated
p3753
sI3773
Vfailed
p3754
sI3774
Vfall
p3755
sI3775
Vfamotidine
p3756
sI3776
Vfatality
p3757
sI3777
Vfed
p3758
sI3778
Vfeels
p3759
sI3779
Vfelt
p3760
sI3780
Vfenbufen
p3761
sI3781
Vfenoprofen
p3762
sI3782
Vfewer
p3763
sI3783
Vfexofenadine
p3764
sI3784
Vfibers
p3765
sI3785
Vfibrinogen
p3766
sI3786
Vfibrinolysis
p3767
sI3787
Vfiltration
p3768
sI3788
Vfinasteride
p3769
sI3789
Vflucoxacillin
p3770
sI3790
Vfluctuations
p3771
sI3791
Vflucytosine
p3772
sI3792
Vfludarabine
p3773
sI3793
Vfluid
p3774
sI3794
Vfluorimetric
p3775
sI3795
Vfluoroquinolones
p3776
sI3796
Vfluorouracil
p3777
sI3797
Vfluoxetine
p3778
sI3798
Vflurbiprofen
p3779
sI3799
Vfluvoxamine
p3780
sI3800
Vfolic
p3781
sI3801
Vfollicle
p3782
sI3802
Vfollowed
p3783
sI3803
Vfor
p3784
sI3804
Vforeign
p3785
sI3805
Vformation
p3786
sI3806
Vformula
p3787
sI3807
Vfoscarnet
p3788
sI3808
Vfosfomycin
p3789
sI3809
Vfosinopril
p3790
sI3810
Vfrequency
p3791
sI3811
Vfrequently
p3792
sI3812
Vfro
p3793
sI3813
Vfrova_od.htm
p3794
sI3814
Vfrovatriptan
p3795
sI3815
Vfruit
p3796
sI3816
Vfulminant
p3797
sI3817
Vfulvestrant
p3798
sI3818
Vfunction
p3799
sI3819
Vfurosemide
p3800
sI3820
Vfurther
p3801
sI3821
Vg
sI3822
Vg.
p3802
sI3823
Vgallamine
p3803
sI3824
Vgallbladder
p3804
sI3825
Vgastroduodenal
p3805
sI3826
Vgavage
p3806
sI3827
Vgefitinib
p3807
sI3828
Vgenerally
p3808
sI3829
Vgeneration
p3809
sI3830
Vgeneric9
p3810
sI3831
Vgenotoxic
p3811
sI3832
Vgenotoxicity
p3812
sI3833
Vgeometric
p3813
sI3834
Vginkgo
p3814
sI3835
Vgirdle
p3815
sI3836
Vglomerulonephritis
p3816
sI3837
Vglucocorticoids
p3817
sI3838
Vglucosidase
p3818
sI3839
Vglucuronidation
p3819
sI3840
Vglucuronosyltransferase
p3820
sI3841
Vglucuronyl
p3821
sI3842
Vglutamic
p3822
sI3843
Vglutathione
p3823
sI3844
Vglutethimide
p3824
sI3845
Vglyburide
p3825
sI3846
Vglycemic
p3826
sI3847
Vglyceryl
p3827
sI3848
Vglycoprotein
p3828
sI3849
Vglycosides
p3829
sI3850
Vglycosuria
p3830
sI3851
Vgm
p3831
sI3852
Vgonadal
p3832
sI3853
Vgonadotropins
p3833
sI3854
Vgradually
p3834
sI3855
Vgranisetron
p3835
sI3856
Vgrapefruit
p3836
sI3857
Vgreater
p3837
sI3858
Vgreatly
p3838
sI3859
Vgreen
p3839
sI3860
Vgritty
p3840
sI3861
Vgross
p3841
sI3862
Vguanadrel
p3842
sI3863
Vguided
p3843
sI3864
Vgut
p3844
sI3865
Vh
sI3866
Vhabituation
p3845
sI3867
Vhaloperidol
p3846
sI3868
Vhalved
p3847
sI3869
Vhazard
p3848
sI3870
Vheadache
p3849
sI3871
Vhearing
p3850
sI3872
Vhelp
p3851
sI3873
Vhelpful
p3852
sI3874
Vhematopoiesis
p3853
sI3875
Vhematopoietic
p3854
sI3876
Vhemiballismus
p3855
sI3877
Vhemoglobin
p3856
sI3878
Vhemorrhages
p3857
sI3879
Vhepatic
p3858
sI3880
Vhepatotoxicity
p3859
sI3881
Vheterosexual
p3860
sI3882
Vhexobarbital
p3861
sI3883
Vhighest
p3862
sI3884
Vhis
p3863
sI3885
Vhistidine
p3864
sI3886
Vhospital
p3865
sI3887
Vhost
p3866
sI3888
Vhr
p3867
sI3889
Vhrs
p3868
sI3890
Vhuman
p3869
sI3891
Vhundred
p3870
sI3892
Vhydatid
p3871
sI3893
Vhydralazine
p3872
sI3894
Vhydramine
p3873
sI3895
Vhydrate
p3874
sI3896
Vhydrazine
p3875
sI3897
Vhydrocarbon
p3876
sI3898
Vhydrochloric
p3877
sI3899
Vhydrochloride
p3878
sI3900
Vhydrochloroquine
p3879
sI3901
Vhydrocortisone
p3880
sI3902
Vhydrodolasetron
p3881
sI3903
Vhydrolase
p3882
sI3904
Vhydrolysis
p3883
sI3905
Vhydroxide
p3884
sI3906
Vhydroxybupropion
p3885
sI3907
Vhydroxydesloratadine
p3886
sI3908
Vhydroxyitraconazole
p3887
sI3909
Vhydroxylation
p3888
sI3910
Vhydroxyurea
p3889
sI3911
Vhyper
p3890
sI3912
Vhyperbilirubinemia
p3891
sI3913
Vhypercalcemia
p3892
sI3914
Vhypercholesterolemia
p3893
sI3915
Vhyperplasia
p3894
sI3916
Vhypersensitive
p3895
sI3917
Vhypertensive
p3896
sI3918
Vhypertensives
p3897
sI3919
Vhyperuricemic
p3898
sI3920
Vhypervitaminosis
p3899
sI3921
Vhypnotics
p3900
sI3922
Vhypocalcemia
p3901
sI3923
Vhypoglycemic
p3902
sI3924
Vhypoglycemics
p3903
sI3925
Vhypokalemia
p3904
sI3926
Vhypokalemic
p3905
sI3927
Vhypoparathyroid
p3906
sI3928
Vhypoprothrombinemic
p3907
sI3929
Vhypotension
p3908
sI3930
Vhypoxanthine
p3909
sI3931
Vi.e
p3910
sI3932
ViPTH
p3911
sI3933
Vicodextrin
p3912
sI3934
Vics
p3913
sI3935
Videntified
p3914
sI3936
Videntify
p3915
sI3937
Vif
p3916
sI3938
Villness
p3917
sI3939
Villnesses
p3918
sI3940
Viloprost
p3919
sI3941
Vimidazole
p3920
sI3942
Vimidazoles
p3921
sI3943
Vimmediate
p3922
sI3944
Vimmediately
p3923
sI3945
Vimmunocompromised
p3924
sI3946
Vimmunosuppressant
p3925
sI3947
Vimmunosuppressants
p3926
sI3948
Vimmunosuppression
p3927
sI3949
Vimmunosuppressive
p3928
sI3950
Vimpact
p3929
sI3951
Vimpaired
p3930
sI3952
Vimpairment
p3931
sI3953
Vimplantable
p3932
sI3954
Vimplantation
p3933
sI3955
Vimplants
p3934
sI3956
Vimportance
p3935
sI3957
Vimportant
p3936
sI3958
Vinaccurate
p3937
sI3959
Vinactivate
p3938
sI3960
Vinactivated
p3939
sI3961
Vinactivation
p3940
sI3962
Vinactive
p3941
sI3963
Vinactivity
p3942
sI3964
Vinadvisable
p3943
sI3965
Vincidences
p3944
sI3966
Vinclude
p3945
sI3967
Vinclusion
p3946
sI3968
Vincombination
p3947
sI3969
Vincompatible
p3948
sI3970
Vincomplete
p3949
sI3971
Vinconcomitant
p3950
sI3972
Vincrease9
p3951
sI3973
Vincreases
p3952
sI3974
Vincremental
p3953
sI3975
Vincrements
p3954
sI3976
Vindandione
p3955
sI3977
Vindanedione
p3956
sI3978
Vindex
p3957
sI3979
Vindicate
p3958
sI3980
Vindicated
p3959
sI3981
Vindicating
p3960
sI3982
Vindigestion
p3961
sI3983
Vindinavir
p3962
sI3984
Vindistinguishable
p3963
sI3985
Vindividualized
p3964
sI3986
Vindividuals
p3965
sI3987
Vinduced
p3966
sI3988
Vinducing
p3967
sI3989
Vinduration
p3968
sI3990
Vineffectiveness
p3969
sI3991
Vinfant
p3970
sI3992
Vinfiltration
p3971
sI3993
Vinflammatory
p3972
sI3994
Vinfliximab
p3973
sI3995
Vinfluenced
p3974
sI3996
Vinfluenza
p3975
sI3997
Vingesting
p3976
sI3998
Vinhalation
p3977
sI3999
Vinhaled
p3978
sI4000
Vinhibit
p3979
sI4001
Vinhibition
p3980
sI4002
Vinhibitor
p3981
sI4003
Vinitial
p3982
sI4004
Vinitiate
p3983
sI4005
Vinitiated
p3984
sI4006
Vinjury
p3985
sI4007
Vinsomnia
p3986
sI4008
Vinsufficient
p3987
sI4009
Vintake
p3988
sI4010
Vintensified
p3989
sI4011
Vintensify
p3990
sI4012
Vintentional
p3991
sI4013
Vinter
p3992
sI4014
Vintercurrent
p3993
sI4015
Vinterfere
p3994
sI4016
Vinterference
p3995
sI4017
Vinterferes
p3996
sI4018
Vinterferon
p3997
sI4019
Vinterleukin
p3998
sI4020
Vintermediate
p3999
sI4021
Vinterpretation
p4000
sI4022
Vinterrupt
p4001
sI4023
Vintervals
p4002
sI4024
Vintestinal
p4003
sI4025
Vintracellular
p4004
sI4026
Vintracellulare
p4005
sI4027
Vintramuscular
p4006
sI4028
Vintranasal
p4007
sI4029
Vintraocular
p4008
sI4030
Vintraperitoneal
p4009
sI4031
Vintraperitoneally
p4010
sI4032
Vintrathecally
p4011
sI4033
Vintravascular
p4012
sI4034
Vinvestigations
p4013
sI4035
Vinvolved
p4014
sI4036
Vinvolvement
p4015
sI4037
Vinvolving
p4016
sI4038
Vinwomen
p4017
sI4039
Vionized
p4018
sI4040
Viron
p4019
sI4041
Virradiation
p4020
sI4042
Virrespective
p4021
sI4043
Virreversible
p4022
sI4044
Virritating
p4023
sI4045
Virritation
p4024
sI4046
Vis
p4025
sI4047
Visoforms
p4026
sI4048
Visolated
p4027
sI4049
Visoniazide
p4028
sI4050
Visoproterenol
p4029
sI4051
Visosorbide
p4030
sI4052
Vitching
p4031
sI4053
Vitraconazole
p4032
sI4054
Vitself
p4033
sI4055
Vjoint
p4034
sI4056
Vjuice
p4035
sI4057
Vkaolin
p4036
sI4058
Vketoprofen
p4037
sI4059
Vketosteroids
p4038
sI4060
Vkilogram
p4039
sI4061
Vlabeling
p4040
sI4062
Vlaboratory
p4041
sI4063
Vlack
p4042
sI4064
Vlacking
p4043
sI4065
Vlapatinib
p4044
sI4066
Vlargely
p4045
sI4067
Vlatanoprost
p4046
sI4068
Vlaxative
p4047
sI4069
Vle
p4048
sI4070
Vleading
p4049
sI4071
Vlearned
p4050
sI4072
Vleflunomide
p4051
sI4073
Vlenalidomide
p4052
sI4074
Vlengthening
p4053
sI4075
Vlengths
p4054
sI4076
Vleprosy
p4055
sI4077
Vlessened
p4056
sI4078
Vlesser
p4057
sI4079
Vletrozole
p4058
sI4080
Vleukemia
p4059
sI4081
Vleukocytosis
p4060
sI4082
Vleukopenia
p4061
sI4083
Vlevel
p4062
sI4084
Vlevels
p4063
sI4085
Vlevonorgestrel
p4064
sI4086
Vlevorphanol
p4065
sI4087
Vlidocaine
p4066
sI4088
Vlife
p4067
sI4089
Vlignocaine
p4068
sI4090
Vlikelihood
p4069
sI4091
Vlimit
p4070
sI4092
Vlinear
p4071
sI4093
Vlipid
p4072
sI4094
Vliterature
p4073
sI4095
Vlive
p4074
sI4096
Vlives
p4075
sI4097
Vlocal
p4076
sI4098
Vlofexidine
p4077
sI4099
Vloop
p4078
sI4100
Vloracarbef
p4079
sI4101
Vloratadine
p4080
sI4102
Vlorezepam
p4081
sI4103
Vlosartan
p4082
sI4104
Vlosses
p4083
sI4105
Vlotions
p4084
sI4106
Vlovastatin
p4085
sI4107
Vlow
p4086
sI4108
Vlowering
p4087
sI4109
Vlowest
p4088
sI4110
Vluteinizing
p4089
sI4111
Vlying
p4090
sI4112
Vlymphocytopenia
p4091
sI4113
Vlymphoma
p4092
sI4114
Vm9
p4093
sI4115
VmEq
p4094
sI4116
VmM
p4095
sI4117
Vmagnitude
p4096
sI4118
Vmain
p4097
sI4119
Vmaintain
p4098
sI4120
Vmaintaining
p4099
sI4121
Vmaintenance
p4100
sI4122
Vmajority
p4101
sI4123
Vmakes
p4102
sI4124
Vmaleate
p4103
sI4125
Vmalformations
p4104
sI4126
Vmanagement
p4105
sI4127
Vmannitol
p4106
sI4128
Vmanufacturer
p4107
sI4129
Vmany
p4108
sI4130
Vmarketed
p4109
sI4131
Vmasking
p4110
sI4132
Vmass
p4111
sI4133
Vmassively
p4112
sI4134
Vmatching
p4113
sI4135
Vmating
p4114
sI4136
Vmaximal
p4115
sI4137
Vmeal
p4116
sI4138
Vmeaningfully
p4117
sI4139
Vmeasurable
p4118
sI4140
Vmeasurably
p4119
sI4141
Vmeasuring
p4120
sI4142
Vmebendazole
p4121
sI4143
Vmedian
p4122
sI4144
Vmediate
p4123
sI4145
Vmedical
p4124
sI4146
Vmedicated
p4125
sI4147
Vmedicinal
p4126
sI4148
Vmedoxomil
p4127
sI4149
Vmedroxyprogesterone
p4128
sI4150
Vmefloquine
p4129
sI4151
Vmeloxicam
p4130
sI4152
Vmembers
p4131
sI4153
Vmemory
p4132
sI4154
Vmenstrual
p4133
sI4155
Vmesoridazine
p4134
sI4156
Vmet
p4135
sI4157
Vmetab
p4136
sI4158
Vmetal
p4137
sI4159
Vmetals
p4138
sI4160
Vmetaproterenol
p4139
sI4161
Vmethaemoglobinaemia
p4140
sI4162
Vmethandrostenolone
p4141
sI4163
Vmethemoglobinemia
p4142
sI4164
Vmethoxyflurane
p4143
sI4165
Vmethylene
p4144
sI4166
Vmethylthiotetrazole
p4145
sI4167
Vmiconazole
p4146
sI4168
Vmicroalbuminuria
p4147
sI4169
Vmicrobial
p4148
sI4170
Vmicrodosed
p4149
sI4171
Vmicrograms
p4150
sI4172
Vmicronucleus
p4151
sI4173
Vmicrosomal
p4152
sI4174
Vmicrosomes
p4153
sI4175
Vmiddle
p4154
sI4176
Vmifepristone
p4155
sI4177
Vmight
p4156
sI4178
Vmigraines
p4157
sI4179
Vmilrinone
p4158
sI4180
Vmind
p4159
sI4181
Vminipills
p4160
sI4182
Vminutes
p4161
sI4183
Vmiotic
p4162
sI4184
Vmiscible
p4163
sI4185
Vmitoxantrone
p4164
sI4186
Vmivacurium
p4165
sI4187
Vmoderate
p4166
sI4188
Vmoderately
p4167
sI4189
Vmoexpril
p4168
sI4190
Vmoieties
p4169
sI4191
Vmolecule
p4170
sI4192
Vmonitored
p4171
sI4193
Vmonitoring
p4172
sI4194
Vmonoclonal
p4173
sI4195
Vmontelukast
p4174
sI4196
Vmorphine
p4175
sI4197
Vmost
p4176
sI4198
Vmotility
p4177
sI4199
Vmsec
p4178
sI4200
Vmuch
p4179
sI4201
Vmulti
p4180
sI4202
Vmultidose
p4181
sI4203
Vmultivitamins
p4182
sI4204
Vmuromonab
p4183
sI4205
Vmuscle
p4184
sI4206
Vmust
p4185
sI4207
Vmustard
p4186
sI4208
Vmutation
p4187
sI4209
Vmyasthenia
p4188
sI4210
Vmycophenolate
p4189
sI4211
Vmyelosuppression
p4190
sI4212
Vmyelotoxicity
p4191
sI4213
Vmyocarditis
p4192
sI4214
Vnadolol
p4193
sI4215
Vnatriuretic
p4194
sI4216
Vneeds
p4195
sI4217
Vnegatively
p4196
sI4218
Vneglect
p4197
sI4219
Vnelfinavir
p4198
sI4220
Vnephrotoxicity
p4199
sI4221
Vnervous
p4200
sI4222
Vnet
p4201
sI4223
Vnetilmicin
p4202
sI4224
Vneurocysticercosis
p4203
sI4225
Vneuroleptic
p4204
sI4226
Vneurological
p4205
sI4227
Vneurotoxic
p4206
sI4228
Vnevirapine
p4207
sI4229
Vniacin
p4208
sI4230
Vnicardipine
p4209
sI4231
Vnicotinic
p4210
sI4232
Vnilutamide
p4211
sI4233
Vnimodipine
p4212
sI4234
Vnitazoxanide
p4213
sI4235
Vnitrite
p4214
sI4236
Vnitrites
p4215
sI4237
Vnitroferricyanide
p4216
sI4238
Vnitrogen
p4217
sI4239
Vnitroglycerin
p4218
sI4240
Vnocturia
p4219
sI4241
Vnonbarbiturate
p4220
sI4242
Vnonopioid
p4221
sI4243
Vnonrenal
p4222
sI4244
Vnorbuprenorphine
p4223
sI4245
Vnorethindrone
p4224
sI4246
Vnormetanephrine
p4225
sI4247
Vnormovolemic
p4226
sI4248
Vnucleases
p4227
sI4249
Vnucleoside
p4228
sI4250
Vnumber
p4229
sI4251
Vnursing
p4230
sI4252
Vnutrient
p4231
sI4253
Vnutrition
p4232
sI4254
Vnutritionally
p4233
sI4255
Vobesity
p4234
sI4256
Vobservation
p4235
sI4257
Vobservations
p4236
sI4258
Vobstructive
p4237
sI4259
Vobtain
p4238
sI4260
Voccult
p4239
sI4261
Voccurrence
p4240
sI4262
Voccurs
p4241
sI4263
Voffspring
p4242
sI4264
Vointments
p4243
sI4265
Vone
p4244
sI4266
Vongoing
p4245
sI4267
Vonly
p4246
sI4268
Vonset
p4247
sI4269
Vopioids
p4248
sI4270
Vopportunistic
p4249
sI4271
Voptic
p4250
sI4272
Voptimum
p4251
sI4273
Vor
p4252
sI4274
Voral
p4253
sI4275
Vorally
p4254
sI4276
Vorder
p4255
sI4277
Vordinarily
p4256
sI4278
Vorgan
p4257
sI4279
Vorganism
p4258
sI4280
Vorganogenesis
p4259
sI4281
Vorphan
p4260
sI4282
Vototoxic
p4261
sI4283
Voutset
p4262
sI4284
Voutside
p4263
sI4285
Vovarian
p4264
sI4286
Voverdose
p4265
sI4287
Voverestimations
p4266
sI4288
Voverlapping
p4267
sI4289
Voveruse
p4268
sI4290
Vown
p4269
sI4291
Voxacillin
p4270
sI4292
Voxandrolone
p4271
sI4293
Voxcarbazepine
p4272
sI4294
Voxezepam
p4273
sI4295
Voxidized
p4274
sI4296
Voxipurinol
p4275
sI4297
Voxo
p4276
sI4298
Voxolinic
p4277
sI4299
Voxybutynin
p4278
sI4300
Voxygen
p4279
sI4301
Voxypurines
p4280
sI4302
Voxytocics
p4281
sI4303
Voz
p4282
sI4304
Vp
sI4305
Vp.o
p4283
sI4306
Vp9
p4284
sI4307
VpH
p4285
sI4308
Vpackage
p4286
sI4309
Vpaclitaxel
p4287
sI4310
Vpain
p4288
sI4311
Vpains
p4289
sI4312
Vpalmetto
p4290
sI4313
Vpancreatitis
p4291
sI4314
Vpancuronium
p4292
sI4315
Vpara
p4293
sI4316
Vparameter
p4294
sI4317
Vparasympathomimetic
p4295
sI4318
Vparent
p4296
sI4319
Vparenteral
p4297
sI4320
Vparentheses
p4298
sI4321
Vparesthesia
p4299
sI4322
Vparicalcitol
p4300
sI4323
Vparoxetine
p4301
sI4324
Vpassive
p4302
sI4325
Vpathologist
p4303
sI4326
Vpatient
p4304
sI4327
Vpatients
p4305
sI4328
Vpaw
p4306
sI4329
Vpectoris
p4307
sI4330
Vpediatric
p4308
sI4331
Vpegaptanib
p4309
sI4332
Vpeginterferon
p4310
sI4333
Vpemoline
p4311
sI4334
Vpemphigoid
p4312
sI4335
Vpenicillin
p4313
sI4336
Vpentostatin
p4314
sI4337
Vpeptidase
p4315
sI4338
Vperforatum
p4316
sI4339
Vperformance
p4317
sI4340
Vperhaps
p4318
sI4341
Vperindopril
p4319
sI4342
Vperipheral
p4320
sI4343
Vperphenazine
p4321
sI4344
Vpersists
p4322
sI4345
Vperson
p4323
sI4346
Vpharmacodynamic
p4324
sI4347
Vpharmacodynamics
p4325
sI4348
Vpharmacokinetics
p4326
sI4349
Vpharmacologically
p4327
sI4350
Vphase
p4328
sI4351
Vphenobarbital
p4329
sI4352
Vphenothiazines
p4330
sI4353
Vphenotype
p4331
sI4354
Vphenyl
p4332
sI4355
Vphenylbutazone
p4333
sI4356
Vphophatase
p4334
sI4357
Vphosphorous
p4335
sI4358
Vphosphorylation
p4336
sI4359
Vpicrate
p4337
sI4360
Vpill
p4338
sI4361
Vpills
p4339
sI4362
Vpimozide
p4340
sI4363
Vpioglitazone
p4341
sI4364
Vpiperacillin
p4342
sI4365
Vplasmaconcentrations
p4343
sI4366
Vplasmacytic
p4344
ss.