(dp1
S'id_to_char'
p2
(dp3
I0
Ve
sI1
Vi
sI2
Vt
sI3
Vn
sI4
Va
sI5
Vo
sI6
Vr
sI7
Vs
sI8
Vc
sI9
Vd
sI10
Vl
sI11
Vh
sI12
Vm
sI13
Vu
sI14
Vp
sI15
Vf
sI16
Vy
sI17
Vg
sI18
Vb
sI19
Vv
sI20
Vw
sI21
V.
sI22
V9
sI23
VA
sI24
VC
sI25
Vx
sI26
VI
sI27
Vz
sI28
VT
sI29
V-
sI30
Vk
sI31
VP
sI32
V(
sI33
V)
sI34
VD
sI35
VN
sI36
VS
sI37
VE
sI38
V:
sI39
VR
sI40
VO
sI41
VL
sI42
VM
sI43
VY
sI44
V%
sI45
V/
sI46
VB
sI47
Vq
sI48
VH
sI49
VU
sI50
VV
sI51
Vj
sI52
V;
sI53
VF
sI54
VG
sI55
VX
sI56
VW
sI57
VK
sI58
VQ
sI59
VZ
sI60
V=
sI61
V[
sI62
V]
sI63
V*
sI64
VJ
sI65
V'
sI66
V~
sI67
V+
sI68
V_
sI69
V#
sI70
V<
sI71
V`
sI72
V>
sI73
V?
ssS'id_to_tag'
p4
(dp5
I0
VO
sI1
VB-Drug
p6
sI2
VB-Group
p7
sI3
VI-Group
p8
sI4
VB-Brand
p9
sI5
VI-Drug
p10
sI6
VB-Drug_n
p11
sI7
VI-Brand
p12
sI8
VI-Drug_n
p13
ssS'id_to_word'
p14
(dp15
I0
S'<UNK>'
p16
sI1
V.
sI2
Vof
p17
sI3
Vthe
p18
sI4
Vand
p19
sI5
V9
sI6
Vin
p20
sI7
Vwith
p21
sI8
V-
sI9
Vto
p22
sI10
V(
sI11
V)
sI12
Vbe
p23
sI13
Vor
p24
sI14
Vmay
p25
sI15
Vis
p26
sI16
Va
sI17
V:
sI18
Vnot
p27
sI19
Vshould
p28
sI20
Vpatients
p29
sI21
Vbeen
p30
sI22
Vdrugs
p31
sI23
Vby
p32
sI24
Vhave
p33
sI25
Vthat
p34
sI26
Vfor
p35
sI27
Vother
p36
sI28
Von
p37
sI29
V/
sI30
V%
sI31
Vmg
p38
sI32
VThe
p39
sI33
Vare
p40
sI34
Vwhen
p41
sI35
Vas
p42
sI36
Vadministration
p43
sI37
Vplasma
p44
sI38
Veffect
p45
sI39
Vhas
p46
sI40
Veffects
p47
sI41
Vdose
p48
sI42
Vincrease
p49
sI43
Vdrug
p50
sI44
Vagents
p51
sI45
Vlevels
p52
sI46
VIn
p53
sI47
Vadministered
p54
sI48
Vincreased
p55
sI49
V;
sI50
Vwas
p56
sI51
Vsuch
p57
sI52
Vuse
p58
sI53
Vused
p59
sI54
Vstudies
p60
sI55
Van
p61
sI56
Vthese
p62
sI57
Vconcentrations
p63
sI58
Vwere
p64
sI59
Vconcomitant
p65
sI60
Vinhibitors
p66
sI61
Vno
p67
sI62
Vreceiving
p68
sI63
Vinteraction
p69
sI64
Vtherapy
p70
sI65
Vreported
p71
sI66
VCYP9A9
p72
sI67
Vclinical
p73
sI68
Voral
p74
sI69
Vconcomitantly
p75
sI70
Vdecrease
p76
sI71
Vinteractions
p77
sI72
Vserum
p78
sI73
Vwarfarin
p79
sI74
Ve.g.
p80
sI75
Vat
p81
sI76
Vgiven
p82
sI77
Vmetabolism
p83
sI78
Vdoses
p84
sI79
Vphenytoin
p85
sI80
Vclearance
p86
sI81
Vdigoxin
p87
sI82
Vobserved
p88
sI83
Vrecommended
p89
sI84
Vfrom
p90
sI85
Vthis
p91
sI86
Vsignificant
p92
sI87
Vdecreased
p93
sI88
VDrug
p94
sI89
Vstudy
p95
sI90
VAUC
p96
sI91
VNo
p97
sI92
VP9
p98
sI93
Vif
p99
sI94
Vpharmacokinetics
p100
sI95
Vcan
p101
sI96
Vcombination
p102
sI97
Vcaution
p103
sI98
Vtreatment
p104
sI99
Vrenal
p105
sI100
Vfollowing
p106
sI101
Vknown
p107
sI102
Vblood
p108
sI103
Vtime
p109
sI104
VTherefore
p110
sI105
Vwhich
p111
sI106
Vafter
p112
sI107
VDrugs
p113
sI108
Vday
p114
sI109
Vtaking
p115
sI110
Vvitro
p116
sI111
Vpotential
p117
sI112
Vincluding
p118
sI113
Vacid
p119
sI114
Vdosage
p120
sI115
Vmetabolized
p121
sI116
VInteractions
p122
sI117
Veither
p123
sI118
Vlithium
p124
sI119
Vresult
p125
sI120
Valso
p126
sI121
Vconcentration
p127
sI122
Vit
p128
sI123
Vdays
p129
sI124
Vdid
p130
sI125
Vduring
p131
sI126
Vabsorption
p132
sI127
Vcytochrome
p133
sI128
Vreduced
p134
sI129
Vits
p135
sI130
Vbeta
p136
sI131
Vpatient
p137
sI132
Vmonitored
p138
sI133
Vclinically
p139
sI134
Vconcurrently
p140
sI135
Vinhibit
p141
sI136
Vtoxicity
p142
sI137
Vcause
p143
sI138
Vsome
p144
sI139
Vtheophylline
p145
sI140
VConcomitant
p146
sI141
Vactivity
p147
sI142
Vapproximately
p148
sI143
Vco
p149
sI144
Vbetween
p150
sI145
VCNS
p151
sI146
Vdiuretics
p152
sI147
Vprothrombin
p153
sI148
Vthan
p154
sI149
Vantidepressants
p155
sI150
Vrisk
p156
sI151
Vshown
p157
sI152
Vcoadministered
p158
sI153
Vhours
p159
sI154
Vinhibitor
p160
sI155
Vwho
p161
sI156
Vhealthy
p162
sI157
Vblocking
p163
sI158
VThere
p164
sI159
Vmedications
p165
sI160
Vone
p166
sI161
Vtricyclic
p167
sI162
Valcohol
p168
sI163
Vdaily
p169
sI164
Vsubjects
p170
sI165
Vblockers
p171
sI166
Vcontaining
p172
sI167
Vketoconazole
p173
sI168
Vpharmacokinetic
p174
sI169
Vthere
p175
sI170
Vtreated
p176
sI171
VA
sI172
Vincreases
p177
sI173
VPatients
p178
sI174
Vsingle
p179
sI175
VThis
p180
sI176
VOther
p181
sI177
Vany
p182
sI178
Vbut
p183
sI179
Vpossible
p184
sI180
Vassociated
p185
sI181
Vbecause
p186
sI182
VWhen
p187
sI183
Voccur
p188
sI184
Vsodium
p189
sI185
Vadverse
p190
sI186
Vaffect
p191
sI187
Vexpected
p192
sI188
V9A9
p193
sI189
Vbinding
p194
sI190
Venzyme
p195
sI191
Vcoadministration
p196
sI192
Vreduce
p197
sI193
Vresponse
p198
sI194
Vanti
p199
sI195
Vanticoagulants
p200
sI196
Vaspirin
p201
sI197
Vtherapeutic
p202
sI198
Vadditive
p203
sI199
Vcarbamazepine
p204
sI200
Vboth
p205
sI201
Vcalcium
p206
sI202
Venzymes
p207
sI203
Vinterfere
p208
sI204
Vstudied
p209
sI205
Vvitamin
p210
sI206
Vvolunteers
p211
sI207
VHowever
p212
sI208
Vaction
p213
sI209
Vcontraceptives
p214
sI210
Vfunction
p215
sI211
Vresulted
p216
sI212
VIf
p217
sI213
Vbefore
p218
sI214
Vfold
p219
sI215
Vmonitoring
p220
sI216
VAlthough
p221
sI217
VIt
p222
sI218
Vadjustment
p223
sI219
Valone
p224
sI220
Vcimetidine
p225
sI221
Vnecessary
p226
sI222
Vsystem
p227
sI223
Vanticoagulant
p228
sI224
Vdata
p229
sI225
Vhuman
p230
sI226
Vinhibition
p231
sI227
Vreduction
p232
sI228
VCoadministration
p233
sI229
Vclosely
p234
sI230
Vconducted
p235
sI231
Vcyclosporine
p236
sI232
Vtaken
p237
sI233
Vconcurrent
p238
sI234
Vchanges
p239
sI235
Vdoes
p240
sI236
Vglucose
p241
sI237
Vstate
p242
sI238
VBecause
p243
sI239
VThese
p244
sI240
Vbleeding
p245
sI241
Vmean
p246
sI242
Vreports
p247
sI243
Vhad
p248
sI244
Vtheir
p249
sI245
Vadrenergic
p250
sI246
Vpotassium
p251
sI247
Vsevere
p252
sI248
VNSAIDs
p253
sI249
Vconsidered
p254
sI250
Verythromycin
p255
sI251
Vmethotrexate
p256
sI252
Vsimilar
p257
sI253
VCYP
p258
sI254
VCmax
p259
sI255
VLaboratory
p260
sI256
Vnormal
p261
sI257
Voxidase
p262
sI258
Vtrials
p263
sI259
VCYP9D9
p264
sI260
Vantibiotics
p265
sI261
Vcorticosteroids
p266
sI262
Vliver
p267
sI263
Vlower
p268
sI264
Vreactions
p269
sI265
Vsignificantly
p270
sI266
Vusing
p271
sI267
VCaution
p272
sI268
VMAO
p273
sI269
Vdue
p274
sI270
Vefficacy
p275
sI271
Vprotein
p276
sI272
Vsteady
p277
sI273
Valter
p278
sI274
Vantihypertensive
p279
sI275
Venhance
p280
sI276
Vhigh
p281
sI277
Vphenobarbital
p282
sI278
Vresults
p283
sI279
Vanticholinergic
p284
sI280
Vhalf
p285
sI281
Vinteract
p286
sI282
Vkg
p287
sI283
Vlife
p288
sI284
Vpotentiate
p289
sI285
Vrequired
p290
sI286
Vtests
p291
sI287
Vtwo
p292
sI288
Vwell
p293
sI289
V9D9
p294
sI290
Vavoided
p295
sI291
Vcertain
p296
sI292
Vhigher
p297
sI293
Vinflammatory
p298
sI294
Vproduce
p299
sI295
Vtest
p300
sI296
VTest
p301
sI297
Vaddition
p302
sI298
Vcardiac
p303
sI299
Vexposure
p304
sI300
Vtherefore
p305
sI301
Vexcretion
p306
sI302
Vmore
p307
sI303
Vrifampin
p308
sI304
Vwithout
p309
sI305
VACE
p310
sI306
Vquinidine
p311
sI307
Vthyroid
p312
sI308
VAgents
p313
sI309
VCYP9C9
p314
sI310
VSince
p315
sI311
Vhepatic
p316
sI312
Vresulting
p317
sI313
Vevidence
p318
sI314
Vphenothiazines
p319
sI315
Vsubstrate
p320
sI316
Vcould
p321
sI317
Vpropranolol
p322
sI318
VInhibitors
p323
sI319
Vamiodarone
p324
sI320
Vhypotension
p325
sI321
Vindicate
p326
sI322
Vinduce
p327
sI323
Vthey
p328
sI324
Vtimes
p329
sI325
Vgastrointestinal
p330
sI326
Vmetabolite
p331
sI327
Vpotent
p332
sI328
Vreaction
p333
sI329
Vthose
p334
sI330
VCo
p335
sI331
Vbarbiturates
p336
sI332
Vsecretion
p337
sI333
Vabout
p338
sI334
Vcompared
p339
sI335
Veg
p340
sI336
Vperformed
p341
sI337
Vpressure
p342
sI338
Vproducts
p343
sI339
Vrate
p344
sI340
VD
sI341
Vactive
p345
sI342
Vadvised
p346
sI343
Vdiazepam
p347
sI344
Vinducers
p348
sI345
Vleast
p349
sI346
Vprior
p350
sI347
Vterfenadine
p351
sI348
VConcurrent
p352
sI349
Vbenzodiazepines
p353
sI350
Vbioavailability
p354
sI351
Vbound
p355
sI352
Vestradiol
p356
sI353
Vfurosemide
p357
sI354
Vhydrochloride
p358
sI355
Vlevel
p359
sI356
VmL
p360
sI357
Vmonoamine
p361
sI358
Vrespectively
p362
sI359
V[
sI360
V]
sI361
Vaffected
p363
sI362
Vchange
p364
sI363
Vdepressants
p365
sI364
Vlead
p366
sI365
Vnon
p367
sI366
Vproduced
p368
sI367
Vserious
p369
sI368
Vvivo
p370
sI369
V9C9
p371
sI370
VAprepitant
p372
sI371
Vantacids
p373
sI372
Vantagonists
p374
sI373
Vbased
p375
sI374
Vdiuretic
p376
sI375
Vexercised
p377
sI376
Vhowever
p378
sI377
Vpreparations
p379
sI378
Vurine
p380
sI379
Vagent
p381
sI380
Vcontrol
p382
sI381
Vcontrolled
p383
sI382
Velimination
p384
sI383
Vevaluated
p385
sI384
Vevents
p386
sI385
Vexperience
p387
sI386
Vfluconazole
p388
sI387
Vinclude
p389
sI388
Vmagnesium
p390
sI389
Vmultiple
p391
sI390
Vpotentiated
p392
sI391
Vprolongation
p393
sI392
Vside
p394
sI393
Vwould
p395
sI394
VKetoconazole
p396
sI395
Vdepression
p397
sI396
Vdiltiazem
p398
sI397
Vdosing
p399
sI398
Vinterval
p400
sI399
Vintravenous
p401
sI400
Vmuscle
p402
sI401
Vparticularly
p403
sI402
Vsubstrates
p404
sI403
Vurinary
p405
sI404
Vweeks
p406
sI405
VCimetidine
p407
sI406
VOral
p408
sI407
VPhenytoin
p409
sI408
Vcombined
p410
sI409
Vdemonstrated
p411
sI410
Vestablished
p412
sI411
Vextent
p413
sI412
Vformal
p414
sI413
Vfound
p415
sI414
Vinsulin
p416
sI415
Vlaboratory
p417
sI416
Vneuromuscular
p418
sI417
Vonce
p419
sI418
Vpossibility
p420
sI419
Vpresence
p421
sI420
Vsigns
p422
sI421
Vsmall
p423
sI422
Vsuggest
p424
sI423
Vsystemic
p425
sI424
Vthiazide
p426
sI425
Vtotal
p427
sI426
Vtype
p428
sI427
Vunknown
p429
sI428
Vwithin
p430
sI429
Vcisapride
p431
sI430
Vcoumarin
p432
sI431
Vespecially
p433
sI432
Vfluoxetine
p434
sI433
Vindinavir
p435
sI434
Vplatelet
p436
sI435
Vprolonged
p437
sI436
Vrelated
p438
sI437
Vritonavir
p439
sI438
Vseen
p440
sI439
Vup
p441
sI440
VHCl
p442
sI441
VINR
p443
sI442
Vadministering
p444
sI443
Vanesthetics
p445
sI444
Vantihistamines
p446
sI445
Vcarefully
p447
sI446
Vcompounds
p448
sI447
Vdigitalis
p449
sI448
Velevated
p450
sI449
Vfluvoxamine
p451
sI450
Vimportant
p452
sI451
Vindicated
p453
sI452
Vrequire
p454
sI453
Vsignificance
p455
sI454
VTCA
p456
sI455
VUse
p457
sI456
Vcareful
p458
sI457
Vchronic
p459
sI458
Vclass
p460
sI459
Vglyburide
p461
sI460
Vincidence
p462
sI461
Vincreasing
p463
sI462
Vpotentially
p464
sI463
Vrange
p465
sI464
Vsymptoms
p466
sI465
Vtablets
p467
sI466
Vwhile
p468
sI467
VLithium
p469
sI468
Vanother
p470
sI469
Vavailable
p471
sI470
Vchannel
p472
sI471
Vdepressant
p473
sI472
Vhypotensive
p474
sI473
Vlike
p475
sI474
Vn=9
p476
sI475
Vprobenecid
p477
sI476
Vprolong
p478
sI477
Vsafety
p479
sI478
Vunder
p480
sI479
Vvalues
p481
sI480
VAn
p482
sI481
VAs
p483
sI482
VBID
p484
sI483
VTablets
p485
sI484
Valuminum
p486
sI485
Varrhythmias
p487
sI486
Vbeing
p488
sI487
Vclarithromycin
p489
sI488
Vethinyl
p490
sI489
Vhormone
p491
sI490
Vindomethacin
p492
sI491
Vless
p493
sI492
Vmidazolam
p494
sI493
Vnifedipine
p495
sI494
Vpositive
p496
sI495
Vreceived
p497
sI496
Vwill
p498
sI497
VP
sI498
Valtered
p499
sI499
Vavoid
p500
sI500
Vcontraceptive
p501
sI501
Vheart
p502
sI502
Vhypertension
p503
sI503
Vitraconazole
p504
sI504
Vlikely
p505
sI505
Vonly
p506
sI506
Vsame
p507
sI507
VDigoxin
p508
sI508
VInteraction
p509
sI509
Vagonists
p510
sI510
Vall
p511
sI511
Valprazolam
p512
sI512
Vantidepressant
p513
sI513
Vappropriate
p514
sI514
Vdecreases
p515
sI515
Vdiscontinued
p516
sI516
Vdisease
p517
sI517
Vdopamine
p518
sI518
Vheparin
p519
sI519
Vhour
p520
sI520
Vinhibits
p521
sI521
Vinitiation
p522
sI522
Viron
p523
sI523
Vlow
p524
sI524
Vmetabolizers
p525
sI525
Vverapamil
p526
sI526
VB
sI527
VClinical
p527
sI528
VVardenafil
p528
sI529
Vacetaminophen
p529
sI530
Vcases
p530
sI531
Vhighly
p531
sI532
Vhypoglycemic
p532
sI533
Vsince
p533
sI534
Vspecific
p534
sI535
Vunlikely
p535
sI536
VAdministration
p536
sI537
VAnticoagulants
p537
sI538
VIncreased
p538
sI539
Vanalgesics
p539
sI540
Vcoagulation
p540
sI541
Vderivatives
p541
sI542
Veach
p542
sI543
Veffectiveness
p543
sI544
Vgreater
p544
sI545
Vinducer
p545
sI546
Vmust
p546
sI547
Vnonsteroidal
p547
sI548
Vrelaxants
p548
sI549
Vrelevant
p549
sI550
Vsalicylate
p550
sI551
Vstable
p551
sI552
Vsupplements
p552
sI553
Vtubular
p553
sI554
Vvaldecoxib
p554
sI555
VAspirin
p555
sI556
VCoA
p556
sI557
VHMG
p557
sI558
VK
sI559
VTAXOL
p558
sI560
Vatorvastatin
p559
sI561
Vcaused
p560
sI562
Vcommonly
p561
sI563
Vcontraindicated
p562
sI564
Vepinephrine
p563
sI565
Vgastric
p564
sI566
Vinduced
p565
sI567
Vleading
p566
sI568
Vmechanism
p567
sI569
Vmediated
p568
sI570
Vmedication
p569
sI571
Vpressor
p570
sI572
Vsuccinylcholine
p571
sI573
Vtwice
p572
sI574
Vyou
p573
sI575
VL
sI576
VSerum
p574
sI577
Vadjustments
p575
sI578
Vallopurinol
p576
sI579
Vcaffeine
p577
sI580
Vcentral
p578
sI581
Vfalse
p579
sI582
Vg
sI583
Vgeneral
p580
sI584
Vibuprofen
p581
sI585
Vinfluence
p582
sI586
Vinitial
p583
sI587
Vloss
p584
sI588
Vnervous
p585
sI589
Vparoxetine
p586
sI590
Vperiod
p587
sI591
Vregimen
p588
sI592
Vtoxic
p589
sI593
Vusual
p590
sI594
Vvalproate
p591
sI595
VINDOCIN
p592
sI596
VProbenecid
p593
sI597
VQT
p594
sI598
VWarfarin
p595
sI599
Vadjusted
p596
sI600
Vdesired
p597
sI601
Venhanced
p598
sI602
Vhypoglycemia
p599
sI603
Visoniazid
p600
sI604
Vmale
p601
sI605
Vmaximum
p602
sI606
Vmetabolic
p603
sI607
Vmetabolites
p604
sI608
Vparameters
p605
sI609
Vprimarily
p606
sI610
Vproteins
p607
sI611
Vsedative
p608
sI612
Vsee
p609
sI613
Vserotonin
p610
sI614
Vstrong
p611
sI615
Vsynthesis
p612
sI616
Vtolbutamide
p613
sI617
Vwithdrawn
p614
sI618
Vzalcitabine
p615
sI619
VC
sI620
VDay
p616
sI621
VH9
p617
sI622
VMay
p618
sI623
VQTc
p619
sI624
VT9
p620
sI625
VThus
p621
sI626
VWhile
p622
sI627
Varipiprazole
p623
sI628
Vcautiously
p624
sI629
Vciprofloxacin
p625
sI630
Vclonidine
p626
sI631
Vdexamethasone
p627
sI632
Velevations
p628
sI633
Vescitalopram
p629
sI634
Vfelodipine
p630
sI635
Vhypokalemia
p631
sI636
Vinformation
p632
sI637
Vinhibited
p633
sI638
Vinitiating
p634
sI639
Vinjection
p635
sI640
Vmedicines
p636
sI641
Vminutes
p637
sI642
Vnaproxen
p638
sI643
Vneed
p639
sI644
Vnelfinavir
p640
sI645
Vnorepinephrine
p641
sI646
Vpeak
p642
sI647
Vpharmacodynamic
p643
sI648
Vpoor
p644
sI649
Vprofile
p645
sI650
Vprotease
p646
sI651
Vreserpine
p647
sI652
Vrifabutin
p648
sI653
Vsaquinavir
p649
sI654
Vshowed
p650
sI655
Vsites
p651
sI656
Vsparing
p652
sI657
Vsympathomimetic
p653
sI658
Vtogether
p654
sI659
Vtranquilizers
p655
sI660
Vventricular
p656
sI661
Vvia
p657
sI662
Vweek
p658
sI663
VHIV
p659
sI664
VInjection
p660
sI665
VSSRIs
p661
sI666
VSUSTIVA
p662
sI667
VVIRACEPT
p663
sI668
VWith
p664
sI669
Vappear
p665
sI670
Vbody
p666
sI671
Vcardiovascular
p667
sI672
Vdegree
p668
sI673
Vdiclofenac
p669
sI674
Vestrogens
p670
sI675
Vfailure
p671
sI676
Vfirst
p672
sI677
Vflecainide
p673
sI678
Vhormonal
p674
sI679
Vhydrochlorothiazide
p675
sI680
Vlovastatin
p676
sI681
Vmost
p677
sI682
Vobtained
p678
sI683
Voccurred
p679
sI684
Vperipheral
p680
sI685
Vquinolones
p681
sI686
Vranitidine
p682
sI687
Vreceptor
p683
sI688
Vreductase
p684
sI689
Vsedation
p685
sI690
Vsedatives
p686
sI691
Vselective
p687
sI692
Vseveral
p688
sI693
Vsteroidal
p689
sI694
Vsteroids
p690
sI695
Vthree
p691
sI696
Vthrough
p692
sI697
Vtiagabine
p693
sI698
Vwhether
p694
sI699
V*
sI700
VBased
p695
sI701
VBeta
p696
sI702
VCarbamazepine
p697
sI703
VDuloxetine
p698
sI704
VEffect
p699
sI705
VQD
p700
sI706
VStudies
p701
sI707
Vbosentan
p702
sI708
Vcreatinine
p703
sI709
Vdiflunisal
p704
sI710
Veffective
p705
sI711
Vevery
p706
sI712
Vezetimibe
p707
sI713
Vimpaired
p708
sI714
Vinduction
p709
sI715
Vinfusion
p710
sI716
Vinhibitory
p711
sI717
Vinitiated
p712
sI718
Vintake
p713
sI719
Vmight
p714
sI720
Vneeded
p715
sI721
Vplacebo
p716
sI722
Vrats
p717
sI723
Vrelease
p718
sI724
Vtacrolimus
p719
sI725
Vtriazolam
p720
sI726
Vzaleplon
p721
sI727
VCLINICAL
p722
sI728
VPHARMACOLOGY
p723
sI729
VPlasma
p724
sI730
VS
sI731
VVitamin
p725
sI732
Vadditional
p726
sI733
Vamphotericin
p727
sI734
Vantacid
p728
sI735
Vanticonvulsant
p729
sI736
Vastemizole
p730
sI737
Vbasis
p731
sI738
Vcaptopril
p732
sI739
Vcase
p733
sI740
Vcholestyramine
p734
sI741
Vcitalopram
p735
sI742
Vdo
p736
sI743
Vefavirenz
p737
sI744
Vergot
p738
sI745
Vfree
p739
sI746
Vgabapentin
p740
sI747
Vglycosides
p741
sI748
Vhypnotics
p742
sI749
Vinhibiting
p743
sI750
Vlong
p744
sI751
Vlowering
p745
sI752
Vmade
p746
sI753
Vmaintain
p747
sI754
Vmajor
p748
sI755
Vmetformin
p749
sI756
Vmetoclopramide
p750
sI757
Vnondepolarizing
p751
sI758
Vprescribed
p752
sI759
Vprostaglandin
p753
sI760
Vreuptake
p754
sI761
Vsolution
p755
sI762
Vthus
p756
sI763
Vuntil
p757
sI764
Vusually
p758
sI765
Vvariety
p759
sI766
VAntacids
p760
sI767
VCYP9A
p761
sI768
VCholestyramine
p762
sI769
VContraceptives
p763
sI770
VCorticosteroids
p764
sI771
VDose
p765
sI772
VFurosemide
p766
sI773
VII
p767
sI774
VSome
p768
sI775
Vacting
p769
sI776
Vadded
p770
sI777
Vampicillin
p771
sI778
Vantagonize
p772
sI779
Vazithromycin
p773
sI780
Vcells
p774
sI781
Vdepleting
p775
sI782
Vdihydroergotamine
p776
sI783
Vdiscontinuation
p777
sI784
Vduration
p778
sI785
Vetc
p779
sI786
Vfelbamate
p780
sI787
Vfemale
p781
sI788
Vgenerally
p782
sI789
Vhumans
p783
sI790
Vlarge
p784
sI791
Vmany
p785
sI792
Vmesylate
p786
sI793
Vmetabolizing
p787
sI794
Vomeprazole
p788
sI795
Vover
p789
sI796
Vrare
p790
sI797
Vrat
p791
sI798
Vrelationship
p792
sI799
Vrespiratory
p793
sI800
Vthiazides
p794
sI801
Vvardenafil
p795
sI802
Vyour
p796
sI803
VAlcohol
p797
sI804
VCI
p798
sI805
VCyclosporine
p799
sI806
VCytochrome
p800
sI807
VDiuretics
p801
sI808
VECG
p802
sI809
VPEGASYS
p803
sI810
VTheophylline
p804
sI811
VUSP
p805
sI812
VVIOXX
p806
sI813
VXENICAL
p807
sI814
Vacute
p808
sI815
Vaggregation
p809
sI816
Valthough
p810
sI817
Vaminoglycosides
p811
sI818
Vanesthesia
p812
sI819
Vazathioprine
p813
sI820
Vblock
p814
sI821
Vbradycardia
p815
sI822
Vcapsules
p816
sI823
Vcatecholamines
p817
sI824
Vcolestipol
p818
sI825
Vconduction
p819
sI826
Vconjunction
p820
sI827
Vconsideration
p821
sI828
Vcourse
p822
sI829
Vdiscontinuing
p823
sI830
Vdisopyramide
p824
sI831
Vdisulfiram
p825
sI832
Vethanol
p826
sI833
Vfrequent
p827
sI834
Vguanethidine
p828
sI835
Vhaloperidol
p829
sI836
Vhypercalcemia
p830
sI837
Vinto
p831
sI838
Visozyme
p832
sI839
Vjuice
p833
sI840
Vlevodopa
p834
sI841
Vlocal
p835
sI842
Vnarrow
p836
sI843
Vnorethindrone
p837
sI844
Vorally
p838
sI845
Vphosphate
p839
sI846
Vpossibly
p840
sI847
Vprocainamide
p841
sI848
Vresponsible
p842
sI849
Vsimultaneous
p843
sI850
Vsteroid
p844
sI851
Vtrough
p845
sI852
Vunchanged
p846
sI853
Vweekly
p847
sI854
Vwithdrawal
p848
sI855
VAEDs
p849
sI856
VAccutane
p850
sI857
VCombination
p851
sI858
VDigitalis
p852
sI859
VPotassium
p853
sI860
VPotential
p854
sI861
VSSRI
p855
sI862
VThat
p856
sI863
Vacetate
p857
sI864
Valpha
p858
sI865
Vaminoglycoside
p859
sI866
Vamphetamines
p860
sI867
Vapparent
p861
sI868
Vatropine
p862
sI869
Vbelow
p863
sI870
Vbupropion
p864
sI871
Vclose
p865
sI872
Vcomplications
p866
sI873
Vcorticosteroid
p867
sI874
Vdetermined
p868
sI875
Vexcessive
p869
sI876
Vfatal
p870
sI877
Vimpairment
p871
sI878
Visoenzymes
p872
sI879
Visozymes
p873
sI880
Visradipine
p874
sI881
Vmacrolide
p875
sI882
Vmaintenance
p876
sI883
Vmarketing
p877
sI884
Vmcg
p878
sI885
Vmethadone
p879
sI886
Vmethyldopa
p880
sI887
Vmonitor
p881
sI888
Vnarcotics
p882
sI889
Vnoted
p883
sI890
Vnumber
p884
sI891
Vopioids
p885
sI892
Vothers
p886
sI893
Vpharmacodynamics
p887
sI894
Vphenylbutazone
p888
sI895
Vphysician
p889
sI896
Vproperties
p890
sI897
Vquinolone
p891
sI898
Vrequirements
p892
sI899
Vshow
p893
sI900
Vsimultaneously
p894
sI901
Vsumatriptan
p895
sI902
Vtake
p896
sI903
Vthreatening
p897
sI904
Vtreat
p898
sI905
Vyears
p899
sI906
V9%
p900
sI907
VAmphetamines
p901
sI908
VBezalip
p902
sI909
VConsequently
p903
sI910
VDue
p904
sI911
VMetabolized
p905
sI912
VMethotrexate
p906
sI913
VNIMBEX
p907
sI914
VNon
p908
sI915
VPhenobarbital
p909
sI916
VRifampin
p910
sI917
VTIKOSYN
p911
sI918
VTORADOL
p912
sI919
VVIDEX
p913
sI920
VVII
p914
sI921
Vadults
p915
sI922
Vadvisable
p916
sI923
Vagainst
p917
sI924
Valterations
p918
sI925
Vantidiabetic
p919
sI926
Vappears
p920
sI927
Vattributed
p921
sI928
Vbone
p922
sI929
Vcauses
p923
sI930
Vcausing
p924
sI931
Vclozapine
p925
sI932
Vdiabetic
p926
sI933
Vdidanosine
p927
sI934
Vdosed
p928
sI935
Vexperienced
p929
sI936
Vfactors
p930
sI937
Vfrequently
p931
sI938
Vfurther
p932
sI939
Vindividuals
p933
sI940
Vintervals
p934
sI941
Vintestinal
p935
sI942
Vlimited
p936
sI943
Vlisted
p937
sI944
Vmethod
p938
sI945
Vmyopathy
p939
sI946
Vnephrotoxicity
p940
sI947
Vnevirapine
p941
sI948
Vnitrates
p942
sI949
Vobservation
p943
sI950
Voccurs
p944
sI951
Vopioid
p945
sI952
Vorder
p946
sI953
Vplus
p947
sI954
Vpost
p948
sI955
Vpresent
p949
sI956
Vrelevance
p950
sI957
Vresin
p951
sI958
Vsubstances
p952
sI959
Vsufficient
p953
sI960
Vsynergistic
p954
sI961
Vtetracyclines
p955
sI962
Vthen
p956
sI963
Vtitrated
p957
sI964
Vtopical
p958
sI965
Vunless
p959
sI966
Vvalproic
p960
sI967
Vweakness
p961
sI968
Vwhere
p962
sI969
Vzidovudine
p963
sI970
VCertain
p964
sI971
VCmin
p965
sI972
VDuring
p966
sI973
VErythromycin
p967
sI974
VFor
p968
sI975
VGleevec
p969
sI976
VItraconazole
p970
sI977
VNevertheless
p971
sI978
VPRINIVIL
p972
sI979
VSt.
p973
sI980
VSuch
p974
sI981
VTable
p975
sI982
VTricyclic
p976
sI983
Vabove
p977
sI984
Vactions
p978
sI985
Vagonist
p979
sI986
Valkaloids
p980
sI987
Valosetron
p981
sI988
Valready
p982
sI989
Vamphetamine
p983
sI990
Vassociation
p984
sI991
Vaverage
p985
sI992
Vb
sI993
Vbecome
p986
sI994
Vcare
p987
sI995
Vcerivastatin
p988
sI996
Vchemotherapy
p989
sI997
Vcisplatin
p990
sI998
Vcomplex
p991
sI999
Vconvulsions
p992
sI1000
Vdependent
p993
sI1001
Vdesipramine
p994
sI1002
Vdiagnostic
p995
sI1003
Ve.g
p996
sI1004
Venalapril
p997
sI1005
Vergotamine
p998
sI1006
Vestrogen
p999
sI1007
Veven
p1000
sI1008
Vfew
p1001
sI1009
Vflurbiprofen
p1002
sI1010
Vfollowed
p1003
sI1011
Vfood
p1004
sI1012
Vform
p1005
sI1013
Vgroup
p1006
sI1014
Vhistory
p1007
sI1015
Vindividual
p1008
sI1016
Vlamivudine
p1009
sI1017
Vlomefloxacin
p1010
sI1018
Vmarrow
p1011
sI1019
Vmax
p1012
sI1020
Vmorphine
p1013
sI1021
Vnatriuretic
p1014
sI1022
Vpediatric
p1015
sI1023
Vpharmacologic
p1016
sI1024
Vprimary
p1017
sI1025
Vprimidone
p1018
sI1026
Vregarding
p1019
sI1027
Vrepeated
p1020
sI1028
Vreplacement
p1021
sI1029
Vsalt
p1022
sI1030
Vsalts
p1023
sI1031
Vsertraline
p1024
sI1032
Vskin
p1025
sI1033
Vsulfate
p1026
sI1034
Vtachycardia
p1027
sI1035
Vtransport
p1028
sI1036
Vtrial
p1029
sI1037
Vtriamterene
p1030
sI1038
Vvolume
p1031
sI1039
Vwarranted
p1032
sI1040
Vwhenever
p1033
sI1041
VAnti
p1034
sI1042
VBe
p1035
sI1043
VClozapine
p1036
sI1044
VDIFLUCAN
p1037
sI1045
VDays
p1038
sI1046
VEQUETROTM
p1039
sI1047
VEffects
p1040
sI1048
VFelbatol
p1041
sI1049
VGI
p1042
sI1050
VJohns
p1043
sI1051
VMAOI
p1044
sI1052
VPT
p1045
sI1053
VPharmacokinetic
p1046
sI1054
VSPRYCEL
p1047
sI1055
VSee
p1048
sI1056
VTCAs
p1049
sI1057
VThiazides
p1050
sI1058
VTreatment
p1051
sI1059
VUrinary
p1052
sI1060
VX
sI1061
Vabnormalities
p1053
sI1062
Vacitretin
p1054
sI1063
Vadequate
p1055
sI1064
Vaffecting
p1056
sI1065
Vamitriptyline
p1057
sI1066
Vanalgesic
p1058
sI1067
Vanesthetic
p1059
sI1068
Vantiarrhythmics
p1060
sI1069
Vanticholinesterase
p1061
sI1070
Vanticonvulsants
p1062
sI1071
Varea
p1063
sI1072
Vassessed
p1064
sI1073
Vatenolol
p1065
sI1074
Vb.i.d
p1066
sI1075
Vblocker
p1067
sI1076
Vcell
p1068
sI1077
Vcirculating
p1069
sI1078
Vdeath
p1070
sI1079
Vdetermine
p1071
sI1080
Vdiabetes
p1072
sI1081
Vdifferent
p1073
sI1082
Vdiminish
p1074
sI1083
Vdofetilide
p1075
sI1084
Velevation
p1076
sI1085
Vemployed
p1077
sI1086
Vepilepsy
p1078
sI1087
Vfactor
p1079
sI1088
Vglycoprotein
p1080
sI1089
Vgrapefruit
p1081
sI1090
Vhydroxide
p1082
sI1091
Vhyperglycemia
p1083
sI1092
Vingestion
p1084
sI1093
Vinvolved
p1085
sI1094
Vinvolving
p1086
sI1095
Visoenzyme
p1087
sI1096
Vketoprofen
p1088
sI1097
Vlevonorgestrel
p1089
sI1098
Vm9
p1090
sI1099
Vmarked
p1091
sI1100
Vmarkedly
p1092
sI1101
Vmedicinal
p1093
sI1102
Vmeloxicam
p1094
sI1103
Vmethods
p1095
sI1104
Vmethylprednisolone
p1096
sI1105
Vmicrograms
p1097
sI1106
Vmicrosomal
p1098
sI1107
Vmixed
p1099
sI1108
Vmoderate
p1100
sI1109
Vmotility
p1101
sI1110
Vmouth
p1102
sI1111
Vmyocardial
p1103
sI1112
Vnegative
p1104
sI1113
Vnor
p1105
sI1114
Vondansetron
p1106
sI1115
Vpenicillin
p1107
sI1116
Vpotentiation
p1108
sI1117
Vpregnancy
p1109
sI1118
Vpropafenone
p1110
sI1119
Vrarely
p1111
sI1120
Vreport
p1112
sI1121
Vrhabdomyolysis
p1113
sI1122
Vsalicylates
p1114
sI1123
Vstarted
p1115
sI1124
Vsucralfate
p1116
sI1125
Vsuggested
p1117
sI1126
Vsuggesting
p1118
sI1127
Vterm
p1119
sI1128
Vthereby
p1120
sI1129
Vweight
p1121
sI1130
Vwhom
p1122
sI1131
V=
sI1132
VAV
p1123
sI1133
VAnafranil
p1124
sI1134
VAntihistamines
p1125
sI1135
VB9
p1126
sI1136
VBlockers
p1127
sI1137
VBoth
p1128
sI1138
VCONTRAINDICATED
p1129
sI1139
VCRIXIVAN
p1130
sI1140
VCYP9
p1131
sI1141
VIM
p1132
sI1142
VInhibit
p1133
sI1143
VMHD
p1134
sI1144
VMefloquine
p1135
sI1145
VMetabolism
p1136
sI1146
VN
sI1147
VNonsteroidal
p1137
sI1148
VNovoLog
p1138
sI1149
VPROLEUKIN
p1139
sI1150
VPharmacokinetics
p1140
sI1151
VQuinolones
p1141
sI1152
VReports
p1142
sI1153
VTests
p1143
sI1154
VTrileptal
p1144
sI1155
VWort
p1145
sI1156
Valmotriptan
p1146
sI1157
Valteration
p1147
sI1158
Vanalogues
p1148
sI1159
Vangiotensin
p1149
sI1160
Vanimals
p1150
sI1161
Vantagonist
p1151
sI1162
Vantiarrhythmic
p1152
sI1163
Varterial
p1153
sI1164
Vassays
p1154
sI1165
Vazole
p1155
sI1166
Vbile
p1156
sI1167
Vcatecholamine
p1157
sI1168
Vcations
p1158
sI1169
Vcholesterol
p1159
sI1170
Vclonazepam
p1160
sI1171
Vconditions
p1161
sI1172
Vdelay
p1162
sI1173
Vdeterminations
p1163
sI1174
Vdextromethorphan
p1164
sI1175
Vdiminished
p1165
sI1176
Vdisplacement
p1166
sI1177
Vdoctor
p1167
sI1178
Vdoxorubicin
p1168
sI1179
Veliminated
p1169
sI1180
Venoxacin
p1170
sI1181
Vepoxide
p1171
sI1182
Vfertility
p1172
sI1183
Vformulation
p1173
sI1184
Vfraction
p1174
sI1185
Vfrequency
p1175
sI1186
Vgrepafloxacin
p1176
sI1187
Vhalothane
p1177
sI1188
Vimipramine
p1178
sI1189
Vindicates
p1179
sI1190
Vlabetalol
p1180
sI1191
Vlevetiracetam
p1181
sI1192
Vloratadine
p1182
sI1193
Vmeasured
p1183
sI1194
Vmedicine
p1184
sI1195
Vmetoprolol
p1185
sI1196
Vmicrosomes
p1186
sI1197
Vmontelukast
p1187
sI1198
Vmonths
p1188
sI1199
Vn
sI1200
Vnephrotoxic
p1189
sI1201
Vnicardipine
p1190
sI1202
Vnitroglycerin
p1191
sI1203
Vonset
p1192
sI1204
VpH
p1193
sI1205
Vpathway
p1194
sI1206
Vphysicians
p1195
sI1207
Vpopulation
p1196
sI1208
Vprednisolone
p1197
sI1209
Vproton
p1198
sI1210
Vpump
p1199
sI1211
Vreduces
p1200
sI1212
Vregimens
p1201
sI1213
Vrisks
p1202
sI1214
Vsafely
p1203
sI1215
Vsometimes
p1204
sI1216
Vstarting
p1205
sI1217
Vsulfamethoxazole
p1206
sI1218
Vtetracycline
p1207
sI1219
Vtherapies
p1208
sI1220
Vtransient
p1209
sI1221
Vtroleandomycin
p1210
sI1222
Vvery
p1211
sI1223
V9E9
p1212
sI1224
VAMEVIVE
p1213
sI1225
VAND
p1214
sI1226
VAbsorption
p1215
sI1227
VAmiodarone
p1216
sI1228
VAnimal
p1217
sI1229
VAntibiotics
p1218
sI1230
VAnticholinergic
p1219
sI1231
VCELEBREX
p1220
sI1232
VD9
p1221
sI1233
VElevated
p1222
sI1234
VFORADIL
p1223
sI1235
VFurthermore
p1224
sI1236
VGiven
p1225
sI1237
VIV
p1226
sI1238
VInternational
p1227
sI1239
VMagnesium
p1228
sI1240
VMexitil
p1229
sI1241
VMonoamine
p1230
sI1242
VNevirapine
p1231
sI1243
VNormalized
p1232
sI1244
VPopulation
p1233
sI1245
VR
sI1246
VRatio
p1234
sI1247
VSaquinavir
p1235
sI1248
Vacetylsalicylic
p1236
sI1249
Vachieve
p1237
sI1250
Valiskiren
p1238
sI1251
Vallergic
p1239
sI1252
Vamines
p1240
sI1253
Vanagrelide
p1241
sI1254
Vantiepileptic
p1242
sI1255
Vantipyrine
p1243
sI1256
Vapproached
p1244
sI1257
Vaprepitant
p1245
sI1258
Vbaseline
p1246
sI1259
Vbenefits
p1247
sI1260
Vbronchodilators
p1248
sI1261
Vbutyrophenones
p1249
sI1262
Vcefdinir
p1250
sI1263
Vcephalosporins
p1251
sI1264
Vchlordiazepoxide
p1252
sI1265
Vcontraception
p1253
sI1266
Vcurve
p1254
sI1267
Vcyclosporin
p1255
sI1268
Vdeficiency
p1256
sI1269
Vdelayed
p1257
sI1270
Vdemonstrate
p1258
sI1271
Vdesirable
p1259
sI1272
Vdiarrhea
p1260
sI1273
Vdisturbances
p1261
sI1274
Velapse
p1262
sI1275
Velderly
p1263
sI1276
Venzymatic
p1264
sI1277
Vetodolac
p1265
sI1278
Vexcreted
p1266
sI1279
Vextensively
p1267
sI1280
Vfexofenadine
p1268
sI1281
Vfinding
p1269
sI1282
Vfour
p1270
sI1283
Vfulvestrant
p1271
sI1284
Vglobulin
p1272
sI1285
Vhormones
p1273
sI1286
Vhydroxy
p1274
sI1287
Vinducing
p1275
sI1288
Vinfarction
p1276
sI1289
Vinhalation
p1277
sI1290
Vinhaled
p1278
sI1291
Vinsufficiency
p1279
sI1292
Vintensify
p1280
sI1293
Vlevothyroxine
p1281
sI1294
Vlidocaine
p1282
sI1295
Vlipid
p1283
sI1296
Vliterature
p1284
sI1297
Vlittle
p1285
sI1298
Vlive
p1286
sI1299
Vlorazepam
p1287
sI1300
Vlosartan
p1288
sI1301
Vmake
p1289
sI1302
Vmilk
p1290
sI1303
Vmind
p1291
sI1304
Vminimized
p1292
sI1305
Vmycophenolate
p1293
sI1306
Vnarcotic
p1294
sI1307
Vnasal
p1295
sI1308
Vnorfloxacin
p1296
sI1309
Voccasionally
p1297
sI1310
Vorthostatic
p1298
sI1311
Vparticular
p1299
sI1312
Vphosphorylation
p1300
sI1313
Vpimozide
p1301
sI1314
Vpramipexole
p1302
sI1315
Vpravastatin
p1303
sI1316
Vpredominantly
p1304
sI1317
Vproblems
p1305
sI1318
Vproduct
p1306
sI1319
Vpropoxyphene
p1307
sI1320
Vpsychotropic
p1308
sI1321
Vpulmonary
p1309
sI1322
Vrecovery
p1310
sI1323
Vresponsiveness
p1311
sI1324
Vshort
p1312
sI1325
Vslightly
p1313
sI1326
Vspironolactone
p1314
sI1327
Vsulfonamides
p1315
sI1328
Vsupervision
p1316
sI1329
Vtheoretically
p1317
sI1330
Vthioridazine
p1318
sI1331
Vthyroxine
p1319
sI1332
Vtolerated
p1320
sI1333
Vtransplant
p1321
sI1334
Vtrimethoprim
p1322
sI1335
Vvaccines
p1323
sI1336
Vvarious
p1324
sI1337
Vweak
p1325
sI1338
Vwomen
p1326
sI1339
Vwort
p1327
sI1340
V9A
p1328
sI1341
VALFENTA
p1329
sI1342
VAUC9
p1330
sI1343
VAccordingly
p1331
sI1344
VAcetazolamide
p1332
sI1345
VAfter
p1333
sI1346
VAt
p1334
sI1347
VBE
p1335
sI1348
VBinding
p1336
sI1349
VC.P.A
p1337
sI1350
VCAMPTOSAR
p1338
sI1351
VCANCIDAS
p1339
sI1352
VCalcium
p1340
sI1353
VCapsules
p1341
sI1354
VCareful
p1342
sI1355
VCatecholamine
p1343
sI1356
VClass
p1344
sI1357
VD.H.E
p1345
sI1358
VData
p1346
sI1359
VDosage
p1347
sI1360
VEXTRANEAL
p1348
sI1361
VEthinyl
p1349
sI1362
VHg
p1350
sI1363
VIII
p1351
sI1364
VINSPRA
p1352
sI1365
VIncreasing
p1353
sI1366
VIndinavir
p1354
sI1367
VJohn
p1355
sI1368
VKeppra
p1356
sI1369
VLodine
p1357
sI1370
VMyfortic
p1358
sI1371
VN=9
p1359
sI1372
VNS
p1360
sI1373
VNSAID
p1361
sI1374
VOf
p1362
sI1375
VPregnancy
p1363
sI1376
VROMAZICON
p1364
sI1377
VRenal
p1365
sI1378
VSKELID
p1366
sI1379
VSTADOL
p1367
sI1380
VShould
p1368
sI1381
VSt
p1369
sI1382
VSupplements
p1370
sI1383
VTAMBOCOR
p1371
sI1384
VTO
p1372
sI1385
VTRICOR
p1373
sI1386
VType
p1374
sI1387
VVIII
p1375
sI1388
VValproate
p1376
sI1389
VXigris
p1377
sI1390
VZETIA
p1378
sI1391
Vaccordingly
p1379
sI1392
Vacidifying
p1380
sI1393
Vadult
p1381
sI1394
Vage
p1382
sI1395
Valbumin
p1383
sI1396
Valternative
p1384
sI1397
Vanakinra
p1385
sI1398
Vanalysis
p1386
sI1399
Vandrogens
p1387
sI1400
Vangina
p1388
sI1401
Vanticipated
p1389
sI1402
Vanticoagulation
p1390
sI1403
Vantigen
p1391
sI1404
Vantithrombin
p1392
sI1405
Vapproximate
p1393
sI1406
Varrest
p1394
sI1407
Varrhythmia
p1395
sI1408
Varthritis
p1396
sI1409
Vassay
p1397
sI1410
Vasthma
p1398
sI1411
Vbenefit
p1399
sI1412
Vbenzodiazepine
p1400
sI1413
Vbilirubin
p1401
sI1414
Vbumetanide
p1402
sI1415
Vcapsule
p1403
sI1416
Vcarbonate
p1404
sI1417
Vcarvedilol
p1405
sI1418
Vcetirizine
p1406
sI1419
Vchloroquine
p1407
sI1420
Vclofibrate
p1408
sI1421
Vcoma
p1409
sI1422
Vcompetitive
p1410
sI1423
Vcontinued
p1411
sI1424
Vcurrently
p1412
sI1425
Vde
p1413
sI1426
Vdeveloped
p1414
sI1427
Vdevelopment
p1415
sI1428
Vdipyridamole
p1416
sI1429
Vdisplace
p1417
sI1430
Vdistribution
p1418
sI1431
Vduloxetine
p1419
sI1432
Ve.
p1420
sI1433
Velectrolyte
p1421
sI1434
Vesomeprazole
p1422
sI1435
Vethosuximide
p1423
sI1436
Veuthyroid
p1424
sI1437
Vevaluate
p1425
sI1438
Vevaluating
p1426
sI1439
Vevening
p1427
sI1440
Vexceed
p1428
sI1441
Vexhibit
p1429
sI1442
Vexists
p1430
sI1443
Vfailed
p1431
sI1444
Vfindings
p1432
sI1445
Vformation
p1433
sI1446
Vg.
p1434
sI1447
Vgriseofulvin
p1435
sI1448
Vgrowth
p1436
sI1449
Vhepatotoxic
p1437
sI1450
Vhydralazine
p1438
sI1451
Vhypertensive
p1439
sI1452
Vi.e.
p1440
sI1453
Videntified
p1441
sI1454
Vie
p1442
sI1455
Vimportance
p1443
sI1456
Vloop
p1444
sI1457
Vmagnitude
p1445
sI1458
Vmainly
p1446
sI1459
Vmaintained
p1447
sI1460
Vmales
p1448
sI1461
Vmeal
p1449
sI1462
Vmen
p1450
sI1463
Vmetronidazole
p1451
sI1464
Vmexiletine
p1452
sI1465
Vmild
p1453
sI1466
Vminor
p1454
sI1467
Vmm
p1455
sI1468
Vmodest
p1456
sI1469
Vmonkeys
p1457
sI1470
Vneither
p1458
sI1471
Vneuropathy
p1459
sI1472
Vng
p1460
sI1473
Votherwise
p1461
sI1474
Voxide
p1462
sI1475
Vpantoprazole
p1463
sI1476
Vpenicillins
p1464
sI1477
Vperiodic
p1465
sI1478
Vpreviously
p1466
sI1479
Vprobably
p1467
sI1480
Vprofound
p1468
sI1481
Vpronounced
p1469
sI1482
Vprophylaxis
p1470
sI1483
Vquinine
p1471
sI1484
Vracemic
p1472
sI1485
Vraise
p1473
sI1486
Vreductions
p1474
sI1487
Vrelative
p1475
sI1488
Vrenin
p1476
sI1489
Vresistance
p1477
sI1490
Vsecondary
p1478
sI1491
Vseizures
p1479
sI1492
Vsimvastatin
p1480
sI1493
Vskeletal
p1481
sI1494
Vslight
p1482
sI1495
Vslow
p1483
sI1496
Vsolutions
p1484
sI1497
Vspecifically
p1485
sI1498
Vstabilized
p1486
sI1499
Vstatistically
p1487
sI1500
Vstatus
p1488
sI1501
Vstavudine
p1489
sI1502
Vstomach
p1490
sI1503
Vsubstantially
p1491
sI1504
Vsuggests
p1492
sI1505
Vsulfonylurea
p1493
sI1506
Vsyncope
p1494
sI1507
Vsyndrome
p1495
sI1508
Vsystematically
p1496
sI1509
Vsystems
p1497
sI1510
Vthough
p1498
sI1511
Vtract
p1499
sI1512
Vtubocurarine
p1500
sI1513
Vunaffected
p1501
sI1514
Vundergoing
p1502
sI1515
Vupon
p1503
sI1516
Vvascular
p1504
sI1517
Vvitamins
p1505
sI1518
Vvs
p1506
sI1519
Vwhose
p1507
sI1520
V9C
p1508
sI1521
VALT
p1509
sI1522
VAcarbose
p1510
sI1523
VAcetaminophen
p1511
sI1524
VAll
p1512
sI1525
VBenzodiazepines
p1513
sI1526
VCYP9E9
p1514
sI1527
VClarithromycin
p1515
sI1528
VClinitest
p1516
sI1529
VClose
p1517
sI1530
VCoadministered
p1518
sI1531
VCoombs
p1519
sI1532
VErgot
p1520
sI1533
VExcessive
p1521
sI1534
VExjade
p1522
sI1535
VFluvoxamine
p1523
sI1536
VGlyburide
p1524
sI1537
VHCTZ
p1525
sI1538
VHIVID
p1526
sI1539
VHepatic
p1527
sI1540
VINVIRASE
p1528
sI1541
VIbandronate
p1529
sI1542
VIncreases
p1530
sI1543
VInjectable
p1531
sI1544
VLapatinib
p1532
sI1545
VM
sI1546
VMAOIs
p1533
sI1547
VMIVACRON
p1534
sI1548
VMOBIC
p1535
sI1549
VMaalox
p1536
sI1550
VMonitoring
p1537
sI1551
VNelfinavir
p1538
sI1552
VPossible
p1539
sI1553
VPotentiation
p1540
sI1554
VProtease
p1541
sI1555
VReduced
p1542
sI1556
VResults
p1543
sI1557
VRifabutin
p1544
sI1558
VSensipar
p1545
sI1559
VSerious
p1546
sI1560
VSignificant
p1547
sI1561
VSonata
p1548
sI1562
VSpecific
p1549
sI1563
VT
sI1564
VTBG
p1550
sI1565
VTBg
p1551
sI1566
VTo
p1552
sI1567
Vabruptly
p1553
sI1568
Vabsence
p1554
sI1569
Vaccidental
p1555
sI1570
Vachieved
p1556
sI1571
Vadd
p1557
sI1572
Vadenosine
p1558
sI1573
Vadrenal
p1559
sI1574
Valert
p1560
sI1575
Valkaline
p1561
sI1576
Vallergens
p1562
sI1577
Vamantadine
p1563
sI1578
Vamiloride
p1564
sI1579
Vaminosalicylic
p1565
sI1580
Vamong
p1566
sI1581
Vamount
p1567
sI1582
Vamprenavir
p1568
sI1583
Vanalyses
p1569
sI1584
Vanaphylactic
p1570
sI1585
Vanhydrase
p1571
sI1586
Vanimal
p1572
sI1587
Vantagonism
p1573
sI1588
Vantifungals
p1574
sI1589
Vantihypertensives
p1575
sI1590
Vatazanavir
p1576
sI1591
Vattenuated
p1577
sI1592
Vbactericidal
p1578
sI1593
Vblockade
p1579
sI1594
Vbuspirone
p1580
sI1595
Vbutorphanol
p1581
sI1596
Vcancer
p1582
sI1597
Vcarbonic
p1583
sI1598
Vcelecoxib
p1584
sI1599
Vchallenge
p1585
sI1600
Vcharacterized
p1586
sI1601
Vchlorpromazine
p1587
sI1602
Vchlorpropamide
p1588
sI1603
Vcholinesterase
p1589
sI1604
Vchronically
p1590
sI1605
Vciclesonide
p1591
sI1606
Vclasses
p1592
sI1607
Vclotting
p1593
sI1608
Vcombinations
p1594
sI1609
Vcommon
p1595
sI1610
Vcondition
p1596
sI1611
Vconsider
p1597
sI1612
Vcoronary
p1598
sI1613
Vcounteract
p1599
sI1614
Vcytotoxic
p1600
sI1615
Vdelavirdine
p1601
sI1616
Vdepend
p1602
sI1617
Vdescribed
p1603
sI1618
Vdevelop
p1604
sI1619
Vdexfenfluramine
p1605
sI1620
Vdirect
p1606
sI1621
Vdoxycycline
p1607
sI1622
Velectrocardiographic
p1608
sI1623
Vendocrine
p1609
sI1624
Venflurane
p1610
sI1625
Ventacapone
p1611
sI1626
Veplerenone
p1612
sI1627
Vertapenem
p1613
sI1628
Vessential
p1614
sI1629
Vestazolam
p1615
sI1630
Veszopiclone
p1616
sI1631
Vethacrynic
p1617
sI1632
Vexperiences
p1618
sI1633
Vexposures
p1619
sI1634
Vextensive
p1620
sI1635
Vextreme
p1621
sI1636
Vfat
p1622
sI1637
Vfenoprofen
p1623
sI1638
Vfentanyl
p1624
sI1639
Vferrous
p1625
sI1640
Vfibrates
p1626
sI1641
Vflushing
p1627
sI1642
Vfolic
p1628
sI1643
Vfully
p1629
sI1644
Vglucocorticoids
p1630
sI1645
Vgroups
p1631
sI1646
Vguanfacine
p1632
sI1647
Vhyperkalemia
p1633
sI1648
Vhypoprothrombinemia
p1634
sI1649
Vincluded
p1635
sI1650
Vindex
p1636
sI1651
Vindicating
p1637
sI1652
Vindices
p1638
sI1653
Vinfusions
p1639
sI1654
Vinterferes
p1640
sI1655
Vinterferon
p1641
sI1656
Vinterleukin
p1642
sI1657
Vintracellular
p1643
sI1658
Vintravenously
p1644
sI1659
Vinvestigated
p1645
sI1660
Viodine
p1646
sI1661
Visoforms
p1647
sI1662
Vkept
p1648
sI1663
Vkinetics
p1649
sI1664
Vlack
p1650
sI1665
Vlast
p1651
sI1666
Vlesser
p1652
sI1667
Vlonger
p1653
sI1668
Vm
sI1669
Vmeasurement
p1654
sI1670
Vmefenamic
p1655
sI1671
Vmenstrual
p1656
sI1672
Vmeperidine
p1657
sI1673
Vmethylergonovine
p1658
sI1674
Vmethylxanthines
p1659
sI1675
Vmiconazole
p1660
sI1676
Vmin
p1661
sI1677
Vmirtazapine
p1662
sI1678
Vmofetil
p1663
sI1679
Vnefazodone
p1664
sI1680
Vneutropenia
p1665
sI1681
Vnicotinic
p1666
sI1682
Vnitroprusside
p1667
sI1683
Vnortriptyline
p1668
sI1684
Vobservations
p1669
sI1685
Voccurrence
p1670
sI1686
Volder
p1671
sI1687
Vophthalmic
p1672
sI1688
Vorganic
p1673
sI1689
Vototoxicity
p1674
sI1690
Voutweigh
p1675
sI1691
Voxyphenbutazone
p1676
sI1692
Voxytocic
p1677
sI1693
Vper
p1678
sI1694
Vperindopril
p1679
sI1695
Vpharmacology
p1680
sI1696
Vpiperacillin
p1681
sI1697
Vpiroxicam
p1682
sI1698
Vpointes
p1683
sI1699
Vpose
p1684
sI1700
Vpostural
p1685
sI1701
Vpralidoxime
p1686
sI1702
Vprescription
p1687
sI1703
Vprevent
p1688
sI1704
Vprocaine
p1689
sI1705
Vproduction
p1690
sI1706
Vprogesterone
p1691
sI1707
Vprogestin
p1692
sI1708
Vradioimmunoassay
p1693
sI1709
Vrash
p1694
sI1710
Vrelaxant
p1695
sI1711
Vrequiring
p1696
sI1712
Vresemble
p1697
sI1713
Vresins
p1698
sI1714
Vretard
p1699
sI1715
Vribavirin
p1700
sI1716
Vseizure
p1701
sI1717
Vselegiline
p1702
sI1718
Vsensitivity
p1703
sI1719
Vsensitize
p1704
sI1720
Vso
p1705
sI1721
Vspecies
p1706
sI1722
Vsubsequent
p1707
sI1723
Vsubsequently
p1708
sI1724
Vsuitable
p1709
sI1725
Vsupplement
p1710
sI1726
Vsuppression
p1711
sI1727
Vsurgery
p1712
sI1728
Vsustained
p1713
sI1729
Vsympathomimetics
p1714
sI1730
Vsystolic
p1715
sI1731
Vteniposide
p1716
sI1732
Vtesting
p1717
sI1733
Vtitration
p1718
sI1734
Vtramadol
p1719
sI1735
Vupper
p1720
sI1736
Vuptake
p1721
sI1737
Vvariability
p1722
sI1738
Vvariable
p1723
sI1739
Vvertigo
p1724
sI1740
V's
p1725
sI1741
V**
p1726
sI1742
V9a
p1727
sI1743
V9hr
p1728
sI1744
V9mg
p1729
sI1745
VA.C
p1730
sI1746
VACEON
p1731
sI1747
VALIMTA
p1732
sI1748
VAST
p1733
sI1749
VAdditional
p1734
sI1750
VAdditionally
p1735
sI1751
VAdditive
p1736
sI1752
VAllopurinol
p1737
sI1753
VAmprenavir
p1738
sI1754
VAnticonvulsants
p1739
sI1755
VArgatroban
p1740
sI1756
VBROVANA
p1741
sI1757
VBSA
p1742
sI1758
VBenedict
p1743
sI1759
VBlood
p1744
sI1760
VCOPD
p1745
sI1761
VCPK
p1746
sI1762
VCisapride
p1747
sI1763
VClinically
p1748
sI1764
VComment
p1749
sI1765
VCoumarin
p1750
sI1766
VDIPRIVAN
p1751
sI1767
VDOSAGE
p1752
sI1768
VDRUG
p1753
sI1769
VDiuretic
p1754
sI1770
VDopamine
p1755
sI1771
VEmulsion
p1756
sI1772
VEnzymes
p1757
sI1773
VEthanol
p1758
sI1774
VFollowing
p1759
sI1775
VFree
p1760
sI1776
VGel
p1761
sI1777
VHT9
p1762
sI1778
VHeparin
p1763
sI1779
VI
sI1780
VIRESSA
p1764
sI1781
VIX
p1765
sI1782
VImpairment
p1766
sI1783
VInsulin
p1767
sI1784
VKi
p1768
sI1785
VMEPRON
p1769
sI1786
VMTX
p1770
sI1787
VMost
p1771
sI1788
VNeurontin
p1772
sI1789
VNot
p1773
sI1790
VOF
p1774
sI1791
VOmeprazole
p1775
sI1792
VOxidase
p1776
sI1793
VPBI
p1777
sI1794
VPediatric
p1778
sI1795
VPhase
p1779
sI1796
VPoor
p1780
sI1797
VREMERON
p1781
sI1798
VREVIA
p1782
sI1799
VReaction
p1783
sI1800
VReductase
p1784
sI1801
VRitonavir
p1785
sI1802
VSGOT
p1786
sI1803
VSYMLIN
p1787
sI1804
VSalicylates
p1788
sI1805
VSevere
p1789
sI1806
VSimulect
p1790
sI1807
VStarlix
p1791
sI1808
VSteady
p1792
sI1809
VStudy
p1793
sI1810
VSystemic
p1794
sI1811
VTNF
p1795
sI1812
VTherapy
p1796
sI1813
VThiazide
p1797
sI1814
VXR
p1798
sI1815
Vaccompanied
p1799
sI1816
Vadjusting
p1800
sI1817
Valbendazole
p1801
sI1818
Vamoxicillin
p1802
sI1819
Vantipsychotics
p1803
sI1820
Vantiretroviral
p1804
sI1821
Vassess
p1805
sI1822
Vbaclofen
p1806
sI1823
Vbacteriostatic
p1807
sI1824
Vbepridil
p1808
sI1825
Vbeta9
p1809
sI1826
Vbind
p1810
sI1827
Vbirth
p1811
sI1828
Vbismuth
p1812
sI1829
Vbolus
p1813
sI1830
Vbreakthrough
p1814
sI1831
Vcapecitabine
p1815
sI1832
Vcaspofungin
p1816
sI1833
Vcatalyzed
p1817
sI1834
Vcausal
p1818
sI1835
Vcautious
p1819
sI1836
Vceftibuten
p1820
sI1837
Vcentrally
p1821
sI1838
Vchance
p1822
sI1839
Vchanged
p1823
sI1840
Vchanging
p1824
sI1841
Vchewable
p1825
sI1842
Vchloral
p1826
sI1843
Vchloride
p1827
sI1844
Vcmax
p1828
sI1845
Vcodeine
p1829
sI1846
Vconjugation
p1830
sI1847
Vconsiderably
p1831
sI1848
Vcontrast
p1832
sI1849
Vconversion
p1833
sI1850
Vconverting
p1834
sI1851
Vcount
p1835
sI1852
Vcrossover
p1836
sI1853
Vcyclophosphamide
p1837
sI1854
Vderivative
p1838
sI1855
Vdextran
p1839
sI1856
Vdiabetics
p1840
sI1857
Vdicumarol
p1841
sI1858
Vdigitoxin
p1842
sI1859
Vdihydropyridine
p1843
sI1860
Vdirithromycin
p1844
sI1861
Vdiscontinue
p1845
sI1862
Vdisposition
p1846
sI1863
Vdone
p1847
sI1864
Vdoxazosin
p1848
sI1865
Vdrowsiness
p1849
sI1866
Vdry
p1850
sI1867
Vedema
p1851
sI1868
Veight
p1852
sI1869
Vemptying
p1853
sI1870
Vetoposide
p1854
sI1871
Vexamples
p1855
sI1872
Vfamotidine
p1856
sI1873
Vfetal
p1857
sI1874
Vfinasteride
p1858
sI1875
Vfollow
p1859
sI1876
Vformulations
p1860
sI1877
Vgentamicin
p1861
sI1878
Vglipizide
p1862
sI1879
Vglucocorticoid
p1863
sI1880
Vglucuronidation
p1864
sI1881
Vglutamine
p1865
sI1882
Vgoing
p1866
sI1883
Vgradual
p1867
sI1884
Vhaving
p1868
sI1885
Vhepatitis
p1869
sI1886
Vhydrate
p1870
sI1887
Vhydrodolasetron
p1871
sI1888
Vhyperreflexia
p1872
sI1889
Vhypothyroid
p1873
sI1890
Viloprost
p1874
sI1891
Vimatinib
p1875
sI1892
Vimpair
p1876
sI1893
Vincoordination
p1877
sI1894
Vinduces
p1878
sI1895
Vinfected
p1879
sI1896
Vinterference
p1880
sI1897
Vinterrupted
p1881
sI1898
Visoform
p1882
sI1899
Vketorolac
p1883
sI1900
Vkidney
p1884
sI1901
Vlansoprazole
p1885
sI1902
Vlapatinib
p1886
sI1903
Vlikelihood
p1887
sI1904
VmEq
p1888
sI1905
Vman
p1889
sI1906
Vmeclofenamate
p1890
sI1907
Vmedical
p1891
sI1908
Vmelatonin
p1892
sI1909
Vmercaptopurine
p1893
sI1910
Vminimal
p1894
sI1911
Vmixing
p1895
sI1912
Vmm9
p1896
sI1913
Vmouse
p1897
sI1914
Vmuch
p1898
sI1915
Vmyocardium
p1899
sI1916
Vneonates
p1900
sI1917
Vneurological
p1901
sI1918
Vneurotoxic
p1902
sI1919
Vnisoldipine
p1903
sI1920
Vnitrous
p1904
sI1921
Voverdosage
p1905
sI1922
Vpaclitaxel
p1906
sI1923
Vpain
p1907
sI1924
Vpancreatitis
p1908
sI1925
Vpathways
p1909
sI1926
Vphenelzine
p1910
sI1927
Vpostmarketing
p1911
sI1928
Vprecautions
p1912
sI1929
Vprecipitate
p1913
sI1930
Vpreclude
p1914
sI1931
Vprednisone
p1915
sI1932
Vpreparation
p1916
sI1933
Vprocedures
p1917
sI1934
Vprovided
p1918
sI1935
Vpruritus
p1919
sI1936
Vpublished
p1920
sI1937
Vquite
p1921
sI1938
Vreasonable
p1922
sI1939
Vregularly
p1923
sI1940
Vrequires
p1924
sI1941
Vrevealed
p1925
sI1942
Vreverse
p1926
sI1943
Vrheumatoid
p1927
sI1944
Vrifampicin
p1928
sI1945
Vrivastigmine
p1929
sI1946
Vrofecoxib
p1930
sI1947
Vroute
p1931
sI1948
Vsalicylic
p1932
sI1949
Vsamples
p1933
sI1950
Vsection
p1934
sI1951
Vserotonergic
p1935
sI1952
Vseverity
p1936
sI1953
Vsite
p1937
sI1954
Vslowly
p1938
sI1955
Vsmaller
p1939
sI1956
Vspecial
p1940
sI1957
Vstandard
p1941
sI1958
Vstates
p1942
sI1959
Vstimulating
p1943
sI1960
Vstopping
p1944
sI1961
Vsubcutaneous
p1945
sI1962
Vsubstantial
p1946
sI1963
Vsuffering
p1947
sI1964
Vsugar
p1948
sI1965
Vsulfasalazine
p1949
sI1966
Vsulfinpyrazone
p1950
sI1967
Vsulindac
p1951
sI1968
Vsusceptible
p1952
sI1969
Vsuspension
p1953
sI1970
Vswitching
p1954
sI1971
Vtamoxifen
p1955
sI1972
Vtend
p1956
sI1973
Vterazosin
p1957
sI1974
Vtheoretical
p1958
sI1975
Vthird
p1959
sI1976
Vthrombocytopenia
p1960
sI1977
Vtissues
p1961
sI1978
Vtolerance
p1962
sI1979
Vtoo
p1963
sI1980
Vtrue
p1964
sI1981
Vtumors
p1965
sI1982
Vulceration
p1966
sI1983
Vunbound
p1967
sI1984
Vunresponsive
p1968
sI1985
Vusers
p1969
sI1986
Vvalue
p1970
sI1987
Vvasodilators
p1971
sI1988
Vvirus
p1972
sI1989
Vvolatile
p1973
sI1990
Vvomiting
p1974
sI1991
Vxanthine
p1975
sI1992
Vzinc
p1976
sI1993
V~9
p1977
sI1994
V+
sI1995
VACTH
p1978
sI1996
VADMINISTRATION
p1979
sI1997
VAED
p1980
sI1998
VAVONEX
p1981
sI1999
VAXERT
p1982
sI2000
VAdjustment
p1983
sI2001
VAerosol
p1984
sI2002
VAffect
p1985
sI2003
VAgonist
p1986
sI2004
VAlso
p1987
sI2005
VAmphotericin
p1988
sI2006
VAnabolic
p1989
sI2007
VAnaphylactic
p1990
sI2008
VAngiomax
p1991
sI2009
VAngiotensin
p1992
sI2010
VAntagonists
p1993
sI2011
VAnticholinergics
p1994
sI2012
VAntidepressants
p1995
sI2013
VAntidiabetic
p1996
sI2014
VAntiepileptic
p1997
sI2015
VAntihypertensive
p1998
sI2016
VAntimycobacterial
p1999
sI2017
VAppropriate
p2000
sI2018
VAtromid
p2001
sI2019
VAvailable
p2002
sI2020
VBarbiturates
p2003
sI2021
VBepridil
p2004
sI2022
VBlocking
p2005
sI2023
VCONTRAINDICATIONS
p2006
sI2024
VCOPAXONE
p2007
sI2025
VCOPEGUS
p2008
sI2026
VCYP9B9
p2009
sI2027
VCaffeine
p2010
sI2028
VCalcitonin
p2011
sI2029
VCarcinogenesis
p2012
sI2030
VCardiovascular
p2013
sI2031
VCephalosporins
p2014
sI2032
VChanges
p2015
sI2033
VClinistix
p2016
sI2034
VCorticotropin
p2017
sI2035
VCurrently
p2018
sI2036
VDecreased
p2019
sI2037
VDepending
p2020
sI2038
VDidanosine
p2021
sI2039
VDoses
p2022
sI2040
VDromoran
p2023
sI2041
VDynaCirc
p2024
sI2042
VEPA
p2025
sI2043
VEfavirenz
p2026
sI2044
VEnzyme
p2027
sI2045
VEpinephrine
p2028
sI2046
VEstablished
p2029
sI2047
VEstrogens
p2030
sI2048
VFACTIVE
p2031
sI2049
VFELDENE
p2032
sI2050
VFLOLAN
p2033
sI2051
VFLOMAX
p2034
sI2052
VFehling
p2035
sI2053
VFehlings
p2036
sI2054
VFentanyl
p2037
sI2055
VFood
p2038
sI2056
VFormal
p2039
sI2057
VFulvestrant
p2040
sI2058
VGeneral
p2041
sI2059
VHormonal
p2042
sI2060
VHypotension
p2043
sI2061
VIN
p2044
sI2062
VINTERACTIONS
p2045
sI2063
VIbuprofen
p2046
sI2064
VImportant
p2047
sI2065
VInduce
p2048
sI2066
VInhibition
p2049
sI2067
VIsocarboxazid
p2050
sI2068
VL9
p2051
sI2069
VLDL
p2052
sI2070
VLEVELS
p2053
sI2071
VLevo
p2054
sI2072
VLimited
p2055
sI2073
VLotensin
p2056
sI2074
VM9
p2057
sI2075
VMephenytoin
p2058
sI2076
VMonitor
p2059
sI2077
VNEXAVAR
p2060
sI2078
VNOT
p2061
sI2079
VName
p2062
sI2080
VNaproxen
p2063
sI2081
VNephrotoxicity
p2064
sI2082
VOR
p2065
sI2083
VORENCIA
p2066
sI2084
VOn
p2067
sI2085
VP9IID9
p2068
sI2086
VPotentially
p2069
sI2087
VPreliminary
p2070
sI2088
VPropranolol
p2071
sI2089
VProthrombin
p2072
sI2090
VQRS
p2073
sI2091
VRAPTIVA
p2074
sI2092
VRelease
p2075
sI2093
VRisk
p2076
sI2094
VS.D
p2077
sI2095
VSHOULD
p2078
sI2096
VSelective
p2079
sI2097
VSeveral
p2080
sI2098
VSkeletal
p2081
sI2099
VSolTab
p2082
sI2100
VSolution
p2083
sI2101
VSubstances
p2084
sI2102
VSumatriptan
p2085
sI2103
VSyrup
p2086
sI2104
VTARCEVA
p2087
sI2105
VTHE
p2088
sI2106
VTID
p2089
sI2107
VTRACLEER
p2090
sI2108
VTYSABRI
p2091
sI2109
VTagamet
p2092
sI2110
VTerfenadine
p2093
sI2111
VThyroid
p2094
sI2112
VUDP
p2095
sI2113
VUNIVASC
p2096
sI2114
VVERSED
p2097
sI2115
VWARNINGS
p2098
sI2116
VWITH
p2099
sI2117
VWelChol
p2100
sI2118
VZEBETA
p2101
sI2119
VZEMURON
p2102
sI2120
Vaccentuate
p2103
sI2121
Vaccording
p2104
sI2122
Vaccount
p2105
sI2123
Vacids
p2106
sI2124
Vadequately
p2107
sI2125
Vadjust
p2108
sI2126
Vaffinity
p2109
sI2127
Valbuterol
p2110
sI2128
Valdehyde
p2111
sI2129
Valkalinizing
p2112
sI2130
Valternatives
p2113
sI2131
Vamylase
p2114
sI2132
Vanabolic
p2115
sI2133
Vantagonized
p2116
sI2134
Vantibiotic
p2117
sI2135
Vanticholinergics
p2118
sI2136
Vantifungal
p2119
sI2137
Vantiplatelet
p2120
sI2138
Vantipsychotic
p2121
sI2139
Vapomorphine
p2122
sI2140
Vappropriately
p2123
sI2141
Vartery
p2124
sI2142
Vassure
p2125
sI2143
Vattention
p2126
sI2144
Vbacitracin
p2127
sI2145
Vbase
p2128
sI2146
Vbegins
p2129
sI2147
Vbicarbonate
p2130
sI2148
Vblocks
p2131
sI2149
Vblurred
p2132
sI2150
Vbronchospasm
p2133
sI2151
Vbuffered
p2134
sI2152
Vbuprenorphine
p2135
sI2153
Vc
sI2154
Vcalcitriol
p2136
sI2155
Vcapable
p2137
sI2156
Vcardioactive
p2138
sI2157
Vcationic
p2139
sI2158
Vcephalexin
p2140
sI2159
Vcephalosporin
p2141
sI2160
Vcephalothin
p2142
sI2161
Vcessation
p2143
sI2162
Vchildbearing
p2144
sI2163
Vchildren
p2145
sI2164
Vchlorprothixene
p2146
sI2165
Vclindamycin
p2147
sI2166
Vcolistin
p2148
sI2167
Vcollapse
p2149
sI2168
Vcolumn
p2150
sI2169
Vcompetition
p2151
sI2170
Vcomponents
p2152
sI2171
Vconfirmed
p2153
sI2172
Vcontains
p2154
sI2173
Vcorrected
p2155
sI2174
Vdanger
p2156
sI2175
Vdantrolene
p2157
sI2176
Vdapsone
p2158
sI2177
Vdasatinib
p2159
sI2178
Vdeaths
p2160
sI2179
Vdebrisoquin
p2161
sI2180
Vdecarboxylase
p2162
sI2181
Vdecreasing
p2163
sI2182
Vdepress
p2164
sI2183
Vdepressed
p2165
sI2184
Vdepresses
p2166
sI2185
Vdetected
p2167
sI2186
Vdeterioration
p2168
sI2187
Vdeterminant
p2169
sI2188
Vdeveloping
p2170
sI2189
Vdiazoxide
p2171
sI2190
Vdisplaced
p2172
sI2191
Vdivalent
p2173
sI2192
Vdobutamine
p2174
sI2193
Vdocumented
p2175
sI2194
Vdolasetron
p2176
sI2195
Vdopa
p2177
sI2196
Vdosages
p2178
sI2197
Vdrops
p2179
sI2198
Veffectively
p2180
sI2199
Velemental
p2181
sI2200
Velevate
p2182
sI2201
Vendogenous
p2183
sI2202
Venhancement
p2184
sI2203
Venteric
p2185
sI2204
Vepileptic
p2186
sI2205
Vepirubicin
p2187
sI2206
Vequivalent
p2188
sI2207
Vergocalcitriol
p2189
sI2208
Vetanercept
p2190
sI2209
Vexcept
p2191
sI2210
Vexcluded
p2192
sI2211
Vexpect
p2193
sI2212
Vexposed
p2194
sI2213
Veye
p2195
sI2214
Vfasting
p2196
sI2215
Vfenofibrate
p2197
sI2216
Vfibrillation
p2198
sI2217
Vfibrinogen
p2199
sI2218
Vfluorouracil
p2200
sI2219
Vfondaparinux
p2201
sI2220
Vfoods
p2202
sI2221
Vformally
p2203
sI2222
Vforms
p2204
sI2223
Vfosinopril
p2205
sI2224
Vfosphenytoin
p2206
sI2225
Vganglionic
p2207
sI2226
Vgonadotropin
p2208
sI2227
Vh
sI2228
Vhemorrhage
p2209
sI2229
Vhistamine
p2210
sI2230
Vhrs
p2211
sI2231
Vhydrocodone
p2212
sI2232
Vhydrolase
p2213
sI2233
Vhydroxyurea
p2214
sI2234
Vhypnotic
p2215
sI2235
Vimmediate
p2216
sI2236
Vimmediately
p2217
sI2237
Vimmune
p2218
sI2238
Vincludes
p2219
sI2239
Vinfections
p2220
sI2240
Vingesting
p2221
sI2241
Vinhalational
p2222
sI2242
Vinotropic
p2223
sI2243
Vinstances
p2224
sI2244
Vinterpreted
p2225
sI2245
Vintoxication
p2226
sI2246
Vintramuscular
p2227
sI2247
Virinotecan
p2228
sI2248
Virregularities
p2229
sI2249
Visoflurane
p2230
sI2250
Visolated
p2231
sI2251
Visoproterenol
p2232
sI2252
Vitself
p2233
sI2253
Vlamotrigine
p2234
sI2254
Vlatter
p2235
sI2255
Vled
p2236
sI2256
Vleflunomide
p2237
sI2257
Vleft
p2238
sI2258
Vlesions
p2239
sI2259
Vlethargy
p2240
sI2260
Vlevobupivacaine
p2241
sI2261
Vlimit
p2242
sI2262
Vlincomycin
p2243
sI2263
Vmaleate
p2244
sI2264
Vmeaningful
p2245
sI2265
Vmedia
p2246
sI2266
Vmegestrol
p2247
sI2267
Vmethylphenidate
p2248
sI2268
Vmethysergide
p2249
sI2269
Vmetyrapone
p2250
sI2270
Vmifepristone
p2251
sI2271
Vmodified
p2252
sI2272
Vmononuclear
p2253
sI2273
Vmonth
p2254
sI2274
Vmyelosuppression
p2255
sI2275
Vnausea
p2256
sI2276
Vneomycin
p2257
sI2277
Vneuroleptics
p2258
sI2278
Vnew
p2259
sI2279
Vnitrofurantoin
p2260
sI2280
Vnonhormonal
p2261
sI2281
Vnursing
p2262
sI2282
Voften
p2263
sI2283
Voptimal
p2264
sI2284
Vordinarily
p2265
sI2285
Vorganogenesis
p2266
sI2286
Vosteoporosis
p2267
sI2287
Vototoxic
p2268
sI2288
Vout
p2269
sI2289
Voutput
p2270
sI2290
Voverall
p2271
sI2291
Voxandrolone
p2272
sI2292
Voxcarbazepine
p2273
sI2293
Vpackage
p2274
sI2294
Vparenteral
p2275
sI2295
Vpart
p2276
sI2296
Vpartial
p2277
sI2297
Vpentamidine
p2278
sI2298
Vperforatum
p2279
sI2299
Vpharmacist
p2280
sI2300
Vphenothiazine
p2281
sI2301
Vphosphatase
p2282
sI2302
Vpituitary
p2283
sI2303
Vpoisoning
p2284
sI2304
Vpolymyxins
p2285
sI2305
Vpotentiates
p2286
sI2306
Vpotentiating
p2287
sI2307
Vpowder
p2288
sI2308
Vpractice
p2289
sI2309
Vpre
p2290
sI2310
Vpregnant
p2291
sI2311
Vprochlorperazine
p2292
sI2312
Vprogestins
p2293
sI2313
Vpromethazine
p2294
sI2314
Vpropofol
p2295
sI2315
Vpseudoephedrine
p2296
sI2316
Vpyrimethamine
p2297
sI2317
Vrabbits
p2298
sI2318
Vreactive
p2299
sI2319
Vreceive
p2300
sI2320
Vreducing
p2301
sI2321
Vrefer
p2302
sI2322
Vregular
p2303
sI2323
Vreportedly
p2304
sI2324
Vrespect
p2305
sI2325
Vretention
p2306
sI2326
Vreviewed
p2307
sI2327
Vrimantadine
p2308
sI2328
Vropivacaine
p2309
sI2329
Vs
sI2330
Vsalmon
p2310
sI2331
Vscreening
p2311
sI2332
Vsecond
p2312
sI2333
Vsensitive
p2313
sI2334
Vseparate
p2314
sI2335
Vseven
p2315
sI2336
Vsirolimus
p2316
sI2337
Vsmoking
p2317
sI2338
Vsoluble
p2318
sI2339
Vspray
p2319
sI2340
Vstanding
p2320
sI2341
Vstimulants
p2321
sI2342
Vstopped
p2322
sI2343
Vsubject
p2323
sI2344
Vsubsalicylate
p2324
sI2345
Vsudden
p2325
sI2346
Vsulfonylureas
p2326
sI2347
Vsulfoxide
p2327
sI2348
Vsympathetic
p2328
sI2349
Vsynthetic
p2329
sI2350
Vtablet
p2330
sI2351
Vtemporarily
p2331
sI2352
Vtendency
p2332
sI2353
Vtested
p2333
sI2354
Vthromboplastin
p2334
sI2355
Vtopiramate
p2335
sI2356
Vtorsades
p2336
sI2357
Vtoward
p2337
sI2358
Vtoxicities
p2338
sI2359
Vtoxin
p2339
sI2360
Vtransaminases
p2340
sI2361
Vtransferase
p2341
sI2362
Vtranylcypromine
p2342
sI2363
Vtricyclics
p2343
sI2364
Vtrivalent
p2344
sI2365
VuM
p2345
sI2366
Vucb
p2346
sI2367
Vunclear
p2347
sI2368
Vundertaken
p2348
sI2369
Vunexpected
p2349
sI2370
Vunpredictable
p2350
sI2371
Vunusual
p2351
sI2372
Vuric
p2352
sI2373
Vuricosuric
p2353
sI2374
Vvaccine
p2354
sI2375
Vvancomycin
p2355
sI2376
Vvary
p2356
sI2377
Vvasospasm
p2357
sI2378
Vvasospastic
p2358
sI2379
Vvenlafaxine
p2359
sI2380
Vveratrum
p2360
sI2381
Vvirologic
p2361
sI2382
Vvision
p2362
sI2383
Vvital
p2363
sI2384
Vx
sI2385
Vyet
p2364
sI2386
V9B9
p2365
sI2387
VA.C.
p2366
sI2388
VAMICAR
p2367
sI2389
VARAVA
p2368
sI2390
VAS
p2369
sI2391
VATROVENT
p2370
sI2392
VAVASTIN
p2371
sI2393
VAcamprosate
p2372
sI2394
VAcid
p2373
sI2395
VActing
p2374
sI2396
VActivase
p2375
sI2397
VAliskiren
p2376
sI2398
VAlpha
p2377
sI2399
VAmes
p2378
sI2400
VAnagrelide
p2379
sI2401
VAnother
p2380
sI2402
VAntiarrhythmics
p2381
sI2403
VAnticholinesterases
p2382
sI2404
VAnticoagulant
p2383
sI2405
VAntifungals
p2384
sI2406
VAntipyrine
p2385
sI2407
VAntizol
p2386
sI2408
VAtorvastatin
p2387
sI2409
VAvoid
p2388
sI2410
VBEXTRA
p2389
sI2411
VBREVIBLOC
p2390
sI2412
VBUSULFEX
p2391
sI2413
VBenedicts
p2392
sI2414
VBetaseron
p2393
sI2415
VBosentan
p2394
sI2416
VBretylium
p2395
sI2417
VCAUTION
p2396
sI2418
VCEFOTAN
p2397
sI2419
VCMI
p2398
sI2420
VCYLERT
p2399
sI2421
VCalcidiol
p2400
sI2422
VCalcitriol
p2401
sI2423
VCarbimazole
p2402
sI2424
VCardiac
p2403
sI2425
VCentral
p2404
sI2426
VCerezyme
p2405
sI2427
VCerubidine
p2406
sI2428
VClonazepam
p2407
sI2429
VColchicine
p2408
sI2430
VColy
p2409
sI2431
VConcentration
p2410
sI2432
VConversely
p2411
sI2433
VConverting
p2412
sI2434
VCrohn
p2413
sI2435
VDEET
p2414
sI2436
VDIAMOND
p2415
sI2437
VDIAMOX
p2416
sI2438
VDIFFERIN
p2417
sI2439
VDRUGS
p2418
sI2440
VDST
p2419
sI2441
VDURAGESIC
p2420
sI2442
VDaily
p2421
sI2443
VDantrium
p2422
sI2444
VDexamethasone
p2423
sI2445
VDextromethorphan
p2424
sI2446
VDiclofenac
p2425
sI2447
VDilantin
p2426
sI2448
VDiphenhydramine
p2427
sI2449
VECT
p2428
sI2450
VELLENCE
p2429
sI2451
VENABLEX
p2430
sI2452
VEnoxacin
p2431
sI2453
VEprosartan
p2432
sI2454
VEsomeprazole
p2433
sI2455
VEtodolac
p2434
sI2456
VEven
p2435
sI2457
VExperience
p2436
sI2458
VFASLODEX
p2437
sI2459
VFOR
p2438
sI2460
VFORTOVASE
p2439
sI2461
VFROVA
p2440
sI2462
VFSH
p2441
sI2463
VFU
p2442
sI2464
VFertility
p2443
sI2465
VFlupenthixol
p2444
sI2466
VFlurbiprofen
p2445
sI2467
VFrequent
p2446
sI2468
VFunction
p2447
sI2469
VFurther
p2448
sI2470
VGABITRIL
p2449
sI2471
VGH
p2450
sI2472
VGabapentin
p2451
sI2473
VGeriatric
p2452
sI2474
VGrade
p2453
sI2475
VHALDOL
p2454
sI2476
VHDL
p2455
sI2477
VHERCEPTIN
p2456
sI2478
VHEXALEN
p2457
sI2479
VHUMIRA
p2458
sI2480
VHerbal
p2459
sI2481
VHydrochlorothiazide
p2460
sI2482
VHypericum
p2461
sI2483
VHypoglycemics
p2462
sI2484
VIFL
p2463
sI2485
VImmediate
p2464
sI2486
VImpaired
p2465
sI2487
VIndomethacin
p2466
sI2488
VInducers
p2467
sI2489
VInformation
p2468
sI2490
VInhalation
p2469
sI2491
VInterference
p2470
sI2492
VIntravenous
p2471
sI2493
VIron
p2472
sI2494
VIsoflurane
p2473
sI2495
VIsoniazid
p2474
sI2496
VKetamine
p2475
sI2497
VKineret
p2476
sI2498
VLH
p2477
sI2499
VLaboratories
p2478
sI2500
VLansoprazole
p2479
sI2501
VLopinavir
p2480
sI2502
VMAC
p2481
sI2503
VMS
p2482
sI2504
VMYCAMINE
p2483
sI2505
VMany
p2484
sI2506
VMarplan
p2485
sI2507
VMethadone
p2486
sI2508
VMetopirone
p2487
sI2509
VMitotane
p2488
sI2510
VMolt
p2489
sI2511
VMontelukast
p2490
sI2512
VMothers
p2491
sI2513
VMotility
p2492
sI2514
VMutagenesis
p2493
sI2515
VMycin
p2494
sI2516
VMyocardial
p2495
sI2517
VNIZORAL
p2496
sI2518
VNPH
p2497
sI2519
VNUROMAX
p2498
sI2520
VNardil
p2499
sI2521
VNatrecor
p2500
sI2522
VNervous
p2501
sI2523
VNeuropathy
p2502
sI2524
VNifedipine
p2503
sI2525
VNone
p2504
sI2526
VNonetheless
p2505
sI2527
VNorethindrone
p2506
sI2528
VNorpace
p2507
sI2529
VNursing
p2508
sI2530
VOTHER
p2509
sI2531
VOne
p2510
sI2532
VOpioid
p2511
sI2533
VOrudis
p2512
sI2534
VPAH
p2513
sI2535
VPHENYTOIN
p2514
sI2536
VPR
p2515
sI2537
VParenteral
p2516
sI2538
VParnate
p2517
sI2539
VParoxetine
p2518
sI2540
VParticular
p2519
sI2541
VPentamidine
p2520
sI2542
VPgp
p2521
sI2543
VPharmacodynamic
p2522
sI2544
VPhenothiazines
p2523
sI2545
VPhysicians
p2524
sI2546
VPindolol
p2525
sI2547
VPlenaxis
p2526
sI2548
VPressor
p2527
sI2549
VPretreatment
p2528
sI2550
VProAmatine
p2529
sI2551
VProducts
p2530
sI2552
VProquin
p2531
sI2553
VProtein
p2532
sI2554
VQuinidine
p2533
sI2555
VRA
p2534
sI2556
VRacemic
p2535
sI2557
VRanitidine
p2536
sI2558
VRare
p2537
sI2559
VReceptor
p2538
sI2560
VReductions
p2539
sI2561
VRocaltrol
p2540
sI2562
VSGPT
p2541
sI2563
VSUBOXONE
p2542
sI2564
VSUBUTEX
p2543
sI2565
VSUTENT
p2544
sI2566
VSalicylate
p2545
sI2567
VSedatives
p2546
sI2568
VShort
p2547
sI2569
VSimilarly
p2548
sI2570
VSimultaneous
p2549
sI2571
VSoriatane
p2550
sI2572
VSparing
p2551
sI2573
VSpecial
p2552
sI2574
VSucralfate
p2553
sI2575
VSynergism
p2554
sI2576
VSystem
p2555
sI2577
VTNKase
p2556
sI2578
VTOLECTIN
p2557
sI2579
VTRENTAL
p2558
sI2580
VTacrolimus
p2559
sI2581
VTape
p2560
sI2582
VTerbinafine
p2561
sI2583
VTes
p2562
sI2584
VTetracycline
p2563
sI2585
VTherapeutic
p2564
sI2586
VThey
p2565
sI2587
VTosylate
p2566
sI2588
VTrecator
p2567
sI2589
VTriazolam
p2568
sI2590
VTrimethoprim
p2569
sI2591
VTwo
p2570
sI2592
VU9
p2571
sI2593
VUncontrolled
p2572
sI2594
VUntil
p2573
sI2595
VUricosuric
p2574
sI2596
VVELCADE
p2575
sI2597
VVaccines
p2576
sI2598
VValproic
p2577
sI2599
VVerapamil
p2578
sI2600
VVidex
p2579
sI2601
VWELLBUTRIN
p2580
sI2602
VWomen
p2581
sI2603
VXII
p2582
sI2604
VZADAXIN
p2583
sI2605
VZOLINZA
p2584
sI2606
VZYVOX
p2585
sI2607
VZidovudine
p2586
sI2608
Vabnormal
p2587
sI2609
Vabsorbed
p2588
sI2610
Vaccelerate
p2589
sI2611
Vaccelerated
p2590
sI2612
Vaccordance
p2591
sI2613
Vacidic
p2592
sI2614
Vact
p2593
sI2615
Vactivation
p2594
sI2616
Vadminister
p2595
sI2617
Vadversely
p2596
sI2618
Vaffects
p2597
sI2619
Valdosterone
p2598
sI2620
Valfa
p2599
sI2621
Valfentanil
p2600
sI2622
Valtering
p2601
sI2623
Vaminoglutethimide
p2602
sI2624
Vaminophylline
p2603
sI2625
Vamounts
p2604
sI2626
Vanion
p2605
sI2627
Vanorexia
p2606
sI2628
Vantibacterial
p2607
sI2629
Vanticholinesterases
p2608
sI2630
Vantidiabetics
p2609
sI2631
Vapnea
p2610
sI2632
Vappearance
p2611
sI2633
Vappeared
p2612
sI2634
Vapplication
p2613
sI2635
Vappreciably
p2614
sI2636
Vapraclonidine
p2615
sI2637
Vassessments
p2616
sI2638
Vatomoxetine
p2617
sI2639
Vatovaquone
p2618
sI2640
Vattenuate
p2619
sI2641
Vbacterial
p2620
sI2642
Vbecomes
p2621
sI2643
Vbegin
p2622
sI2644
Vbegun
p2623
sI2645
Vbexarotene
p2624
sI2646
Vbeyond
p2625
sI2647
Vbinds
p2626
sI2648
Vbiotransformation
p2627
sI2649
Vblunt
p2628
sI2650
Vbotulinum
p2629
sI2651
Vbowel
p2630
sI2652
Vbreakdown
p2631
sI2653
Vbreast
p2632
sI2654
Vbusulfan
p2633
sI2655
Vcategory
p2634
sI2656
Vcautioned
p2635
sI2657
Vcefoxitin
p2636
sI2658
Vceftazidime
p2637
sI2659
Vcholinergic
p2638
sI2660
Vcoadministering
p2639
sI2661
Vcoagulant
p2640
sI2662
Vcolor
p2641
sI2663
Vcomparable
p2642
sI2664
Vcompatibility
p2643
sI2665
Vcompetes
p2644
sI2666
Vcompeting
p2645
sI2667
Vcomponent
p2646
sI2668
Vcompromised
p2647
sI2669
Vconcentrates
p2648
sI2670
Vconcern
p2649
sI2671
Vconfusion
p2650
sI2672
Vcongestive
p2651
sI2673
Vconsequences
p2652
sI2674
Vconsistent
p2653
sI2675
Vcontain
p2654
sI2676
Vcontemplated
p2655
sI2677
Vcontinue
p2656
sI2678
Vcontractility
p2657
sI2679
Vcopper
p2658
sI2680
Vcorresponding
p2659
sI2681
Vcortisol
p2660
sI2682
Vcounts
p2661
sI2683
Vcreate
p2662
sI2684
Vcrisis
p2663
sI2685
Vcycle
p2664
sI2686
Vcycles
p2665
sI2687
Vcynomolgus
p2666
sI2688
Vdanazol
p2667
sI2689
Vdate
p2668
sI2690
Vdecitabine
p2669
sI2691
Vdeficiencies
p2670
sI2692
Vdegrees
p2671
sI2693
Vdensity
p2672
sI2694
Vdepletion
p2673
sI2695
Vdes
p2674
sI2696
Vdesethylzaleplon
p2675
sI2697
Vdesloratadine
p2676
sI2698
Vdesmethyldiazepam
p2677
sI2699
Vdetect
p2678
sI2700
Vdiagnosed
p2679
sI2701
Vdialysis
p2680
sI2702
Vdiet
p2681
sI2703
Vdifferences
p2682
sI2704
Vdigitalization
p2683
sI2705
Vdiminution
p2684
sI2706
Vdirectly
p2685
sI2707
Vdisorders
p2686
sI2708
Vdogs
p2687
sI2709
Vdoubling
p2688
sI2710
Vdownward
p2689
sI2711
Vdoxapram
p2690
sI2712
Vdoxepin
p2691
sI2713
Vdryness
p2692
sI2714
Vdysfunction
p2693
sI2715
Vdyspnea
p2694
sI2716
Vdysrhythmias
p2695
sI2717
Vearly
p2696
sI2718
Vemerge
p2697
sI2719
Venantiomer
p2698
sI2720
Vend
p2699
sI2721
Venhances
p2700
sI2722
Venterohepatic
p2701
sI2723
Verlotinib
p2702
sI2724
Verythema
p2703
sI2725
Vestimates
p2704
sI2726
Vethambutol
p2705
sI2727
Vethchlorvynol
p2706
sI2728
Vetomidate
p2707
sI2729
Vexacerbated
p2708
sI2730
Vexaggerate
p2709
sI2731
Vexample
p2710
sI2732
Vexceeded
p2711
sI2733
Vexchange
p2712
sI2734
Vexisting
p2713
sI2735
Vexperimental
p2714
sI2736
Vextended
p2715
sI2737
Vextra
p2716
sI2738
Vextremely
p2717
sI2739
Vfalsely
p2718
sI2740
Vfamily
p2719
sI2741
Vfecal
p2720
sI2742
Vfemales
p2721
sI2743
Vfenoldopam
p2722
sI2744
Vfever
p2723
sI2745
Vfibrate
p2724
sI2746
Vfive
p2725
sI2747
Vflow
p2726
sI2748
Vflucytosine
p2727
sI2749
Vfluids
p2728
sI2750
Vflumazenil
p2729
sI2751
Vformed
p2730
sI2752
Vformoterol
p2731
sI2753
Vfortified
p2732
sI2754
Vfunctional
p2733
sI2755
Vganciclovir
p2734
sI2756
Vgefitinib
p2735
sI2757
Vgel
p2736
sI2758
Vgive
p2737
sI2759
Vgiving
p2738
sI2760
Vglaucoma
p2739
sI2761
Vglimepiride
p2740
sI2762
Vglucuronyl
p2741
sI2763
Vglutathione
p2742
sI2764
Vglycemic
p2743
sI2765
Vgold
p2744
sI2766
Vgram
p2745
sI2767
Vgravis
p2746
sI2768
Vgreatest
p2747
sI2769
Vhalogenated
p2748
sI2770
Vhealth
p2749
sI2771
Vherbal
p2750
sI2772
Vhexobarbital
p2751
sI2773
Vhot
p2752
sI2774
Vhow
p2753
sI2775
Vhydrocarbon
p2754
sI2776
Vhydrolysis
p2755
sI2777
Vhydroxychloroquine
p2756
sI2778
Vhypermagnesemia
p2757
sI2779
Vhyperplasia
p2758
sI2780
Vhyperpyrexia
p2759
sI2781
Vhypersensitivity
p2760
sI2782
Vhyperthyroid
p2761
sI2783
Vhypo
p2762
sI2784
Vhypoglycemics
p2763
sI2785
Vhypoprothrombinemic
p2764
sI2786
Vibandronate
p2765
sI2787
Vidoxuridine
p2766
sI2788
Vileus
p2767
sI2789
Vimmunosuppressants
p2768
sI2790
Vimmunosuppressive
p2769
sI2791
Vinactivation
p2770
sI2792
Vindication
p2771
sI2793
Vineffective
p2772
sI2794
Vinfant
p2773
sI2795
Vinfants
p2774
sI2796
Vinfection
p2775
sI2797
Vinformed
p2776
sI2798
Vingested
p2777
sI2799
Vinhaler
p2778
sI2800
Vinjectable
p2779
sI2801
Vinjections
p2780
sI2802
Vinjury
p2781
sI2803
Vinsulins
p2782
sI2804
Vinteracting
p2783
sI2805
Vinterfering
p2784
sI2806
Vintestine
p2785
sI2807
Vionized
p2786
sI2808
Vipratropium
p2787
sI2809
Virbesartan
p2788
sI2810
Virradiation
p2789
sI2811
Vischemic
p2790
sI2812
Visocarboxazid
p2791
sI2813
Vjustifies
p2792
sI2814
Vleads
p2793
sI2815
Vlenalidomide
p2794
sI2816
Vleucovorin
p2795
sI2817
Vleukopenia
p2796
sI2818
Vlevomepromazine
p2797
sI2819
Vlives
p2798
sI2820
Vlopinavir
p2799
sI2821
Vlowest
p2800
sI2822
Vloxapine
p2801
sI2823
Vlymphocytes
p2802
sI2824
Vlymphoma
p2803
sI2825
Vmacrolides
p2804
sI2826
Vmain
p2805
sI2827
Vmajority
p2806
sI2828
Vmalformations
p2807
sI2829
Vmalignant
p2808
sI2830
Vmanagement
p2809
sI2831
Vmeasurements
p2810
sI2832
Vmechanisms
p2811
sI2833
Vmellitus
p2812
sI2834
Vmembers
p2813
sI2835
Vmental
p2814
sI2836
Vmetabolizer
p2815
sI2837
Vmetal
p2816
sI2838
Vmethsuximide
p2817
sI2839
Vmigraine
p2818
sI2840
Vminimally
p2819
sI2841
Vminipill
p2820
sI2842
Vminoxidil
p2821
sI2843
Vmodification
p2822
sI2844
Vmolecule
p2823
sI2845
Vmonotherapy
p2824
sI2846
Vmonthly
p2825
sI2847
Vmothers
p2826
sI2848
Vmultivitamins
p2827
sI2849
Vmutagenicity
p2828
sI2850
Vmyasthenia
p2829
sI2851
Vmyasthenic
p2830
sI2852
Vmydriasis
p2831
sI2853
Vmyelosuppressive
p2832
sI2854
Vmyelotoxicity
p2833
sI2855
Vnalidixic
p2834
sI2856
Vnaratriptan
p2835
sI2857
Vnc9
p2836
sI2858
Vnecessitating
p2837
sI2859
Vnerve
p2838
sI2860
Vneuroleptic
p2839
sI2861
Vneutrophil
p2840
sI2862
Vneutrophils
p2841
sI2863
Vniacin
p2842
sI2864
Vnilutamide
p2843
sI2865
Vnonetheless
p2844
sI2866
Voccasional
p2845
sI2867
Vorlistat
p2846
sI2868
Vovarian
p2847
sI2869
Voxidation
p2848
sI2870
Vp
sI2871
Vp.o
p2849
sI2872
Vp9
p2850
sI2873
Vpaliperidone
p2851
sI2874
Vparent
p2852
sI2875
Vpass
p2853
sI2876
Vpentazocine
p2854
sI2877
Vpeptic
p2855
sI2878
Vperformance
p2856
sI2879
Vperindoprilat
p2857
sI2880
Vphenylalanine
p2858
sI2881
Vpheochromocytoma
p2859
sI2882
Vphysical
p2860
sI2883
Vpills
p2861
sI2884
Vpneumonia
p2862
sI2885
Vpopulations
p2863
sI2886
Vpredict
p2864
sI2887
Vpregnanediol
p2865
sI2888
Vpresently
p2866
sI2889
Vpretreatment
p2867
sI2890
Vprocedure
p2868
sI2891
Vproduces
p2869
sI2892
Vprolactin
p2870
sI2893
Vprolongs
p2871
sI2894
Vpromote
p2872
sI2895
Vproof
p2873
sI2896
Vproperty
p2874
sI2897
Vprovoke
p2875
sI2898
Vpsychotic
p2876
sI2899
Vpsychotropics
p2877
sI2900
Vpulse
p2878
sI2901
Vpyridoxine
p2879
sI2902
Vq.d
p2880
sI2903
Vq9h
p2881
sI2904
Vradiation
p2882
sI2905
Vranging
p2883
sI2906
Vrapid
p2884
sI2907
Vrashes
p2885
sI2908
Vratio
p2886
sI2909
Vrebound
p2887
sI2910
Vrecent
p2888
sI2911
Vrecently
p2889
sI2912
Vreferred
p2890
sI2913
Vremain
p2891
sI2914
Vremained
p2892
sI2915
Vrender
p2893
sI2916
Vrequirement
p2894
sI2917
Vresolved
p2895
sI2918
Vresorptions
p2896
sI2919
Vretapamulin
p2897
sI2920
Vreturned
p2898
sI2921
Vreveal
p2899
sI2922
Vreversible
p2900
sI2923
Vribs
p2901
sI2924
Vrisperidone
p2902
sI2925
Vsatisfactory
p2903
sI2926
Vschedule
p2904
sI2927
Vscopolamine
p2905
sI2928
Vsecreted
p2906
sI2929
Vseparated
p2907
sI2930
Vsequential
p2908
sI2931
Vserial
p2909
sI2932
Vsimilarly
p2910
sI2933
Vsinus
p2911
sI2934
Vsituations
p2912
sI2935
Vsix
p2913
sI2936
Vslower
p2914
sI2937
Vsole
p2915
sI2938
Vsomatropin
p2916
sI2939
Vspontaneous
p2917
sI2940
Vstage
p2918
sI2941
Vstart
p2919
sI2942
Vstatins
p2920
sI2943
Vsteadystate
p2921
sI2944
Vstill
p2922
sI2945
Vstimulation
p2923
sI2946
Vstructural
p2924
sI2947
Vsubset
p2925
sI2948
Vsubstitute
p2926
sI2949
Vsuccessfully
p2927
sI2950
Vsuccinate
p2928
sI2951
Vsulfapyridine
p2929
sI2952
Vsulfonamide
p2930
sI2953
Vsupplemental
p2931
sI2954
Vsupporting
p2932
sI2955
Vsuppress
p2933
sI2956
Vsurface
p2934
sI2957
Vsuspected
p2935
sI2958
Vsymptomatic
p2936
sI2959
Vt.i.d
p2937
sI2960
Vtamsulosin
p2938
sI2961
Vtarget
p2939
sI2962
Vtechnique
p2940
sI2963
Vtelithromycin
p2941
sI2964
Vtemazepam
p2942
sI2965
Vtended
p2943
sI2966
Vteratogenic
p2944
sI2967
Vterbinafine
p2945
sI2968
Vterbutaline
p2946
sI2969
Vthrombin
p2947
sI2970
Vtorsade
p2948
sI2971
Vtransdermal
p2949
sI2972
Vtransmission
p2950
sI2973
Vtreating
p2951
sI2974
Vtriglyceride
p2952
sI2975
Vtrimetrexate
p2953
sI2976
Vtriple
p2954
sI2977
Vunaltered
p2955
sI2978
Vundergo
p2956
sI2979
Vvaccination
p2957
sI2980
Vvasoconstrictive
p2958
sI2981
Vvasoconstrictor
p2959
sI2982
Vvasodilating
p2960
sI2983
Vvasopressor
p2961
sI2984
Vvoriconazole
p2962
sI2985
Vwarned
p2963
sI2986
Vwarrant
p2964
sI2987
Vwater
p2965
sI2988
Vweaken
p2966
sI2989
Vwide
p2967
sI2990
Vwindow
p2968
sI2991
Vyear
p2969
sI2992
V#
sI2993
V..
p2970
sI2994
V.9
p2971
sI2995
V9:9
p2972
sI2996
V9m
p2973
sI2997
V<
sI2998
VACEI
p2974
sI2999
VAGGRASTAT
p2975
sI3000
VAIDS
p2976
sI3001
VALLEGRA
p2977
sI3002
VALPHAGAN
p2978
sI3003
VALTABAX
p2979
sI3004
VAN
p2980
sI3005
VANC
p2981
sI3006
VAPOKYN
p2982
sI3007
VAPTT
p2983
sI3008
VARB
p2984
sI3009
VARE
p2985
sI3010
VARIMIDEX
p2986
sI3011
VAT
p2987
sI3012
VAUGMENTIN
p2988
sI3013
VAZOPT
p2989
sI3014
VAccelerated
p2990
sI3015
VAcidity
p2991
sI3016
VActive
p2992
sI3017
VActivity
p2993
sI3018
VAddition
p2994
sI3019
VAdenocard
p2995
sI3020
VAdenosine
p2996
sI3021
VAdrenergic
p2997
sI3022
VAdverse
p2998
sI3023
VAffecting
p2999
sI3024
VAfrican
p3000
sI3025
VAlbendazole
p3001
sI3026
VAlbuterol
p3002
sI3027
VAldehyde
p3003
sI3028
VAlone
p3004
sI3029
VAlosetron
p3005
sI3030
VAlteration
p3006
sI3031
VAltered
p3007
sI3032
VAlternatives
p3008
sI3033
VAmantadine
p3009
sI3034
VAminoglutethimide
p3010
sI3035
VAminoglycosides
p3011
sI3036
VAmong
p3012
sI3037
VAnalgesics
p3013
sI3038
VAnesthetics
p3014
sI3039
VAntabuse
p3015
sI3040
VAntacid
p3016
sI3041
VAntagonist
p3017
sI3042
VAntihypertensives
p3018
sI3043
VAntiinflammatory
p3019
sI3044
VAntineoplastic
p3020
sI3045
VAntiretroviral
p3021
sI3046
VAntithrombotics
p3022
sI3047
VAntithyroid
p3023
sI3048
VAny
p3024
sI3049
VAsian
p3025
sI3050
VAspergillus
p3026
sI3051
VAzithromycin
p3027
sI3052
VBETAGAN
p3028
sI3053
VBefore
p3029
sI3054
VBile
p3030
sI3055
VBismuth
p3031
sI3056
VBleeding
p3032
sI3057
VBroad
p3033
sI3058
VBy
p3034
sI3059
VCHOLESTYRAMINE
p3035
sI3060
VCLINISTIX
p3036
sI3061
VCLOLAR
p3037
sI3062
VCOLESTID
p3038
sI3063
VCONJUNCTION
p3039
sI3064
VCOREG
p3040
sI3065
VCP9
p3041
sI3066
VCancer
p3042
sI3067
VCategory
p3043
sI3068
VCerebyx
p3044
sI3069
VCevimeline
p3045
sI3070
VChemotherapy
p3046
sI3071
VChloramphenicol
p3047
sI3072
VCholinesterase
p3048
sI3073
VCitalopram
p3049
sI3074
VClonidine
p3050
sI3075
VCoagulation
p3051
sI3076
VColestipol
p3052
sI3077
VCombined
p3053
sI3078
VCompazine
p3054
sI3079
VCongestive
p3055
sI3080
VConsider
p3056
sI3081
VCordarone
p3057
sI3082
VCromolyn
p3058
sI3083
VCurariform
p3059
sI3084
VCyP9
p3060
sI3085
VCyclophosphamide
p3061
sI3086
VCyclosporin
p3062
sI3087
VDEMSER
p3063
sI3088
VDETERMINED
p3064
sI3089
VDISULFIRAM
p3065
sI3090
VDOXIL
p3066
sI3091
VDSST
p3067
sI3092
VDay9
p3068
sI3093
VDecrease
p3069
sI3094
VDecreases
p3070
sI3095
VDepressants
p3071
sI3096
VDerivatives
p3072
sI3097
VDesloratadine
p3073
sI3098
VDesmopressin
p3074
sI3099
VDiabetics
p3075
sI3100
VDiazepam
p3076
sI3101
VDicumarol
p3077
sI3102
VDiltiazem
p3078
sI3103
VDipyridamole
p3079
sI3104
VDisturbances
p3080
sI3105
VDo
p3081
sI3106
VDofetilide
p3082
sI3107
VDolasetron
p3083
sI3108
VDosed
p3084
sI3109
VDoxorubicin
p3085
sI3110
VDur
p3086
sI3111
VE
sI3112
VED9
p3087
sI3113
VEE
p3088
sI3114
VELDEPRYL
p3089
sI3115
VELOXATIN
p3090
sI3116
VELSPAR
p3091
sI3117
VER
p3092
sI3118
VERBITUX
p3093
sI3119
VERGOMAR
p3094
sI3120
VEVISTA
p3095
sI3121
VEnalapril
p3096
sI3122
VEphedrine
p3097
sI3123
VEscherichia
p3098
sI3124
VEstrogen
p3099
sI3125
VEthopropazine
p3100
sI3126
VEvidence
p3101
sI3127
VExample
p3102
sI3128
VExamples
p3103
sI3129
VExelon
p3104
sI3130
VEzetimibe
p3105
sI3131
VFLEXERIL
p3106
sI3132
VFLUOTHANE
p3107
sI3133
VFactrel
p3108
sI3134
VFailure
p3109
sI3135
VFelodipine
p3110
sI3136
VFemale
p3111
sI3137
VFluconazole
p3112
sI3138
VFolic
p3113
sI3139
VFondaparinux
p3114
sI3140
VGDH
p3115
sI3141
VGIVEN
p3116
sI3142
VGanciclovir
p3117
sI3143
VGarlic
p3118
sI3144
VGastrointestinal
p3119
sI3145
VGenerally
p3120
sI3146
VGlucose
p3121
sI3147
VGlycosides
p3122
sI3148
VGrapefruit
p3123
sI3149
VGrepafloxacin
p3124
sI3150
VGriseofulvin
p3125
sI3151
VGuardians
p3126
sI3152
VHAS
p3127
sI3153
VHCI
p3128
sI3154
VHDAC
p3129
sI3155
VHDL9
p3130
sI3156
VHT9B9D
p3131
sI3157
VHeart
p3132
sI3158
VHigh
p3133
sI3159
VHuman
p3134
sI3160
VHyaluronidase
p3135
sI3161
VHydroxydesloratadine
p3136
sI3162
VHypnotics
p3137
sI3163
VIIIa
p3138
sI3164
VINAPSINE
p3139
sI3165
VINCREASE
p3140
sI3166
VINOmax
p3141
sI3167
VINVEGA
p3142
sI3168
VIOP
p3143
sI3169
VIOPIDINE
p3144
sI3170
VIS
p3145
sI3171
VIT
p3146
sI3172
VImipramine
p3147
sI3173
VImitrex
p3148
sI3174
VImmunosuppressants
p3149
sI3175
VImplant
p3150
sI3176
VIncluding
p3151
sI3177
VIncrease
p3152
sI3178
VInduction
p3153
sI3179
VInfarction
p3154
sI3180
VInflammatory
p3155
sI3181
VInterfere
p3156
sI3182
VInterferon
p3157
sI3183
VIsoenzymes
p3158
sI3184
VIsoproterenol
p3159
sI3185
VIsozymes
p3160
sI3186
VJaffe
p3161
sI3187
VKetoprofen
p3162
sI3188
VKetorolac
p3163
sI3189
VLABORATORY
p3164
sI3190
VLEUSTATIN
p3165
sI3191
VLEVSIN
p3166
sI3192
VLEXAPRO
p3167
sI3193
VLNG
p3168
sI3194
VLamivudine
p3169
sI3195
VLess
p3170
sI3196
VLeukine
p3171
sI3197
VLevetiracetam
p3172
sI3198
VLipids
p3173
sI3199
VLiterature
p3174
sI3200
VLive
p3175
sI3201
VLiver
p3176
sI3202
VLofexidine
p3177
sI3203
VLong
p3178
sI3204
VLoop
p3179
sI3205
VLow
p3180
sI3206
VMAY
p3181
sI3207
VMICRONASE
p3182
sI3208
VMIRAPEX
p3183
sI3209
VMODIFIED
p3184
sI3210
VMPA
p3185
sI3211
VMPAG
p3186
sI3212
VMYKROX
p3187
sI3213
VMacrolide
p3188
sI3214
VMacrolides
p3189
sI3215
VMarked
p3190
sI3216
VMatulane
p3191
sI3217
VMedications
p3192
sI3218
VMefloquineuine
p3193
sI3219
VMeloxicam
p3194
sI3220
VMeperidine
p3195
sI3221
VMercaptopurine
p3196
sI3222
VMetformin
p3197
sI3223
VMethenamine
p3198
sI3224
VMethyldopa
p3199
sI3225
VMetoclopramide
p3200
sI3226
VMetolazone
p3201
sI3227
VMicro
p3202
sI3228
VMidazolam
p3203
sI3229
VMixed
p3204
sI3230
VMorphine
p3205
sI3231
VMultiple
p3206
sI3232
VMultivitamins
p3207
sI3233
VMuscle
p3208
sI3234
VMylotarg
p3209
sI3235
VMyopathy
p3210
sI3236
VN=
p3211
sI3237
VNNRTIs
p3212
sI3238
VNRTIs
p3213
sI3239
VNalfon
p3214
sI3240
VNasal
p3215
sI3241
VNeulasta
p3216
sI3242
VNeuroleptic
p3217
sI3243
VNiacin
p3218
sI3244
VNicotine
p3219
sI3245
VNicotinic
p3220
sI3246
VNitrates
p3221
sI3247
VNovum
p3222
sI3248
VNutropin
p3223
sI3249
VO
sI3250
VOMNICEF
p3224
sI3251
VON
p3225
sI3252
VOXC
p3226
sI3253
VOphthalmic
p3227
sI3254
VOpioids
p3228
sI3255
VOrlistat
p3229
sI3256
VOrtho
p3230
sI3257
VP9A9
p3231
sI3258
VPATIENTS
p3232
sI3259
VPEG
p3233
sI3260
VPIPRACIL
p3234
sI3261
VPK
p3235
sI3262
VPLETAL
p3236
sI3263
VPPIs
p3237
sI3264
VPQQ
p3238
sI3265
VPRA
p3239
sI3266
VPRECEDEX
p3240
sI3267
VPROTHROMBIN
p3241
sI3268
VPSA
p3242
sI3269
VPaliperidone
p3243
sI3270
VPanretin
p3244
sI3271
VPeripheral
p3245
sI3272
VPhenergan
p3246
sI3273
VPhenylbutazone
p3247
sI3274
VPhosphate
p3248
sI3275
VPlatelet
p3249
sI3276
VPneumocystis
p3250
sI3277
VPonstel
p3251
sI3278
VPost
p3252
sI3279
VPregnancies
p3253
sI3280
VPresence
p3254
sI3281
VPrimidone
p3255
sI3282
VPrior
p3256
sI3283
VProlixin
p3257
sI3284
VProlongation
p3258
sI3285
VProlonged
p3259
sI3286
VPropoxyphene
p3260
sI3287
VProton
p3261
sI3288
VPump
p3262
sI3289
VPurinethol
p3263
sI3290
VQ
sI3291
VQ9h
p3264
sI3292
VQID
p3265
sI3293
VRESIN
p3266
sI3294
VRarely
p3267
sI3295
VReactions
p3268
sI3296
VRead
p3269
sI3297
VRebif
p3270
sI3298
VRecommended
p3271
sI3299
VRegimen
p3272
sI3300
VReported
p3273
sI3301
VResistance
p3274
sI3302
VResponse
p3275
sI3303
VRhabdomyolysis
p3276
sI3304
VRhesus
p3277
sI3305
VRibavirin
p3278
sI3306
VRifampicin
p3279
sI3307
VRobinul
p3280
sI3308
VRoegnik
p3281
sI3309
VRopivacaine
p3282
sI3310
VSINEQUAN
p3283
sI3311
VSMX
p3284
sI3312
VSPIRIVA
p3285
sI3313
VSTRATTERA
p3286
sI3314
VSUPRAX
p3287
sI3315
VSalmonella
p3288
sI3316
VSanctura
p3289
sI3317
VScopolamine
p3290
sI3318
VSelegiline
p3291
sI3319
VSildenafil
p3292
sI3320
VSimvastatin
p3293
sI3321
VSingle
p3294
sI3322
VSodium
p3295
sI3323
VSpray
p3296
sI3324
VStandard
p3297
sI3325
VState
p3298
sI3326
VStavudine
p3299
sI3327
VSubstrate
p3300
sI3328
VSulfonamides
p3301
sI3329
VSulfoxone
p3302
sI3330
VSympathomimetic
p3303
sI3331
VSymptoms
p3304
sI3332
VSystems
p3305
sI3333
VTAXOTERE
p3306
sI3334
VTC
p3307
sI3335
VTENORMIN
p3308
sI3336
VTEST
p3309
sI3337
VTHAT
p3310
sI3338
VTIME
p3311
sI3339
VTMP
p3312
sI3340
VTOBI
p3313
sI3341
VTORADOLIV
p3314
sI3342
VTRACRIUM
p3315
sI3343
VTRANXENE
p3316
sI3344
VTRITEC
p3317
sI3345
VTSH
p3318
sI3346
VTYKERB
p3319
sI3347
VTadalafil
p3320
sI3348
VTaking
p3321
sI3349
VTalk
p3322
sI3350
VTheo
p3323
sI3351
VThorazine
p3324
sI3352
VThree
p3325
sI3353
VTolbutamide
p3326
sI3354
VTransport
p3327
sI3355
VTriprolidine
p3328
sI3356
VTylenol
p3329
sI3357
VUROXATRAL
p3330
sI3358
VUSED
p3331
sI3359
VUltram
p3332
sI3360
VUsing
p3333
sI3361
VUsually
p3334
sI3362
VV
sI3363
VVASOTEC
p3335
sI3364
VVaccinations
p3336
sI3365
VValdecoxib
p3337
sI3366
VVeratrum
p3338
sI3367
VVitrasert
p3339
sI3368
VWARNING
p3340
sI3369
VWHEN
p3341
sI3370
VWait
p3342
sI3371
VWhether
p3343
sI3372
VWhich
p3344
sI3373
VXa
p3345
sI3374
VYou
p3346
sI3375
VZAVESCA
p3347
sI3376
VZDV
p3348
sI3377
VZINECARD
p3349
sI3378
VZalcitabine
p3350
sI3379
VaPTT
p3351
sI3380
Vabdominal
p3352
sI3381
Vabortifacient
p3353
sI3382
Vabsent
p3354
sI3383
Vabsolute
p3355
sI3384
Vabuse
p3356
sI3385
Vacamprosate
p3357
sI3386
Vaccidents
p3358
sI3387
Vaccounts
p3359
sI3388
Vaccumulation
p3360
sI3389
Vacebutolol
p3361
sI3390
Vachlorhydria
p3362
sI3391
Vactivated
p3363
sI3392
Vactivities
p3364
sI3393
Vacyclovir
p3365
sI3394
Vaddiction
p3366
sI3395
Vadjunctive
p3367
sI3396
Vadrenocortical
p3368
sI3397
Vadvanced
p3369
sI3398
Valefacept
p3370
sI3399
Valkaloid
p3371
sI3400
Valleviate
p3372
sI3401
Vallow
p3373
sI3402
Vallowed
p3374
sI3403
Valmost
p3375
sI3404
Valong
p3376
sI3405
Valternate
p3377
sI3406
Valternately
p3378
sI3407
Valways
p3379
sI3408
Vamenorrhea
p3380
sI3409
Vamikacin
p3381
sI3410
Vaminotransferase
p3382
sI3411
Vammonium
p3383
sI3412
Vanaphylaxis
p3384
sI3413
Vanastrozole
p3385
sI3414
Vanemia
p3386
sI3415
Vangiotensinogen
p3387
sI3416
Vanionic
p3388
sI3417
Vantagonise
p3389
sI3418
Vantagonistic
p3390
sI3419
Vantianginal
p3391
sI3420
Vantianxiety
p3392
sI3421
Vantibodies
p3393
sI3422
Vantibody
p3394
sI3423
Vantiglaucoma
p3395
sI3424
Vantiinflammatory
p3396
sI3425
Vantimicrobial
p3397
sI3426
Vantimuscarinic
p3398
sI3427
Vantimycotics
p3399
sI3428
Vantineoplastic
p3400
sI3429
Vantiseizure
p3401
sI3430
Vantithyroid
p3402
sI3431
Vantitrypsin
p3403
sI3432
Vantitumor
p3404
sI3433
Vanxiety
p3405
sI3434
Vapparently
p3406
sI3435
Vapple
p3407
sI3436
Vapproved
p3408
sI3437
Varbutamine
p3409
sI3438
Vareas
p3410
sI3439
Varginine
p3411
sI3440
Varrhythmic
p3412
sI3441
Varthralgia
p3413
sI3442
Vascorbic
p3414
sI3443
Vasparaginase
p3415
sI3444
Vatropinization
p3416
sI3445
Vattacks
p3417
sI3446
Vattenuation
p3418
sI3447
Vaugment
p3419
sI3448
Vautonomic
p3420
sI3449
Vaveraged
p3421
sI3450
Vaware
p3422
sI3451
Vaxis
p3423
sI3452
Vbalance
p3424
sI3453
Vbasal
p3425
sI3454
Vbeadministered
p3426
sI3455
Vbear
p3427
sI3456
Vbecausedecreases
p3428
sI3457
Vbeginning
p3429
sI3458
Vbelieved
p3430
sI3459
Vbenign
p3431
sI3460
Vbezafibrate
p3432
sI3461
Vbid
p3433
sI3462
Vbiological
p3434
sI3463
Vbiweekly
p3435
sI3464
Vblack
p3436
sI3465
Vblunted
p3437
sI3466
Vblunts
p3438
sI3467
Vbones
p3439
sI3468
Vborne
p3440
sI3469
Vbrain
p3441
sI3470
Vbrinzolamide
p3442
sI3471
Vbromelains
p3443
sI3472
Vbromide
p3444
sI3473
Vbromocriptine
p3445
sI3474
Vbronchodilator
p3446
sI3475
Vbudesonide
p3447
sI3476
Vcandesartan
p3448
sI3477
Vcarbachol
p3449
sI3478
Vcarbidopa
p3450
sI3479
Vcarcinogenic
p3451
sI3480
Vcarcinogenicity
p3452
sI3481
Vcardioselective
p3453
sI3482
Vcardiotoxicity
p3454
sI3483
Vcarinii
p3455
sI3484
Vcatabolic
p3456
sI3485
Vcategories
p3457
sI3486
Vcation
p3458
sI3487
Vcefamandole
p3459
sI3488
Vcefazolin
p3460
sI3489
Vcefditoren
p3461
sI3490
Vcefotetan
p3462
sI3491
Vcefprozil
p3463
sI3492
Vcerebrovascular
p3464
sI3493
Vceruloplasmin
p3465
sI3494
Vcervical
p3466
sI3495
Vcevimeline
p3467
sI3496
Vcharcoal
p3468
sI3497
Vcheck
p3469
sI3498
Vchelates
p3470
sI3499
Vchemotherapeutic
p3471
sI3500
Vchloramphenicol
p3472
sI3501
Vchlorothiazide
p3473
sI3502
Vchlorpheniramine
p3474
sI3503
Vchlorthalidone
p3475
sI3504
Vcholine
p3476
sI3505
Vchromatographic
p3477
sI3506
Vcinchophen
p3478
sI3507
Vcinoxacin
p3479
sI3508
Vcirculars
p3480
sI3509
Vcirculation
p3481
sI3510
Vcitrate
p3482
sI3511
Vclastogenic
p3483
sI3512
Vclear
p3484
sI3513
Vclearances
p3485
sI3514
Vcleared
p3486
sI3515
Vclearly
p3487
sI3516
Vcoating
p3488
sI3517
Vcolchicine
p3489
sI3518
Vcold
p3490
sI3519
Vcoli
p3491
sI3520
Vcolistimethate
p3492
sI3521
Vcolorimetric
p3493
sI3522
Vcomparing
p3494
sI3523
Vcompensate
p3495
sI3524
Vcompete
p3496
sI3525
Vcompetitively
p3497
sI3526
Vcomplete
p3498
sI3527
Vcompleted
p3499
sI3528
Vcompletely
p3500
sI3529
Vcompliance
p3501
sI3530
Vcomplication
p3502
sI3531
Vconcentrate
p3503
sI3532
Vconfusional
p3504
sI3533
Vconsequence
p3505
sI3534
Vconsequently
p3506
sI3535
Vconsiderable
p3507
sI3536
Vconsisted
p3508
sI3537
Vconstipation
p3509
sI3538
Vconsulting
p3510
sI3539
Vcontained
p3511
sI3540
Vcontinuation
p3512
sI3541
Vcontinuous
p3513
sI3542
Vcontribute
p3514
sI3543
Vcontribution
p3515
sI3544
Vcreatine
p3516
sI3545
Vcritical
p3517
sI3546
Vcross
p3518
sI3547
Vcurare
p3519
sI3548
Vcurariform
p3520
sI3549
Vcurrent
p3521
sI3550
Vcyclopropane
p3522
sI3551
Vcystic
p3523
sI3552
Vcytochromes
p3524
sI3553
Vd
sI3554
Vdangerous
p3525
sI3555
Vdaptomycin
p3526
sI3556
Vdatabase
p3527
sI3557
Vdecision
p3528
sI3558
Vdeferasirox
p3529
sI3559
Vdefinitely
p3530
sI3560
Vdehydration
p3531
sI3561
Vdehydrogenase
p3532
sI3562
Vdelaying
p3533
sI3563
Vdelirium
p3534
sI3564
Vdelivery
p3535
sI3565
Vdepending
p3536
sI3566
Vdepletor
p3537
sI3567
Vdepressive
p3538
sI3568
Vderived
p3539
sI3569
Vdermatitis
p3540
sI3570
Vdescarboethoxyloratadine
p3541
sI3571
Vdetermination
p3542
sI3572
Vdextrothyroxine
p3543
sI3573
Vdiagnosis
p3544
sI3574
Vdietary
p3545
sI3575
Vdifference
p3546
sI3576
Vdifferential
p3547
sI3577
Vdifficulty
p3548
sI3578
Vdigitalized
p3549
sI3579
Vdiphenidol
p3550
sI3580
Vdiphenoxylate
p3551
sI3581
Vdiphenylhydantoin
p3552
sI3582
Vdirected
p3553
sI3583
Vdisintegrating
p3554
sI3584
Vdissolving
p3555
sI3585
Vdivalproex
p3556
sI3586
Vdivided
p3557
sI3587
Vdopaminergic
p3558
sI3588
Vdouble
p3559
sI3589
Vdoubled
p3560
sI3590
Vdoxylamine
p3561
sI3591
Vdrawn
p3562
sI3592
Vdrinking
p3563
sI3593
Vdroperidol
p3564
sI3594
Vdurations
p3565
sI3595
Vearlier
p3566
sI3596
Vearth
p3567
sI3597
Velements
p3568
sI3598
Velicit
p3569
sI3599
Vembryonic
p3570
sI3600
Vemetic
p3571
sI3601
Vempty
p3572
sI3602
Venalaprilat
p3573
sI3603
Vencountered
p3574
sI3604
Vendings
p3575
sI3605
Venfuvirtide
p3576
sI3606
Venhancing
p3577
sI3607
Venrolled
p3578
sI3608
Venterocolitis
p3579
sI3609
Vephedrine
p3580
sI3610
Vepisodes
p3581
sI3611
Veprosartan
p3582
sI3612
Vergonovine
p3583
sI3613
Vescalating
p3584
sI3614
Vesters
p3585
sI3615
Vethinylestradiol
p3586
sI3616
Vethionamide
p3587
sI3617
Vethyl
p3588
sI3618
Vetretinate
p3589
sI3619
Vevent
p3590
sI3620
Vevident
p3591
sI3621
Vexacerbate
p3592
sI3622
Vexaggerated
p3593
sI3623
Vexamining
p3594
sI3624
Vexcess
p3595
sI3625
Vexhibits
p3596
sI3626
Vexperiencing
p3597
sI3627
Vexplored
p3598
sI3628
Vextraction
p3599
sI3629
Vextrapyramidal
p3600
sI3630
Vextravasation
p3601
sI3631
Vextremities
p3602
sI3632
Vfalls
p3603
sI3633
Vfell
p3604
sI3634
Vferricyanide
p3605
sI3635
Vfetus
p3606
sI3636
Vfibrosis
p3607
sI3637
Vfiltration
p3608
sI3638
Vflu
p3609
sI3639
Vfluctuations
p3610
sI3640
Vfluid
p3611
sI3641
Vfluphenazine
p3612
sI3642
Vfluvastatin
p3613
sI3643
Vfolate
p3614
sI3644
Vformula
p3615
sI3645
Vfoscarnet
p3616
sI3646
Vfruit
p3617
sI3647
Vfull
p3618
sI3648
Vfumarate
p3619
sI3649
Vfurazolidone
p3620
sI3650
Vgelatin
p3621
sI3651
Vgemfibrozil
p3622
sI3652
Vgeriatric
p3623
sI3653
Vgestodene
p3624
sI3654
Vgland
p3625
sI3655
Vglatiramer
p3626
sI3656
Vglibenclamide
p3627
sI3657
Vglomerular
p3628
sI3658
Vgluconate
p3629
sI3659
Vglucuronide
p3630
sI3660
Vglutamic
p3631
sI3661
Vglutethimide
p3632
sI3662
Vgm
p3633
sI3663
Vgonadal
p3634
sI3664
Vgout
p3635
sI3665
Vgradually
p3636
sI3666
Vgrams
p3637
sI3667
Vgreat
p3638
sI3668
Vh.s
p3639
sI3669
Vhalofantrine
p3640
sI3670
Vhalved
p3641
sI3671
Vhazard
p3642
sI3672
Vheadache
p3643
sI3673
Vhematologic
p3644
sI3674
Vhemostasis
p3645
sI3675
Vhence
p3646
sI3676
Vhepatotoxicity
p3647
sI3677
Vherb
p3648
sI3678
Vhere
p3649
sI3679
Vheroin
p3650
sI3680
Vhexokinase
p3651
sI3681
Vhighest
p3652
sI3682
Vhistidine
p3653
sI3683
Vhref=
p3654
sI3684
Vhydrochloric
p3655
sI3685
Vhydrocortisone
p3656
sI3686
Vhydroxybupropion
p3657
sI3687
Vhydroxyzine
p3658
sI3688
Vhypercholesterolemic
p3659
sI3689
Vhyperthermia
p3660
sI3690
Vhyperthyroidism
p3661
sI3691
Vhypertriglyceridemia
p3662
sI3692
Vhyperuricemic
p3663
sI3693
Vhypokalemic
p3664
sI3694
Vhypoparathyroid
p3665
sI3695
Vhypothyroidism
p3666
sI3696
Vi
sI3697
Vibutilide
p3667
sI3698
Videntify
p3668
sI3699
Vifosfamide
p3669
sI3700
Vimidazole
p3670
sI3701
Vimmunocompromised
p3671
sI3702
Vimmunosuppression
p3672
sI3703
Vimpairing
p3673
sI3704
Vimpeding
p3674
sI3705
Vimplants
p3675
sI3706
Vimplication
p3676
sI3707
Vinactivate
p3677
sI3708
Vinactive
p3678
sI3709
Vinadequate
p3679
sI3710
Vinclusive
p3680
sI3711
Vincompatibility
p3681
sI3712
Vincompatible
p3682
sI3713
Vincompletely
p3683
sI3714
Vinconclusive
p3684
sI3715
Vinfluenced
p3685
sI3716
Vinfluenza
p3686
sI3717
Vinjectables
p3687
sI3718
Vinsert
p3688
sI3719
Vinsignificant
p3689
sI3720
Vinsufficient
p3690
sI3721
Vintensity
p3691
sI3722
Vinteractive
p3692
sI3723
Vinterruption
p3693
sI3724
Vintestines
p3694
sI3725
Vintolerance
p3695
sI3726
Vintroduced
p3696
sI3727
Viodinated
p3697
sI3728
Virritability
p3698
sI3729
Vischemia
p3699
sI3730
Visosorbide
p3700
sI3731
Vjuices
p3701
sI3732
Vketamine
p3702
sI3733
Vketones
p3703
sI3734
Vkidneys
p3704
sI3735
Vlabeling
p3705
sI3736
Vlactam
p3706
sI3737
Vlarger
p3707
sI3738
Vlasting
p3708
sI3739
Vlater
p3709
sI3740
Vlength
p3710
sI3741
Vlessen
p3711
sI3742
Vlessened
p3712
sI3743
Vleukocyte
p3713
sI3744
Vlevamisole
p3714
sI3745
Vlevorphanol
p3715
sI3746
Vlinezolid
p3716
sI3747
Vlipoproteins
p3717
sI3748
Vliquid
p3718
sI3749
Vlisinopril
p3719
sI3750
Vlists
p3720
sI3751
Vlowered
p3721
sI3752
Vluteinizing
p3722
sI3753
Vlymphocyte
p3723
sI3754
Vmakes
p3724
sI3755
Vmammalian
p3725
sI3756
Vmanifested
p3726
sI3757
Vmanner
p3727
sI3758
Vmask
p3728
sI3759
Vmaternal
p3729
sI3760
Vmaximal
p3730
sI3761
Vmazindol
p3731
sI3762
Vmeasurable
p3732
sI3763
Vmeasure
p3733
sI3764
Vmecamylamine
p3734
sI3765
Vmedian
p3735
sI3766
Vmediate
p3736
sI3767
Vmedroxyprogesterone
p3737
sI3768
Vmelphalan
p3738
sI3769
Vmember
p3739
sI3770
Vmeprobamate
p3740
sI3771
Vmeropenem
p3741
sI3772
Vmesenteric
p3742
sI3773
Vmethenamine
p3743
sI3774
Vmetolazone
p3744
sI3775
Vmice
p3745
sI3776
Vmicrodosed
p3746
sI3777
Vmicronucleus
p3747
sI3778
Vmidcycle
p3748
sI3779
Vmildly
p3749
sI3780
Vmilrinone
p3750
sI3781
Vmineral
p3751
sI3782
Vminimum
p3752
sI3783
Vmitotane
p3753
sI3784
Vmix
p3754
sI3785
Vmodel
p3755
sI3786
Vmodels
p3756
sI3787
Vmoderately
p3757
sI3788
Vmonoamines
p3758
sI3789
Vmotor
p3759
sI3790
Vmultivalent
p3760
sI3791
Vmutagenic
p3761
sI3792
Vmutation
p3762
sI3793
Vn=
p3763
sI3794
Vnabumetone
p3764
sI3795
Vnadolol
p3765
sI3796
Vnalbuphine
p3766
sI3797
Vnatriuresis
p3767
sI3798
Vnecessitate
p3768
sI3799
Vnefazadone
p3769
sI3800
Vnet
p3770
sI3801
Vneurologic
p3771
sI3802
Vneuron
p3772
sI3803
Vnicotine
p3773
sI3804
Vnimodipine
p3774
sI3805
Vnitazoxanide
p3775
sI3806
Vnitrite
p3776
sI3807
Vnitroferricyanide
p3777
sI3808
Vnodal
p3778
sI3809
Vnode
p3779
sI3810
Vnonselective
p3780
sI3811
Vnose
p3781
sI3812
Vnotably
p3782
sI3813
Vnote
p3783
sI3814
Vnucleoside
p3784
sI3815
Vnutritional
p3785
sI3816
Vobstetric
p3786
sI3817
Voccasions
p3787
sI3818
Voccult
p3788
sI3819
Voff
p3789
sI3820
Volanzapine
p3790
sI3821
Voliguria
p3791
sI3822
Vopiates
p3792
sI3823
Vorgan
p3793
sI3824
Vosteomalacia
p3794
sI3825
Voveractive
p3795
sI3826
Voverdose
p3796
sI3827
Voxazepam
p3797
sI3828
Voxipurinol
p3798
sI3829
Voxo
p3799
sI3830
Voxolinic
p3800
sI3831
Voxygen
p3801
sI3832
Voxymetholone
p3802
sI3833
Vpacemaker
p3803
sI3834
Vpaid
p3804
sI3835
Vpancuronium
p3805
sI3836
Vparaldehyde
p3806
sI3837
Vparallel
p3807
sI3838
Vparalytic
p3808
sI3839
Vparasympathomimetic
p3809
sI3840
Vparathyroid
p3810
sI3841
Vparenterally
p3811
sI3842
Vpectoris
p3812
sI3843
Vpegylated
p3813
sI3844
Vpelvic
p3814
sI3845
Vpenciclovir
p3815
sI3846
Vpenicillamine
p3816
sI3847
Vpercent
p3817
sI3848
Vpercentage
p3818
sI3849
Vpergolide
p3819
sI3850
Vperiods
p3820
sI3851
Vperivascular
p3821
sI3852
Vpermeability
p3822
sI3853
Vperphenazine
p3823
sI3854
Vpersistent
p3824
sI3855
Vperson
p3825
sI3856
Vpharmaco
p3826
sI3857
Vpharmacological
p3827
sI3858
Vphase
p3828
sI3859
Vphenformin
p3829
sI3860
Vphenomenon
p3830
sI3861
Vphenyramidol
p3831
sI3862
Vphysiologic
p3832
sI3863
Vpilocarpine
p3833
sI3864
Vpivoxil
p3834
sI3865
Vplaced
p3835
sI3866
Vplasmaconcentrations
p3836
sI3867
Vplasminogen
p3837
sI3868
Vplatelets
p3838
sI3869
Vpossessing
p3839
sI3870
Vpraziquantel
p3840
sI3871
Vprazosin
p3841
sI3872
Vpreanesthetic
p3842
sI3873
Vprecaution
p3843
sI3874
Vpreceding
p3844
sI3875
Vprecipitation
p3845
sI3876
Vpreclinical
p3846
sI3877
Vpremedication
p3847
sI3878
Vpremedications
p3848
sI3879
Vprescriber
p3849
sI3880
Vprescribers
p3850
sI3881
Vpresumably
p3851
sI3882
Vpreterm
p3852
sI3883
Vprevalence
p3853
sI3884
Vprimate
p3854
sI3885
Vprocarbazine
p3855
sI3886
Vproceed
p3856
sI3887
Vprodrug
p3857
sI3888
Vprofiles
p3858
sI3889
Vprogestational
p3859
sI3890
Vprogestogens
p3860
sI3891
Vproliferation
p3861
sI3892
Vprolonging
p3862
sI3893
Vpromoting
p3863
sI3894
Vprone
p3864
sI3895
Vpropantheline
p3865
sI3896
Vproper
p3866
sI3897
Vproportion
p3867
sI3898
Vproposed
p3868
sI3899
Vprostaglandins
p3869
sI3900
Vpsoriasis
p3870
sI3901
Vpsychomotor
p3871
sI3902
Vpups
p3872
sI3903
Vpurpose
p3873
sI3904
Vpyrazolones
p3874
sI3905
Vqd
p3875
sI3906
Vrabbit
p3876
sI3907
Vradiotherapy
p3877
sI3908
Vraising
p3878
sI3909
Vraloxifene
p3879
sI3910
Vrandom
p3880
sI3911
Vrandomized
p3881
sI3912
Vrapidly
p3882
sI3913
Vrates
p3883
sI3914
Vreach
p3884
sI3915
Vreasons
p3885
sI3916
Vreassessed
p3886
sI3917
Vreceptors
p3887
sI3918
Vrecirculation
p3888
sI3919
Vrecognized
p3889
sI3920
Vrecommendations
p3890
sI3921
Vrecover
p3891
sI3922
Vred
p3892
sI3923
Vreflected
p3893
sI3924
Vreflecting
p3894
sI3925
Vreflex
p3895
sI3926
Vrefractory
p3896
sI3927
Vregard
p3897
sI3928
Vregardless
p3898
sI3929
Vreliable
p3899
sI3930
Vremedies
p3900
sI3931
Vremoved
p3901
sI3932
Vrenally
p3902
sI3933
Vrepeat
p3903
sI3934
Vreplication
p3904
sI3935
Vreproductive
p3905
sI3936
Vresorcinol
p3906
sI3937
Vrespiration
p3907
sI3938
Vresponses
p3908
sI3939
Vresponsive
p3909
sI3940
Vreturn
p3910
sI3941
Vrise
p3911
sI3942
Vrises
p3912
sI3943
Vrocuronium
p3913
sI3944
Vrodent
p3914
sI3945
Vrole
p3915
sI3946
Vroutine
p3916
sI3947
Vroutinely
p3917
sI3948
Vroxithromycin
p3918
sI3949
Vrule
p3919
sI3950
Vschizophrenic
p3920
sI3951
Vscores
p3921
sI3952
Vsedating
p3922
sI3953
Vseem
p3923
sI3954
Vsegment
p3924
sI3955
Vselecting
p3925
sI3956
Vseminiferous
p3926
sI3957
Vsequestrants
p3927
sI3958
Vseropositive
p3928
sI3959
Vserotoninergic
p3929
sI3960
Vsetting
p3930
sI3961
Vshorter
p3931
sI3962
Vshortly
p3932
sI3963
Vsildenafil
p3933
sI3964
Vsimilarity
p3934
sI3965
Vsituation
p3935
sI3966
Vskills
p3936
sI3967
Vsleeping
p3937
sI3968
Vslices
p3938
sI3969
Vslowing
p3939
sI3970
Vsoaps
p3940
sI3971
Vsomatostatin
p3941
sI3972
Vspecified
p3942
sI3973
Vspectrum
p3943
sI3974
Vspleen
p3944
sI3975
Vstatin
p3945
sI3976
Vstimulant
p3946
sI3977
Vstimulated
p3947
sI3978
Vstimulatory
p3948
sI3979
Vstrenuous
p3949
sI3980
Vstreptozocin
p3950
sI3981
Vstress
p3951
sI3982
Vsub
p3952
sI3983
Vsubfraction
p3953
sI3984
Vsubsided
p3954
sI3985
Vsubstituted
p3955
sI3986
Vsubstitutes
p3956
sI3987
Vsubtherapeutic
p3957
sI3988
Vsulphasalazine
p3958
sI3989
Vsunitinib
p3959
sI3990
Vsupine
p3960
sI3991
Vsupraventricular
p3961
sI3992
Vsurvival
p3962
sI3993
Vsymbol
p3963
sI3994
Vsympatholytic
p3964
sI3995
Vsymptom
p3965
sI3996
Vsynthetase
p3966
sI3997
Vsyringe
p3967
sI3998
Vsystemically
p3968
sI3999
Vt
sI4000
Vt9
p3969
sI4001
Vtable
p3970
sI4002
Vtachypnea
p3971
sI4003
Vtalk
p3972
sI4004
Vtaste
p3973
sI4005
Vtea
p3974
sI4006
Vtell
p3975
sI4007
Vtemplate
p3976
sI4008
Vtenofovir
p3977
sI4009
Vtenth
p3978
sI4010
Vterminal
p3979
sI4011
Vtesticular
p3980
sI4012
Vtestolactone
p3981
sI4013
Vthalidomide
p3982
sI4014
Vthem
p3983
sI4015
Vtheobromine
p3984
sI4016
Vthinners
p3985
sI4017
Vthioxanthenes
p3986
sI4018
Vthioxanthines
p3987
sI4019
Vthoracic
p3988
sI4020
Vthreshold
p3989
sI4021
Vthromboglobulin
p3990
sI4022
Vthrombolytics
p3991
sI4023
Vtid
p3992
sI4024
Vtissue
p3993
sI4025
Vtoxicology
p3994
sI4026
Vtranscriptase
p3995
sI4027
Vtransfusion
p3996
sI4028
Vtransfusions
p3997
sI4029
Vtransition
p3998
sI4030
Vtransporter
p3999
sI4031
Vtrazodone
p4000
sI4032
Vtriclofos
p4001
sI4033
Vtuberculosis
p4002
sI4034
Vtwofold
p4003
sI4035
Vtyphimurium
p4004
sI4036
Vuncertain
p4005
sI4037
Vundergoes
p4006
sI4038
Vunderlying
p4007
sI4039
Vundesirable
p4008
sI4040
Vunprotected
p4009
sI4041
Vunreliable
p4010
sI4042
Vurate
p4011
sI4043
Vuricosurics
p4012
sI4044
Vuseful
p4013
sI4045
Vvaginal
p4014
sI4046
Vvaried
p4015
sI4047
Vvarying
p4016
sI4048
Vvasoconstriction
p4017
sI4049
Vvasoconstrictors
p4018
sI4050
Vvasodilation
p4019
sI4051
Vvasopressors
p4020
sI4052
Vvecuronium
p4021
sI4053
Vvigabatrin
p4022
sI4054
Vvinblastine
p4023
sI4055
Vvinorelbine
p4024
sI4056
Vwatched
p4025
sI4057
Vway
p4026
sI4058
Vweather
p4027
sI4059
Vweighed
p4028
sI4060
Vwidening
p4029
sI4061
Vwindows
p4030
sI4062
Vwine
p4031
sI4063
Vwoman
p4032
sI4064
Vworsen
p4033
sI4065
Vworsened
p4034
sI4066
Vwshow
p4035
sI4067
Vzileuton
p4036
sI4068
V''
p4037
sI4069
V*Not
p4038
sI4070
V9.Farr
p4039
sI4071
V9D
p4040
sI4072
V9HIAA
p4041
sI4073
V9IIE9
p4042
sI4074
V9MNA
p4043
sI4075
V9O
p4044
sI4076
V9OH
p4045
sI4077
V9b
p4046
sI4078
V9h
p4047
sI4079
V>
sI4080
V?
sI4081
VABCB9
p4048
sI4082
VABILIFY
p4049
sI4083
VABSORPTION
p4050
sI4084
VACID
p4051
sI4085
VACR
p4052
sI4086
VACTION
p4053
sI4087
VACZONE
p4054
sI4088
VADDITIVE
p4055
sI4089
VADJUSTMENT
p4056
sI4090
VADVERSE
p4057
sI4091
VADVISABLE
p4058
sI4092
VAFTER
p4059
sI4093
VAKINETON
p4060
sI4094
VALG
p4061
sI4095
VALKERAN
p4062
sI4096
VAMERGE
p4063
sI4097
VANALGESICS
p4064
sI4098
VANTABUSE
p4065
sI4099
VANTICOAGULANTS
p4066
sI4100
VAPPROPRIATE
p4067
sI4101
VAPRD99_IN
p4068
sI4102
VASA
p4069
sI4103
VASMANEX
p4070
sI4104
VASPIRIN
p4071
sI4105
VATAC
p4072
sI4106
VATACAND
p4073
sI4107
VATG
p4074
sI4108
VATIII
p4075
sI4109
VAUCss
p4076
sI4110
VAVOID
p4077
sI4111
VAbacavir
p4078
sI4112
VAbciximab
p4079
sI4113
VAcebutolol
p4080
sI4114
VAcellular
p4081
sI4115
VAcetate
p4082
sI4116
VAcetohydroxamic
p4083
sI4117
VAcetylsalicylic
p4084
sI4118
VAcidifying
p4085
sI4119
VAcitretin
p4086
sI4120
VAcromegalic
p4087
sI4121
VActions
p4088
sI4122
VAdditives
p4089
sI4123
VAdequate
p4090
sI4124
VAdjuvant
p4091
sI4125
VAdvil
p4092
sI4126
VAerolizerTM
p4093
sI4127
VAffected
p4094
sI4128
VAgenerase
p4095
sI4129
VAgent
p4096
sI4130
VAgonists
p4097
sI4131
VAleve
p4098
sI4132
VAlkalinizers
p4099
sI4133
VAlkalinizing
p4100
sI4134
VAlprazolam
p4101
sI4135
VAlter
p4102
sI4136
VAlternatively
p4103
sI4137
VAluminum
p4104
sI4138
VAlveolar
p4105
sI4139
VAmbulatory
p4106
sI4140
VAmerican
p4107
sI4141
VAminosalicylic
p4108
sI4142
VAmitriptyline
p4109
sI4143
VAmoxicillin
p4110
sI4144
VAmpicillin
p4111
sI4145
VAmylase
p4112
sI4146
VAnabolin
p4113
sI4147
VAnadrol
p4114
sI4148
VAnalgesic
p4115
sI4149
VAnalogues
p4116
sI4150
VAnaprox
p4117
sI4151
VAnastrozole
p4118
sI4152
VAnavar
p4119
sI4153
VAnd
p4120
sI4154
VAndrogens
p4121
sI4155
VAngiotensln
p4122
sI4156
VAntagonism
p4123
sI4157
VAntiarrhythmic
p4124
sI4158
VAnticoagulation
p4125
sI4159
VAntidiabetics
p4126
sI4160
VAntiepilepsy
p4127
sI4161
VAntifungal
p4128
sI4162
VAntimigraine
p4129
sI4163
VAntiplatelets
p4130
sI4164
VAntipsychotic
p4131
sI4165
VAntitubercular
p4132
sI4166
VAntiviral
p4133
sI4167
VAralen
p4134
sI4168
VAre
p4135
sI4169
VArecoline
p4136
sI4170
VAricept
p4137
sI4171
VAripiprazole
p4138
sI4172
VArthropan
p4139
sI4173
VAscorbic
p4140
sI4174
VAssays
p4141
sI4175
VAssociated
p4142
sI4176
VAstemizole
p4143
sI4177
VAstramorph
p4144
sI4178
VAsubnormal
p4145
sI4179
VAsymptomatic
p4146
sI4180
VAtarax
p4147
sI4181
VAtazanavir
p4148
sI4182
VAtomoxetine
p4149
sI4183
VAtovaquone
p4150
sI4184
VAuranofin
p4151
sI4185
VAyerst
p4152
sI4186
VAzathioprine
p4153
sI4187
VAzlocillin
p4154
sI4188
VAzole
p4155
sI4189
VAzulfidine
p4156
sI4190
VBARBITURATES
p4157
sI4191
VBEEN
p4158
sI4192
VBEFORE
p4159
sI4193
VBIND
p4160
sI4194
VBLOOD
p4161
sI4195
VBOTOX
p4162
sI4196
VBPH
p4163
sI4197
VBUN
p4164
sI4198
VBactericidal
p4165
sI4199
VBacteriostatic
p4166
sI4200
VBactrim
p4167
sI4201
VBenazepril
p4168
sI4202
VBenzyl
p4169
sI4203
VBenzylpenicillin
p4170
sI4204
VBetween
p4171
sI4205
VBexarotene
p4172
sI4206
VBiCNU
p4173
sI4207
VBio
p4174
sI4208
VBioavailability
p4175
sI4209
VBismol
p4176
sI4210
VBisphosphonates
p4177
sI4211
VBlunting
p4178
sI4212
VBone
p4179
sI4213
VBoric
p4180
sI4214
VBound
p4181
sI4215
VBrain
p4182
sI4216
VBreakthrough
p4183
sI4217
VBreast
p4184
sI4218
VBrief
p4185
sI4219
VBritish
p4186
sI4220
VBromocriptine
p4187
sI4221
VBuffered
p4188
sI4222
VBumetanide
p4189
sI4223
VButalbital
p4190
sI4224
VButyrophenones
p4191
sI4225
VCASODEX
p4192
sI4226
VCD9
p4193
sI4227
VCENTRAL
p4194
sI4228
VCHEMET
p4195
sI4229
VCLINITEST
p4196
sI4230
VCLcr=9
p4197
sI4231
VCMV
p4198
sI4232
VCOAGULATION
p4199
sI4233
VCOLAZAL
p4200
sI4234
VCOLESTlD
p4201
sI4235
VCOMT
p4202
sI4236
VCONCENTRATIONS
p4203
sI4237
VCONCURRENTLY
p4204
sI4238
VCONGENERS
p4205
sI4239
VCONSIDERED
p4206
sI4240
VCONTINUING
p4207
sI4241
VCOUMARIN
p4208
sI4242
VCP
p4209
sI4243
VCYP9CI9
p4210
sI4244
VCYP9EI
p4211
sI4245
VCYP9s
p4212
sI4246
VCYPIA9
p4213
sI4247
VCYPs
p4214
sI4248
VCalan
p4215
sI4249
VCampath
p4216
sI4250
VCan
p4217
sI4251
VCarbachol
p4218
sI4252
VCarbidopa
p4219
sI4253
VCarboplatin
p4220
sI4254
VCarboptic
p4221
sI4255
VCardiovasculars
p4222
sI4256
VCare
p4223
sI4257
VCarmustine
p4224
sI4258
VCaspofungin
p4225
sI4259
VCataflam
p4226
sI4260
VCatechol
p4227
sI4261
VCations
p4228
sI4262
VCaucasians
p4229
sI4263
VCausing
p4230
sI4264
VCelecoxib
p4231
sI4265
VCelexa
p4232
sI4266
VCelontin
p4233
sI4267
VCerivastatin
p4234
sI4268
VChannel
p4235
sI4269
VChewable
p4236
sI4270
VChloroquine
p4237
sI4271
VChlorthalidone
p4238
sI4272
VCholestytamine
p4239
sI4273
VCholinomimetics
p4240
sI4274
VChoose
p4241
sI4275
VChromatogr
p4242
sI4276
VCisplatin
p4243
sI4277
VClearance
p4244
sI4278
VClidinium
p4245
sI4279
VClindamycin
p4246
sI4280
VClofibric
p4247
sI4281
VCoadminstered
p4248
sI4282
VCoadminstration
p4249
sI4283
VCodeine
p4250
sI4284
VCoffee
p4251
sI4285
VCold
p4252
sI4286
VCombinations
p4253
sI4287
VCommonly
p4254
sI4288
VCompany
p4255
sI4289
VCompounds
p4256
sI4290
VConcentrations
p4257
sI4291
VConcomitantly
p4258
sI4292
VConflicting
p4259
sI4293
VConfusion
p4260
sI4294
VConjunction
p4261
sI4295
VConsideration
p4262
sI4296
VConsult
p4263
sI4297
VContaining
p4264
sI4298
VContin
p4265
sI4299
VContinuous
p4266
sI4300
VContrast
p4267
sI4301
VConversion
p4268
sI4302
VCorrelative
p4269
sI4303
VCremophor
p4270
sI4304
VCrixivan
p4271
sI4305
VCss
p4272
sI4306
VCssmax
p4273
sI4307
VCyanokit
p4274
sI4308
VCyclopentolate
p4275
sI4309
VCyclopropane
p4276
sI4310
VCytadren
p4277
sI4311
VCytosine
p4278
sI4312
VDAYS
p4279
sI4313
VDEFINITELY
p4280
sI4314
VDEPRESSANTS
p4281
sI4315
VDETERMINATIONS
p4282
sI4316
VDFCR
p4283
sI4317
VDIABINESE
p4284
sI4318
VDIAGNOSTIC
p4285
sI4319
VDIFFERENT
p4286
sI4320
VDIGOXIN
p4287
sI4321
VDILAUDID
p4288
sI4322
VDISALCID
p4289
sI4323
VDOSTINEX
p4290
sI4324
VDactinomycin
p4291
sI4325
VDantrolene
p4292
sI4326
VDapsone
p4293
sI4327
VDasatinib
p4294
sI4328
VDate
p4295
sI4329
VDaunorubicin
p4296
sI4330
VDaypro
p4297
sI4331
VDeath
p4298
sI4332
VDeaths
p4299
sI4333
VDecreasing
p4300
sI4334
VDeferasirox
p4301
sI4335
VDelayed
p4302
sI4336
VDepakene
p4303
sI4337
VDepakote
p4304
sI4338
VDerivative
p4305
sI4339
VDesyrel
p4306
sI4340
VDexbrompheniramine
p4307
sI4341
VDexfenfluramine
p4308
sI4342
VDexrazoxane
p4309
sI4343
VDiagnostic
p4310
sI4344
VDiasone
p4311
sI4345
VDifferences
p4312
sI4346
VDiflunisal
p4313
sI4347
VDihydroergotamine
p4314
sI4348
VDihydropyridine
p4315
sI4349
VDimenhydrinate
p4316
sI4350
VDiminished
p4317
sI4351
VDiphenoxylate
p4318
sI4352
VDisalcid
p4319
sI4353
VDiscontinuation
p4320
sI4354
VDiscontinuing
p4321
sI4355
VDisease
p4322
sI4356
VDisopyramide
p4323
sI4357
VDispersible
p4324
sI4358
VDisplacement
p4325
sI4359
VDisulfiram
p4326
sI4360
VDiuril
p4327
sI4361
VDivalproex
p4328
sI4362
VDivision
p4329
sI4363
VDosages
p4330
sI4364
VDosing
p4331
sI4365
VDoxepin
p4332
sI4366
VDoxylamine
p4333
sI4367
VDrs
p4334
sI4368
VE9
p4335
sI4369
VEDECRIN
p4336
sI4370
VEFFECT
p4337
sI4371
VEFFECTS
p4338
sI4372
VEIA
p4339
sI4373
VEL
p4340
sI4374
VEM
p4341
sI4375
VEMCYT
p4342
sI4376
VEMTRIVA
p4343
sI4377
VEMs
p4344
sI4378
VENBREL
p4345
sI4379
VEPHESUS
p4346
sI4380
VERGAMISOL
p4347
sI4381
VERPF
p4348
sI4382
VERYTHROMYCIN
p4349
sI4383
VEULEXIN
p4350
sI4384
VEVIDENCE
p4351
sI4385
VEXERCISED
p4352
sI4386
VEXTREME
p4353
sI4387
VEffectiveness
p4354
sI4388
VEldepryl
p4355
sI4389
VElectroconvulsive
p4356
sI4390
VElectrolyte
p4357
sI4391
VElevations
p4358
sI4392
VEliminated
p4359
sI4393
VEllison
p4360
sI4394
VEndocrine
p4361
sI4395
VEndogenous
p4362
sI4396
VEnflurane
p4363
sI4397
VEnhancing
p4364
sI4398
VEnoxaparin
p4365
sI4399
VEntacapone
p4366
sI4400
VEnzymatic
p4367
sI4401
VEpidemiological
p4368
sI4402
VEpidural
p4369
sI4403
VEpirubicin
p4370
sI4404
VEplerenone
p4371
sI4405
VEpoxide
p4372
sI4406
VEproxindine
p4373
sI4407
VEspecially
p4374
sI4408
VEstazolam
p4375
sI4409
VEstradiol
p4376
sI4410
VEthosuximide
p4377
sI4411
VEthotoin
p4378
sI4412
VEthoxzolamide
p4379
sI4413
VEthyl
p4380
sI4414
VEtonogestrel
p4381
sI4415
VEtretinate
p4382
sI4416
VEurope
p4383
sI4417
VEuropean
p4384
sI4418
VEvery
p4385
sI4419
VExaggerated
p4386
sI4420
VExcept
p4387
sI4421
VExcretion
p4388
sI4422
VExogenously
p4389
sI4423
VExpected
p4390
sI4424
VExtended
p4391
sI4425
VExtent
p4392
sI4426
VExtreme
p4393
sI4427
VEye
p4394
sI4428
VFBS
p4395
sI4429
VFDA
p4396
sI4430
VFLUDARA
p4397
sI4431
VFOSCAVIR
p4398
sI4432
VFREQUENT
p4399
sI4433
VFactor
p4400
sI4434
VFalse
p4401
sI4435
VFamilial
p4402
sI4436
VFatal
p4403
sI4437
VFatalities
p4404
sI4438
VFeSO9
p4405
sI4439
VFelbamate
p4406
sI4440
VFemara
p4407
sI4441
VFenbufen
p4408
sI4442
VFenfluramine
p4409
sI4443
VFew
p4410
sI4444
VFexofenadine
p4411
sI4445
VFibrates
p4412
sI4446
VFibric
p4413
sI4447
VFifteen
p4414
sI4448
VFinasteride
p4415
sI4449
VFlecainide
p4416
sI4450
VFloxuridine
p4417
sI4451
VFlucytosine
p4418
sI4452
VFluoxetine
p4419
sI4453
VFolinic
p4420
sI4454
VFoods
p4421
sI4455
VFortified
p4422
sI4456
VFortovase
p4423
sI4457
VFoscarnet
p4424
sI4458
VFosinopril
p4425
sI4459
VFulminant
p4426
sI4460
VG
sI4461
VGGT
p4427
sI4462
VGP
p4428
sI4463
VGREAT
p4429
sI4464
VGUARDIAN
p4430
sI4465
VGantanol
p4431
sI4466
VGantrisin
p4432
sI4467
VGastric
p4433
sI4468
VGastroparesis
p4434
sI4469
VGemfibrozil
p4435
sI4470
VGemzar
p4436
sI4471
VGenitourinary
p4437
sI4472
VGentamicin
p4438
sI4473
VGlibenclamide
p4439
sI4474
VGold
p4440
sI4475
VGreater
p4441
sI4476
VGris
p4442
sI4477
VGuanethidine
p4443
sI4478
VGuardian
p4444
sI4479
VH
sI4480
VH9antagonists
p4445
sI4481
VHACA
p4446
sI4482
VHC9
p4447
sI4483
VHCL
p4448
sI4484
VHEMABATE
p4449
sI4485
VHIT
p4450
sI4486
VHITTS
p4451
sI4487
VHOUR
p4452
sI4488
VHOURS
p4453
sI4489
VHT9B
p4454
sI4490
VHTv
p4455
sI4491
VHUMORSOL
p4456
sI4492
VHYDROXYZINE
p4457
sI4493
VHallucinations
p4458
sI4494
VHalothane
p4459
sI4495
VHas
p4460
sI4496
VHave
p4461
sI4497
VHaving
p4462
sI4498
VHealthcare
p4463
sI4499
VHealthy
p4464
sI4500
VHematology
p4465
sI4501
VHematopoietic
p4466
sI4502
VHemodynamic
p4467
sI4503
VHemostasis
p4468
sI4504
VHepatotoxic
p4469
sI4505
VHepatotoxicity
p4470
sI4506
VHerb
p4471
sI4507
VHighly
p4472
sI4508
VHoFH
p4473
sI4509
VHormone
p4474
sI4510
VHydrocodone
p4475
sI4511
VHydrodiuril
p4476
sI4512
VHydrolase
p4477
sI4513
VHyperaminotransferasemia
p4478
sI4514
VHyperglycemia
p4479
sI4515
VHyperpyrexia
p4480
sI4516
VHypersensitivity
p4481
sI4517
VHypertension
p4482
sI4518
VHypertensive
p4483
sI4519
VHyperthyroidism
p4484
sI4520
VHypoglycemic
p4485
sI4521
VHypokalemia
p4486
sI4522
VI.V
p4487
sI4523
VI.V.
p4488
sI4524
VI9
p4489
sI4525
VIA
p4490
sI4526
VIC9
p4491
sI4527
VIGF
p4492
sI4528
VIIIA9
p4493
sI4529
VIIb
p4494
sI4530
VIMITREX
p4495
sI4531
VIMPEDING
p4496
sI4532
VINCREASED
p4497
sI4533
VINFORMATION
p4498
sI4534
VINITIATION
p4499
sI4535
VINJECTION
p4500
sI4536
VINTERFERENCE
p4501
sI4537
VINTERVAL
p4502
sI4538
VISIS
p4503
sI4539
VITS
p4504
sI4540
VIU
p4505
sI4541
VImmunodeficiencies
p4506
sI4542
VImmunodeficiency
p4507
sI4543
VImmunogenicity
p4508
sI4544
VImmunologic
p4509
sI4545
VImmunosuppressive
p4510
sI4546
VImplantable
p4511
sI4547
VImuran
p4512
sI4548
VInc
p4513
sI4549
VInc.
p4514
sI4550
VInderal
p4515
sI4551
VIndex
p4516
sI4552
VIndividualization
p4517
sI4553
VIndocin
p4518
sI4554
VIndocyanine
p4519
sI4555
VInfluenza
p4520
sI4556
VInfusion
p4521
sI4557
VInhibitor
p4522
sI4558
VInhibits
p4523
sI4559
VInjectionSite
p4524
sI4560
VInstances
p4525
sI4561
VIntegumentary
p4526
sI4562
VIntensified
p4527
sI4563
VIntensive
p4528
sI4564
VInterferes
p4529
sI4565
VIntestinal
p4530
sI4566
VIntracellular
p4531
sI4567
VIntron
p4532
sI4568
VInvestigations
p4533
sI4569
VInvirase
p4534
sI4570
VIodide
p4535
sI4571
VIodinated
p4536
sI4572
VIodine
p4537
sI4573
VIrinotecan
p4538
sI4574
VIronically
p4539
sI4575
VIsopto
p4540
sI4576
VJ
sI4577
VJANUVIA
p4541
sI4578
VJaff
p4542
sI4579
VJnl
p4543
sI4580
VKEMSTRO
p4544
sI4581
VKEMSTROTM
p4545
sI4582
VKERASTICK
p4546
sI4583
VKS
p4547
sI4584
VKT
p4548
sI4585
VKadian
p4549
sI4586
VKaletra
p4550
sI4587
VKaposi
p4551
sI4588
VKeflex
p4552
sI4589
VKerlone
p4553
sI4590
VKey
p4554
sI4591
VKilled
p4555
sI4592
VKnown
p4556
sI4593
VLCV
p4557
sI4594
VLDH
p4558
sI4595
VLEAST
p4559
sI4596
VLEVULAN
p4560
sI4597
VLODOSYN
p4561
sI4598
VLabetalol
p4562
sI4599
VLaboratoryTest
p4563
sI4600
VLamprene
p4564
sI4601
VLanoxicaps
p4565
sI4602
VLanoxin
p4566
sI4603
VLarge
p4567
sI4604
VLatent
p4568
sI4605
VLethargy
p4569
sI4606
VLeucovorin
p4570
sI4607
VLeukocyte
p4571
sI4608
VLevel
p4572
sI4609
VLevels
p4573
sI4610
VLevodopa
p4574
sI4611
VLevofloxacin
p4575
sI4612
VLevosimendan
p4576
sI4613
VLevothyroxine
p4577
sI4614
VLeydig
p4578
sI4615
VLikewise
p4579
sI4616
VLipitor
p4580
sI4617
VLithostat
p4581
sI4618
VLittle
p4582
sI4619
VLocal
p4583
sI4620
VLomefloxacin
p4584
sI4621
VLopressor
p4585
sI4622
VLoratadine
p4586
sI4623
VLorazepam
p4587
sI4624
VLosartan
p4588
sI4625
VLovastatin
p4589
sI4626
VLovenox
p4590
sI4627
VLower
p4591
sI4628
VLupus
p4592
sI4629
VLymphocytopenia
p4593
sI4630
VM.C
p4594
sI4631
VMAXIPIME
p4595
sI4632
VMETROGEL
p4596
sI4633
VMEXITIL
p4597
sI4634
VMIC
p4598
sI4635
VMIDAMOR
p4599
sI4636
VMONUROL
p4600
sI4637
VMUST
p4601
sI4638
VMYOBLOC
p4602
sI4639
VMagan
p4603
sI4640
VMainly
p4604
sI4641
VMale
p4605
sI4642
VMaprotiline
p4606
sI4643
VMassive
p4607
sI4644
VMaximum
p4608
sI4645
VMean
p4609
sI4646
VMecamylamine
p4610
sI4647
VMedia
p4611
sI4648
VMedroxyprogesterone
p4612
sI4649
VMelatonin
p4613
sI4650
VMellaril
p4614
sI4651
VMenstrual
p4615
sI4652
VMequitazine
p4616
sI4653
VMetabolizing
p4617
sI4654
VMetal
p4618
sI4655
VMethazolamide
p4619
sI4656
VMethergine
p4620
sI4657
VMethylprednisolone
p4621
sI4658
VMethylxanthines
p4622
sI4659
VMethyprylon
p4623
sI4660
VMethysergide
p4624
sI4661
VMicrodosed
p4625
sI4662
VMigraine
p4626
sI4663
VMild
p4627
sI4664
VMiles
p4628
sI4665
VMilk
p4629
sI4666
VMineral
p4630
sI4667
VMinimal
p4631
sI4668
VMinimum
p4632
sI4669
VMinor
p4633
sI4670
VMiochol
p4634
sI4671
VMitomycin
p4635
sI4672
VMixing
p4636
sI4673
VMixtures
p4637
sI4674
VModest
p4638
sI4675
VMonth
p4639
sI4676
VMore
p4640
sI4677
VMoreover
p4641
sI4678
VMotrin
p4642
sI4679
VMutagenicity
p4643
sI4680
VMycobacteriumavium
p4644
sI4681
VMyelopoesis
p4645
sI4682
VMyochrysine
p4646
sI4683
VNARCOTIC
p4647
sI4684
VNARCOTICS
p4648
sI4685
VNERVOUS
p4649
sI4686
VNEUPOGEN
p4650
sI4687
VNIDDM
p4651
sI4688
VNINDS
p4652
sI4689
VNON
p4653
sI4690
VNSAIDS
p4654
sI4691
VNSCLC
p4655
sI4692
VNTG
p4656
sI4693
VNYHA
p4657
sI4694
VNabilone
p4658
sI4695
VNafazodone
p4659
sI4696
VNalidixic
p4660
sI4697
VNaltrexone
p4661
sI4698
VNaprosyn
p4662
sI4699
VNarcotic
p4663
sI4700
VNarcotics
p4664
sI4701
VNarrow
p4665
sI4702
VNateglinide
p4666
sI4703
VNeeded
p4667
sI4704
VNefazodone
p4668
sI4705
VNeither
p4669
sI4706
VNeoral
p4670
sI4707
VNeuromuscular
p4671
sI4708
VNeuropsychiatric
p4672
sI4709
VNeurotoxic
p4673
sI4710
VNicardipine
p4674
sI4711
VNimodipine
p4675
sI4712
VNimotop
p4676
sI4713
VNitroglycerin
p4677
sI4714
VNizatidine
p4678
sI4715
VNizoral
p4679
sI4716
VNoncardioselective
p4680
sI4717
VNondepolarizing
p4681
sI4718
VNorepinephrine
p4682
sI4719
VNorth
p4683
sI4720
VNorvir
p4684
sI4721
VNovoSeven
p4685
sI4722
VNucleoside
p4686
sI4723
VNuprin
p4687
sI4724
VNutraceutical
p4688
sI4725
VNydrazid
p4689
sI4726
VOA
p4690
sI4727
VOH
p4691
sI4728
VORAL
p4692
sI4729
VOTC
p4693
sI4730
VOVCON
p4694
sI4731
VObserve
p4695
sI4732
VOccasionally
p4696
sI4733
VOcupress
p4697
sI4734
VOil
p4698
sI4735
VOils
p4699
sI4736
VOlanzapine
p4700
sI4737
VOmniscan
p4701
sI4738
VOnce
p4702
sI4739
VOndansetron
p4703
sI4740
VOnset
p4704
sI4741
VOpiate
p4705
sI4742
VOrganic
p4706
sI4743
VOruvail
p4707
sI4744
VOthers
p4708
sI4745
VOxandrolone
p4709
sI4746
VOxcarbazepine
p4710
sI4747
VP9D9
p4711
sI4748
VPA
p4712
sI4749
VPATIENT
p4713
sI4750
VPCP
p4714
sI4751
VPD
p4715
sI4752
VPEGANONE
p4716
sI4753
VPERSANTINE
p4717
sI4754
VPLASMA
p4718
sI4755
VPLENDIL
p4719
sI4756
VPMs
p4720
sI4757
VPOSSIBLE
p4721
sI4758
VPOTENTIATING
p4722
sI4759
VPROCRIT
p4723
sI4760
VPROPECIA
p4724
sI4761
VPROSCAR
p4725
sI4762
VPROSTIN
p4726
sI4763
VPROVIDED
p4727
sI4764
VPaclitaxel
p4728
sI4765
VPaget
p4729
sI4766
VPantoprazole
p4730
sI4767
VParalytic
p4731
sI4768
VParkinsons
p4732
sI4769
VPatient
p4733
sI4770
VPeak
p4734
sI4771
VPediatrics
p4735
sI4772
VPeganone
p4736
sI4773
VPending
p4737
sI4774
VPenicillin
p4738
sI4775
VPepto
p4739
sI4776
VPerhexiline
p4740
sI4777
VPerioperative
p4741
sI4778
VPermax
p4742
sI4779
VPermitil
p4743
sI4780
VPersons
p4744
sI4781
VPharmaceuticals
p4745
sI4782
VPharmacodynamics
p4746
sI4783
VPharmacologic
p4747
sI4784
VPharmacological
p4748
sI4785
VPhenothiazine
p4749
sI4786
VPhospholine
p4750
sI4787
VPhysiologic
p4751
sI4788
VPhysiological
p4752
sI4789
VPhysiology
p4753
sI4790
VPilocarpine
p4754
sI4791
VPiperacillin
p4755
sI4792
VPlatelia
p4756
sI4793
VPlease
p4757
sI4794
VPletal
p4758
sI4795
VPorter
p4759
sI4796
VPostmenopausal
p4760
sI4797
VPostoperative
p4761
sI4798
VPotent
p4762
sI4799
VPowder
p4763
sI4800
VPramipexole
p4764
sI4801
VPravastatin
p4765
sI4802
VPraziquantel
p4766
sI4803
VPre
p4767
sI4804
VPrecipitation
p4768
sI4805
VPredicted
p4769
sI4806
VPrednisolone
p4770
sI4807
VPrelone
p4771
sI4808
VPreparations
p4772
sI4809
VPrescribers
p4773
sI4810
VPresumably
p4774
sI4811
VPrevention
p4775
sI4812
VPrimaquine
p4776
sI4813
VProSom
p4777
sI4814
VProcainamide
p4778
sI4815
VProduct
p4779
sI4816
VProfound
p4780
sI4817
VProgesterone
p4781
sI4818
VPromethazine
p4782
sI4819
VPronestyl
p4783
sI4820
VPropanolol
p4784
sI4821
VProstaglandin
p4785
sI4822
VProstigmin
p4786
sI4823
VProstin
p4787
sI4824
VProteins
p4788
sI4825
VProvided
p4789
sI4826
VPsychiatric
p4790
sI4827
VPsychoactive
p4791
sI4828
VPulmozyme
p4792
sI4829
VQT9
p4793
sI4830
VQuinidex
p4794
sI4831
VR=
p4795
sI4832
VREACTIONS
p4796
sI4833
VRECOMMENDED
p4797
sI4834
VREFERENCES
p4798
sI4835
VREGRANEX
p4799
sI4836
VREMICADE
p4800
sI4837
VREVEIVING
p4801
sI4838
VRISE
p4802
sI4839
VRR
p4803
sI4840
VRabbits
p4804
sI4841
VRad
p4805
sI4842
VRadiation
p4806
sI4843
VRaloxifene
p4807
sI4844
VRates
p4808
sI4845
VRating
p4809
sI4846
VRe
p4810
sI4847
VReciprocal
p4811
sI4848
VRecurrence
p4812
sI4849
VReduction
p4813
sI4850
VRegistered
p4814
sI4851
VRegistry
p4815
sI4852
VRelafen
p4816
sI4853
VRelaxants
p4817
sI4854
VRenin
p4818
sI4855
VRepeated
p4819
sI4856
VRepeating
p4820
sI4857
VReproductive
p4821
sI4858
VRequire
p4822
sI4859
VRequirements
p4823
sI4860
VResins
p4824
sI4861
VRespiratory
p4825
sI4862
VRetavase
p4826
sI4863
VRetrospective
p4827
sI4864
VReuptake
p4828
sI4865
VReverse
p4829
sI4866
VReversible
p4830
sI4867
VReview
p4831
sI4868
VRheum
p4832
sI4869
VRichens
p4833
sI4870
VRifadin
p4834
sI4871
VRifamate
p4835
sI4872
VRimmer
p4836
sI4873
VRitalin
p4837
sI4874
VRivastigmine
p4838
sI4875
VRofecoxib
p4839
sI4876
VSALICYLATE
p4840
sI4877
VSALICYLIC
p4841
sI4878
VSC
p4842
sI4879
VSERUM
p4843
sI4880
VSHBG
p4844
sI4881
VSIDE
p4845
sI4882
VSINCE
p4846
sI4883
VSKELAXIN
p4847
sI4884
VSOMAVERT
p4848
sI4885
VSR
p4849
sI4886
VSTABILIZED
p4850
sI4887
VSUBSEQUENT
p4851
sI4888
VSUCH
p4852
sI4889
VSULAR
p4853
sI4890
VSUSTIVAb
p4854
sI4891
VSYNAREL
p4855
sI4892
VSYSTEM
p4856
sI4893
VSafety
p4857
sI4894
VSalt
p4858
sI4895
VSandimmune
p4859
sI4896
VScale
p4860
sI4897
VSecretion
p4861
sI4898
VSectral
p4862
sI4899
VSedative
p4863
sI4900
VSeizure
p4864
sI4901
VSeizures
p4865
sI4902
VSeparating
p4866
sI4903
VSeptra
p4867
sI4904
VSerentil
p4868
sI4905
VSerotonergic
p4869
sI4906
VSerotonin
p4870
sI4907
VSertraline
p4871
sI4908
VSever
p4872
sI4909
VSilber
p4873
sI4910
VSimilar
p4874
sI4911
VSirolimus
p4875
sI4912
VSj
p4876
sI4913
VSmokers
p4877
sI4914
VSolganal
p4878
sI4915
VSoliris
p4879
sI4916
VSomatrem
p4880
sI4917
VSomatropin
p4881
sI4918
VSorafenib
p4882
sI4919
VSparine
p4883
sI4920
VSpectrum
p4884
sI4921
VSpontaneous
p4885
sI4922
VSporadic
p4886
sI4923
VSporanox
p4887
sI4924
VStates
p4888
sI4925
VStatins
p4889
sI4926
VStatistically
p4890
sI4927
VStelazine
p4891
sI4928
VSteroidal
p4892
sI4929
VStomach
p4893
sI4930
VStreptase
p4894
sI4931
VStreptokinase
p4895
sI4932
VStrip
p4896
sI4933
VStroke
p4897
sI4934
VStrong
p4898
sI4935
VSubjects
p4899
sI4936
VSublingual
p4900
sI4937
VSubsequent
p4901
sI4938
VSubstantial
p4902
sI4939
VSubstrates
p4903
sI4940
VSuccimer
p4904
sI4941
VSuccinylcholine
p4905
sI4942
VSugar
p4906
sI4943
VSulfamethizole
p4907
sI4944
VSulfamethoxazole
p4908
sI4945
VSulfapyridine
p4909
sI4946
VSulfobromophthalein
p4910
sI4947
VSulfonylureas
p4911
sI4948
VSulindac
p4912
sI4949
VSupraventricular
p4913
sI4950
VSuspension
p4914
sI4951
VSympathetic
p4915
sI4952
VSympathomimetics
p4916
sI4953
VSynthesis
p4917
sI4954
VT.A
p4918
sI4955
VTABLE
p4919
sI4956
VTAKE
p4920
sI4957
VTAO
p4921
sI4958
VTAPE
p4922
sI4959
VTBPA
p4923
sI4960
VTCA9
p4924
sI4961
VTEMODAR
p4925
sI4962
VTES
p4926
sI4963
VTHC
p4927
sI4964
VTHEIR
p4928
sI4965
VTHERAPY
p4929
sI4966
VTHOSE
p4930
sI4967
VTIMI
p4931
sI4968
VTNFa
p4932
sI4969
VTORADOLORAL
p4933
sI4970
VTOXIC
p4934
sI4971
VTPMT
p4935
sI4972
VTREATED
p4936
sI4973
VTRISENOX
p4937
sI4974
VTWISTHALER
p4938
sI4975
VTables
p4939
sI4976
VTablet
p4940
sI4977
VTdP
p4941
sI4978
VTegison
p4942
sI4979
VTegretol
p4943
sI4980
VTelithromycin
p4944
sI4981
VTell
p4945
sI4982
VTemaril
p4946
sI4983
VTemporary
p4947
sI4984
VTenecteplase
p4948
sI4985
VTenormin
p4949
sI4986
VThalidomide
p4950
sI4987
VTheir
p4951
sI4988
VTheobromine
p4952
sI4989
VTheoretically
p4953
sI4990
VTherophylline
p4954
sI4991
VThiamine
p4955
sI4992
VThose
p4956
sI4993
VThreshold
p4957
sI4994
VThrombolytic
p4958
sI4995
VThyroxine
p4959
sI4996
VTiagabine
p4960
sI4997
VTiazac
p4961
sI4998
VTilade
p4962
sI4999
VTime
p4963
sI5000
VTindal
p4964
sI5001
VTm
p4965
sI5002
VTolazamide
p4966
sI5003
VTolbutamides
p4967
sI5004
VTopamax
p4968
sI5005
VTopical
p4969
sI5006
VTotal
p4970
sI5007
VToxicity
p4971
sI5008
VToxicologic
p4972
sI5009
VToxicology
p4973
sI5010
VTramadol
p4974
sI5011
VTranscriptase
p4975
sI5012
VTransdermal
p4976
sI5013
VTransient
p4977
sI5014
VTrexan
p4978
sI5015
VTrial
p4979
sI5016
VTriamterene
p4980
sI5017
VTrilafon
p4981
sI5018
VTrilisate
p4982
sI5019
VTrilostane
p4983
sI5020
VTubular
p4984
sI5021
VTumor
p4985
sI5022
VU
sI5023
VUGT
p4986
sI5024
VUGT9A9
p4987
sI5025
VULN
p4988
sI5026
VUNTIL
p4989
sI5027
VUnder
p4990
sI5028
VUnited
p4991
sI5029
VUniversity
p4992
sI5030
VUnless
p4993
sI5031
VUntreated
p4994
sI5032
VUsage
p4995
sI5033
VVAPRISOL
p4996
sI5034
VVESIcare
p4997
sI5035
VVISTIDE
p4998
sI5036
VVR
p4999
sI5037
VVUMON
p5000
sI5038
VValium
p5001
sI5039
VVariability
p5002
sI5040
VVasoconstrictive
p5003
sI5041
VVasoconstrictors
p5004
sI5042
VVasodilator
p5005
sI5043
VVasodilators
p5006
sI5044
VVasopressors
p5007
sI5045
VVasospastic
p5008
sI5046
VVenlafaxine
p5009
sI5047
VVesprin
p5010
sI5048
VVidaza
p5011
sI5049
VVindesine
p5012
sI5050
VViracept
p5013
sI5051
VVoltaren
p5014
sI5052
VVolunteers
p5015
sI5053
VWARFARIN
p5016
sI5054
VWILL
p5017
sI5055
VWales
p5018
sI5056
VWarning
p5019
sI5057
VWeak
p5020
sI5058
VWhere
p5021
sI5059
VWhose
p5022
sI5060
VWinstrol
p5023
sI5061
VWithin
p5024
sI5062
VWyeth
p5025
sI5063
VXI
p5026
sI5064
VXanax
p5027
sI5065
VYounger
p5028
sI5066
VYour
p5029
sI5067
VZANOSAR
p5030
sI5068
VZANTAC
p5031
sI5069
VZE
p5032
sI5070
VZERIT
p5033
sI5071
VZEVALIN
p5034
sI5072
VZIAGEN
p5035
sI5073
VZOLADEX
p5036
sI5074
VZarontin
p5037
sI5075
VZemplar
p5038
sI5076
VZimelidine
p5039
sI5077
VZollinger
p5040
sI5078
V``
p5041
sI5079
Vabacavir
p5042
sI5080
Vabatacept
p5043
sI5081
Vaberration
p5044
sI5082
Vability
p5045
sI5083
Vabortions
p5046
sI5084
Vabrasive
p5047
sI5085
Vabrupt
p5048
sI5086
Vabstinence
p5049
sI5087
Vabundance
p5050
sI5088
Vaccelerates
p5051
sI5089
Vaccelerating
p5052
sI5090
Vacceleration
p5053
sI5091
Vaccentuated
p5054
sI5092
Vacceptable
p5055
sI5093
Vaccuracy
p5056
sI5094
Vacenocoumarol
p5057
sI5095
Vacetazolamide
p5058
sI5096
Vacetophenazine
p5059
sI5097
Vacetylcholine
p5060
sI5098
Vacetyldigoxin
p5061
sI5099
Vacetyltransferase
p5062
sI5100
Vachieves
p5063
sI5101
Vachieving
p5064
sI5102
Vacidified
p5065
sI5103
Vacidity
p5066
sI5104
Vacidosis
p5067
sI5105
Vacne
p5068
sI5106
Vacquired
p5069
sI5107
Vacromegaly
p5070
sI5108
Vactinic
p5071
sI5109
Vactively
p5072
sI5110
Vacts
p5073
sI5111
Vacutely
p5074
sI5112
Vaddictive
p5075
sI5113
Vaddicts
p5076
sI5114
Vadding
p5077
sI5115
Vadditives
p5078
sI5116
Vadds
p5079
sI5117
Vadhesion
p5080
sI5118
Vadmini
p5081
sI5119
Vadministrations
p5082
sI5120
Vadmixtures
p5083
sI5121
Vadolescents
p5084
sI5122
Vadrenaline
p5085
sI5123
Vadreneric
p5086
sI5124
Vadrenoceptor
p5087
sI5125
Vadrenocorticoids
p5088
sI5126
Vadsorbents
p5089
sI5127
Vadsorption
p5090
sI5128
Vadvantage
p5091
sI5129
Vadvice
p5092
sI5130
Vaerosolized
p5093
sI5131
Vaged
p5094
sI5132
Vaggravated
p5095
sI5133
Vaggravating
p5096
sI5134
Vaggressive
p5097
sI5135
Vagitation
p5098
sI5136
Vagranulocytosis
p5099
sI5137
Vaid
p5100
sI5138
Vair
p5101
sI5139
Vakathisia
p5102
sI5140
Val
p5103
sI5141
Valendronate
p5104
sI5142
Valerted
p5105
sI5143
Valertness
p5106
sI5144
Valkalinization
p5107
sI5145
Valkylated
p5108
sI5146
Vallowing
p5109
sI5147
Valternating
p5110
sI5148
Valters
p5111
sI5149
Valtogether
p5112
sI5150
Valtretamine
p5113
sI5151
Valveolar
p5114
sI5152
Vameliorate
p5115
sI5153
Vameliorating
p5116
sI5154
Vaminoglycosidic
p5117
sI5155
Vaminosalicylate
p5118
sI5156
Vaminosalicylates
p5119
sI5157
Vaminotransferases
p5120
sI5158
Vamlodipine
p5121
sI5159
Vamplifies
p5122
sI5160
Vamrinone
p5123
sI5161
Vamyl
p5124
sI5162
Vanaesthetised
p5125
sI5163
Vanalgesia
p5126
sI5164
Vanalog
p5127
sI5165
Vanalogs
p5128
sI5166
Vanalytical
p5129
sI5167
Vanalyzed
p5130
sI5168
Vanaphylactoid
p5131
sI5169
VandCmin
p5132
sI5170
Vandrogen
p5133
sI5171
Vandtolbutamide
p5134
sI5172
Vandusing
p5135
sI5173
Vanecdotal
p5136
sI5174
Vanesthesiologist
p5137
sI5175
Vanesthetized
p5138
sI5176
Vangioedema
p5139
sI5177
Vanidulafungin
p5140
sI5178
Vanileridine
p5141
sI5179
Vanions
p5142
sI5180
Vankle
p5143
sI5181
Vanorectic
p5144
sI5182
Vantianginals
p5145
sI5183
Vantiarrhythrnics
p5146
sI5184
Vantiasthmatic
p5147
sI5185
Vantibacterials
p5148
sI5186
Vanticancer
p5149
sI5187
Vantichlolinergic
p5150
sI5188
Vanticoagulahts
p5151
sI5189
Vantidiarrheal
p5152
sI5190
Vantidiuretic
p5153
sI5191
Vantiemetic
p5154
sI5192
Vantiemetics
p5155
sI5193
Vantiestrogen
p5156
sI5194
Vantihistaminics
p5157
sI5195
Vantiinflammatories
p5158
sI5196
Vantimuscarinics
p5159
sI5197
Vantimyasthenics
p5160
sI5198
Vantinaturetic
p5161
sI5199
Vantinociceptive
p5162
sI5200
Vantinuclear
p5163
sI5201
Vantiparkinson
p5164
sI5202
Vantiparkinsonian
p5165
sI5203
Vantiparkinsonism
p5166
sI5204
Vantipyretics
p5167
sI5205
Vantituberculous
p5168
sI5206
Vantiviral
p5169
sI5207
Vanxiolytics
p5170
sI5208
Vapart
p5171
sI5209
Vapplications
p5172
sI5210
Vapply
p5173
sI5211
Vapplying
p5174
sI5212
Vappreciated
p5175
sI5213
Vapproach
p5176
sI5214
Vapprox
p5177
sI5215
Vapproximates
p5178
sI5216
Varabinoside
p5179
sI5217
Varachidonate
p5180
sI5218
Vardeparin
p5181
sI5219
Varenot
p5182
sI5220
Varrests
p5183
sI5221
Varrythmias
p5184
sI5222
Varthritic
p5185
sI5223
Varticle
p5186
sI5224
Vartifactually
p5187
sI5225
Vartificial
p5188
sI5226
Varuonic
p5189
sI5227
Vascertain
p5190
sI5228
Vaseptic
p5191
sI5229
Vask
p5192
sI5230
Vasparagine
p5193
sI5231
Vaspirins
p5194
sI5232
Vassistance
p5195
sI5233
Vassumed
p5196
sI5234
Vastringents
p5197
sI5235
Vasymptomatic
p5198
sI5236
Vatracurium
p5199
sI5237
Vatrial
p5200
sI5238
Vatrioventricular
p5201
sI5239
Vatrophy
p5202
sI5240
Vattempt
p5203
sI5241
Vattempted
p5204
sI5242
Vattempting
p5205
sI5243
Vattenuates
p5206
sI5244
Vattenuating
p5207
sI5245
Vatypical
p5208
sI5246
Vaucasian
p5209
sI5247
Vaugmented
p5210
sI5248
Vaugments
p5211
sI5249
Vauranofin
p5212
sI5250
Vautoinduction
p5213
sI5251
Vautomated
p5214
sI5252
Vautomaticity
p5215
sI5253
Vawareness
p5216
sI5254
Vazoles
p5217
sI5255
Vb.i.d.
p5218
sI5256
Vbaboons
p5219
sI5257
Vbacilli
p5220
sI5258
Vback
p5221
sI5259
Vbackground
p5222
sI5260
Vbackwards
p5223
sI5261
Vbactercidal
p5224
sI5262
Vbacteria
p5225
sI5263
Vbalanced
p5226
sI5264
Vbananas
p5227
sI5265
Vbarbituates
p5228
sI5266
Vbasic
p5229
sI5267
Vbealtered
p5230
sI5268
Vbedtime
p5231
sI5269
Vbehave
p5232
sI5270
Vbehavior
p5233
sI5271
Vbehind
p5234
sI5272
Vbenazepril
p5235
sI5273
Vbeneficial
p5236
sI5274
Vbentoquatam
p5237
sI5275
Vbenzodiazepenes
p5238
sI5276
Vbenzothiadiazines
p5239
sI5277
Vbenzothiazepine
p5240
sI5278
Vbenzyl
p5241
sI5279
Vbethanechol
p5242
sI5280
Vbetter
p5243
sI5281
Vbiliary
p5244
sI5282
Vbin
p5245
sI5283
Vbioassay
p5246
sI5284
Vbioavailabillty
p5247
sI5285
Vbiochemical
p5248
sI5286
Vbioequivalent
p5249
sI5287
Vbiologic
p5250
sI5288
Vbiopsy
p5251
sI5289
Vbitolterol
p5252
sI5290
Vbleedings
p5253
sI5291
Vbleomycin
p5254
sI5292
Vblocked
p5255
sI5293
Vblunting
p5256
sI5294
Vbodies
p5257
sI5295
Vboric
p5258
sI5296
Vbortezomib
p5259
sI5297
Vbpm
p5260
sI5298
Vbradyarrhythmias
p5261
sI5299
Vbreakfast
p5262
sI5300
Vbreath
p5263
sI5301
Vbroad
p5264
sI5302
Vbruising
p5265
sI5303
Vburide
p5266
sI5304
Vbutalbital
p5267
sI5305
Vbutyrophenone
p5268
sI5306
Vca
p5269
sI5307
Vcabergoline
p5270
sI5308
Vcalculi
p5271
sI5309
Vcalled
p5272
sI5310
Vcannabinoids
p5273
sI5311
Vcapacity
p5274
sI5312
Vcar
p5275
sI5313
Vcarbohydrate
p5276
sI5314
Vcarcinogenesis
p5277
sI5315
Vcardio
p5278
sI5316
Vcardiopulmonary
p5279
sI5317
Vcardiorespiratory
p5280
sI5318
Vcardioselectivity
p5281
sI5319
Vcardiotoxic
p5282
sI5320
Vcarmustine
p5283
sI5321
Vcarried
p5284
sI5322
Vcarrying
p5285
sI5323
Vcatabloism
p5286
sI5324
Vcatabolism
p5287
sI5325
Vcausally
p5288
sI5326
Vcausation
p5289
sI5327
Vcausative
p5290
sI5328
Vcavity
p5291
sI5329
Vcefixime
p5292
sI5330
Vcefmenoxime
p5293
sI5331
Vcefoperazone
p5294
sI5332
Vcefotaxime
p5295
sI5333
Vcefuroxime
p5296
sI5334
Vcellular
p5297
sI5335
Vcellulitis
p5298
sI5336
Vcenters
p5299
sI5337
Vcentra
p5300
sI5338
Vcentroblast
p5301
sI5339
Vcereals
p5302
sI5340
Vcerebroactive
p5303
sI5341
Vcertainly
p5304
sI5342
Vcgi
p5305
sI5343
Vchains
p5306
sI5344
Vcharacteristics
p5307
sI5345
Vcharacterization
p5308
sI5346
Vcharged
p5309
sI5347
Vchboramphenicol
p5310
sI5348
Vcheese
p5311
sI5349
Vchelation
p5312
sI5350
Vchelator
p5313
sI5351
Vchemical
p5314
sI5352
Vchemotherapies
p5315
sI5353
Vchest
p5316
sI5354
Vchills
p5317
sI5355
Vchloralose
p5318
sI5356
Vchlorambucil
p5319
sI5357
Vchloroprocaine
p5320
sI5358
Vchlortetracycline
p5321
sI5359
Vcholestographic
p5322
sI5360
Vcholestryramine
p5323
sI5361
Vchosen
p5324
sI5362
Vchromosomal
p5325
sI5363
Vchymotrypsin
p5326
sI5364
Vcilexetil
p5327
sI5365
Vcilostazol
p5328
sI5366
Vcime
p5329
sI5367
Vcinacalcet
p5330
sI5368
Vcirculates
p5331
sI5369
Vcirculatory
p5332
sI5370
Vcircumstance
p5333
sI5371
Vcircumstances
p5334
sI5372
Vcited
p5335
sI5373
Vclassified
p5336
sI5374
Vclastogenicity
p5337
sI5375
Vcleansers
p5338
sI5376
Vclidinium
p5339
sI5377
Vclinician
p5340
sI5378
Vclinicians
p5341
sI5379
Vclobazam
p5342
sI5380
Vclofarabine
p5343
sI5381
Vclofazimine
p5344
sI5382
Vclofibric
p5345
sI5383
Vclomiphene
p5346
sI5384
Vclomipramine
p5347
sI5385
Vclonidines
p5348
sI5386
Vclorazepate
p5349
sI5387
Vclosure
p5350
sI5388
Vclotibrate
p5351
sI5389
VcmaxSS
p5352
sI5390
Vcoat
p5353
sI5391
Vcoated
p5354
sI5392
Vcoexistence
p5355
sI5393
Vcoffee
p5356
sI5394
Vcognitive
p5357
sI5395
Vcohort
p5358
sI5396
Vcohosh
p5359
sI5397
Vcoincide
p5360
sI5398
Vcolistemethate
p5361
sI5399
Vcollagen
p5362
sI5400
Vcolon
p5363
sI5401
Vcolorectal
p5364
sI5402
Vcombine
p5365
sI5403
Vcomments
p5366
sI5404
Vcommit
p5367
sI5405
Vcomparative
p5368
sI5406
Vcomparisons
p5369
sI5407
Vcompassionate
p5370
sI5408
Vcompatible
p5371
sI5409
Vcompelling
p5372
sI5410
Vcompensatory
p5373
sI5411
Vcompletion
p5374
sI5412
Vcomplexes
p5375
sI5413
Vcomplexometric
p5376
sI5414
Vcomplicated
p5377
sI5415
Vcomprehensive
p5378
sI5416
Vcompromise
p5379
sI5417
Vconcentrationswere
p5380
sI5418
Vconcerned
p5381
sI5419
Vconclusion
p5382
sI5420
Vconclusive
p5383
sI5421
Vconcomitan
p5384
sI5422
Vconditioned
p5385
sI5423
Vconduct
p5386
sI5424
Vconducting
p5387
sI5425
Vconductivity
p5388
sI5426
Vconfirmation
p5389
sI5427
Vconfirmatory
p5390
sI5428
Vconflicting
p5391
sI5429
Vcongenital
p5392
sI5430
Vcongestion
p5393
sI5431
Vconivaptan
p5394
sI5432
Vconjugated
p5395
sI5433
Vconnection
p5396
sI5434
Vconsecutive
p5397
sI5435
Vconsequent
p5398
sI5436
Vconservative
p5399
sI5437
Vconservatively
p5400
sI5438
Vconsidering
p5401
sI5439
Vconsisting
p5402
sI5440
Vconstellation
p5403
sI5441
Vconsult
p5404
sI5442
Vconsume
p5405
sI5443
Vconsumption
p5406
sI5444
Vcontact
p5407
sI5445
Vcontent
p5408
sI5446
Vcontinuing
p5409
sI5447
Vcontra
p5410
sI5448
Vcontraction
p5411
sI5449
Vcontraindication
p5412
sI5450
Vcontributed
p5413
sI5451
Vcontributing
p5414
sI5452
Vconventional
p5415
sI5453
Vconverted
p5416
sI5454
Vconvulsion
p5417
sI5455
Vcopying
p5418
sI5456
Vcore
p5419
sI5457
Vcorneal
p5420
sI5458
Vcorrect
p5421
sI5459
Vcorrelation
p5422
sI5460
Vcorrespondingly
p5423
sI5461
Vcorti
p5424
sI5462
Vcortico
p5425
sI5463
Vcorticotropin
p5426
sI5464
Vcortisone
p5427
sI5465
Vcosmetics
p5428
sI5466
Vcosteroids..
p5429
sI5467
Vcotherapy
p5430
sI5468
Vcough
p5431
sI5469
Vcoumarins
p5432
sI5470
Vcounter
p5433
sI5471
Vcounteracted
p5434
sI5472
Vcourses
p5435
sI5473
Vcramps
p5436
sI5474
Vcreams
p5437
sI5475
Vcreased
p5438
sI5476
Vcrises
p5439
sI5477
Vcriteria
p5440
sI5478
Vcritically
p5441
sI5479
Vcromolyn
p5442
sI5480
Vcrossed
p5443
sI5481
Vcrystalline
p5444
sI5482
Vculture
p5445
sI5483
Vcumulative
p5446
sI5484
Vcurves
p5447
sI5485
Vcyclic
p5448
sI5486
Vcycling
p5449
sI5487
Vcycloserine
p5450
sI5488
Vcyst
p5451
sI5489
Vcytogenetics
p5452
sI5490
Vcytostatic
p5453
sI5491
Vcytotoxicity
p5454
sI5492
VdL
p5455
sI5493
Vdalfopristin
p5456
sI5494
Vdamage
p5457
sI5495
Vdams
p5458
sI5496
Vdandruff
p5459
sI5497
Vdarifenacin
p5460
sI5498
Vdarken
p5461
sI5499
Vdase
p5462
sI5500
Vdecamethonium
p5463
sI5501
Vdecided
p5464
sI5502
Vdeclining
p5465
sI5503
Vdecongestants
p5466
sI5504
Vdeeper
p5467
sI5505
Vdefect
p5468
sI5506
Vdefense
p5469
sI5507
Vdefinite
p5470
sI5508
Vdefinitive
p5471
sI5509
Vdegenerative
p5472
sI5510
Vdegradation
p5473
sI5511
Vdehydrated
p5474
sI5512
Vdehydro
p5475
sI5513
Vdehydroaripiprazole
p5476
sI5514
Vdeleted
p5477
sI5515
Vdeleterious
p5478
sI5516
Vdeletion
p5479
sI5517
Vdemonstrates
p5480
sI5518
Vdenileukin
p5481
sI5519
Vdenotes
p5482
sI5520
Vdental
p5483
sI5521
Vdeoxy
p5484
sI5522
Vdependency
p5485
sI5523
Vdepends
p5486
sI5524
Vdeplete
p5487
sI5525
Vdepleted
p5488
sI5526
Vdepletors
p5489
sI5527
Vdepolarising
p5490
sI5528
Vdepolarizing
p5491
sI5529
Vdepth
p5492
sI5530
Vdesbutyl
p5493
sI5531
Vdescribe
p5494
sI5532
Vdescribing
p5495
sI5533
Vdesethylamiodarone
p5496
sI5534
Vdesethyloxybutynin
p5497
sI5535
Vdesflurane
p5498
sI5536
Vdesglymidodrine
p5499
sI5537
Vdesign
p5500
sI5538
Vdesigned
p5501
sI5539
Vdesmethylastemizole
p5502
sI5540
Vdesmethylclozapine
p5503
sI5541
Vdetail
p5504
sI5542
Vdetected..
p5505
sI5543
Vdetecting
p5506
sI5544
Vdetermining
p5507
sI5545
Vdetoxification
p5508
sI5546
Vdetrimental
p5509
sI5547
Vdevice
p5510
sI5548
Vdevices
p5511
sI5549
Vdextropropoxyphene
p5512
sI5550
Vdezocine
p5513
sI5551
Vdiastolic
p5514
sI5552
Vdictate
p5515
sI5553
Vdictates
p5516
sI5554
Vdied
p5517
sI5555
Vdiethyl
p5518
sI5556
Vdiethylstilbestrol
p5519
sI5557
Vdifferently
p5520
sI5558
Vdifficult
p5521
sI5559
Vdiffusion
p5522
sI5560
Vdiftitox
p5523
sI5561
Vdigestion
p5524
sI5562
Vdigestive
p5525
sI5563
Vdigit
p5526
sI5564
Vdihydrotachysterol
p5527
sI5565
Vdilation
p5528
sI5566
Vdiluent
p5529
sI5567
Vdilute
p5530
sI5568
Vdinitrate
p5531
sI5569
Vdinitrobenzene
p5532
sI5570
Vdiol
p5533
sI5571
Vdip
p5534
sI5572
Vdiphenhydramine
p5535
sI5573
Vdiphosphonate
p5536
sI5574
Vdiphosphonates
p5537
sI5575
Vdipotassium
p5538
sI5576
Vdirection
p5539
sI5577
Vdiscernible
p5540
sI5578
Vdiscoloration
p5541
sI5579
Vdiscontinuance
p5542
sI5580
Vdiscontinues
p5543
sI5581
Vdiscuss
p5544
sI5582
Vdisoproxil
p5545
sI5583
Vdisorder
p5546
sI5584
Vdisorientation
p5547
sI5585
Vdispersed
p5548
sI5586
Vdispersible
p5549
sI5587
Vdissolution
p5550
sI5588
Vdiuresis
p5551
sI5589
Vdizziness
p5552
sI5590
Vdocetaxel
p5553
sI5591
Vdocument
p5554
sI5592
Vdocumentation
p5555
sI5593
Vdocumenting
p5556
sI5594
Vdog
p5557
sI5595
Vdong
p5558
sI5596
Vdonor
p5559
sI5597
Vdorzolamide
p5560
sI5598
Vdoxorubicinol
p5561
sI5599
Vdrinks
p5562
sI5600
Vdriving
p5563
sI5601
Vdrowsy
p5564
sI5602
Vdrugs.9
p5565
sI5603
Vdrying
p5566
sI5604
Vdual
p5567
sI5605
Vdynamic
p5568
sI5606
Vdynamics
p5569
sI5607
Vdyscrasia
p5570
sI5608
Vdysesthesia
p5571
sI5609
Vdyskinesia
p5572
sI5610
Ve
sI5611
Veasily
p5573
sI5612
Veating
p5574
sI5613
Vectopic
p5575
sI5614
Vedisylate
p5576
sI5615
Vefflux
p5577
sI5616
Velapsed
p5578
sI5617
Velc
p5579
sI5618
Velective
p5580
sI5619
Velectrolytes
p5581
sI5620
Velectrophysiologic
p5582
sI5621
Veleven
p5583
sI5622
Velimination.9
p5584
sI5623
Velucidate
p5585
sI5624
Vemboli
p5586
sI5625
Vembolism
p5587
sI5626
Vembryocidal
p5588
sI5627
Vemergency
p5589
sI5628
Vemploy
p5590
sI5629
Venantiomers
p5591
sI5630
Vencephalopathic
p5592
sI5631
Vendemic
p5593
sI5632
Vendoscopic
p5594
sI5633
Vendoscopy
p5595
sI5634
Venough
p5596
sI5635
Venoximone
p5597
sI5636
Vensure
p5598
sI5637
Ventry
p5599
sI5638
Veosinophilia
p5600
sI5639
Vepididymides
p5601
sI5640
Vepiphyseal
p5602
sI5641
Vepisode
p5603
sI5642
Vepistaxis
p5604
sI5643
Veptifibatide
p5605
sI5644
Vequipment
p5606
sI5645
Vergocalciferol
p5607
sI5646
Verroneously
p5608
sI5647
Verythrocytes
p5609
sI5648
Verythromycins
p5610
sI5649
Vestablish
p5611
sI5650
Vestablishing
p5612
sI5651
Vesterases
p5613
sI5652
Vestimated
p5614
sI5653
Vestrogenic
p5615
sI5654
Vet
p5616
sI5655
Vether
p5617
sI5656
Vethotoin
p5618
sI5657
Vethoxzolamide
p5619
sI5658
Vetidronate
p5620
sI5659
Vevaluation
p5621
sI5660
Vex
p5622
sI5661
Vexacerbation
p5623
sI5662
Vexact
p5624
sI5663
Vexaggeration
p5625
sI5664
Vexaminations
p5626
sI5665
Vexamine
p5627
sI5666
Vexamined
p5628
sI5667
Vexceeding
p5629
sI5668
Vexceeds
p5630
sI5669
Vexception
p5631
sI5670
Vexcessively
p5632
sI5671
Vexcretory
p5633
sI5672
Vexemestane
p5634
sI5673
Vexert
p5635
sI5674
Vexerts
p5636
sI5675
Vexfoliation
p5637
sI5676
Vexfoliative
p5638
sI5677
Vexhaustive
p5639
sI5678
Vexhibited
p5640
sI5679
Vexist
p5641
sI5680
Vexistence
p5642
sI5681
Vexpanders
p5643
sI5682
Vexpansion
p5644
sI5683
Vexperiment
p5645
sI5684
Vexplained
p5646
sI5685
Vextend
p5647
sI5686
Vextends
p5648
sI5687
Vexternal
p5649
sI5688
Vextrapolated
p5650
sI5689
Vextrapolating
p5651
sI5690
Vextrusion
p5652
sI5691
Vf
sI5692
Vfall
p5653
sI5693
Vfamciclovir
p5654
sI5694
Vfasted
p5655
sI5695
Vfaster
p5656
sI5696
Vfatality
p5657
sI5697
Vfatigue
p5658
sI5698
Vfed
p5659
sI5699
Vfeedback
p5660
sI5700
Vfeels
p5661
sI5701
Vfelt
p5662
sI5702
Vfenbufen
p5663
sI5703
Vfenfluramine
p5664
sI5704
Vfenofibric
p5665
sI5705
Vfewer
p5666
sI5706
Vfibric
p5667
sI5707
Vfiltrated
p5668
sI5708
Vflexure
p5669
sI5709
Vflour
p5670
sI5710
Vflucon_cp.htm
p5671
sI5711
Vflucoxacillin
p5672
sI5712
Vfludrocortisone
p5673
sI5713
Vfluorescence
p5674
sI5714
Vfluorimetric
p5675
sI5715
Vfluoroquinolone
p5676
sI5716
Vflupenthixol
p5677
sI5717
Vflutamide
p5678
sI5718
Vfollicle
p5679
sI5719
Vfoscarnets
p5680
sI5720
Vfosfomycin
p5681
sI5721
Vfosinoprilat
p5682
sI5722
Vfourth
p5683
sI5723
Vfractions
p5684
sI5724
Vfresh
p5685
sI5725
Vfrova_od.htm
p5686
sI5726
Vfrovatriptan
p5687
sI5727
Vfulminant
p5688
sI5728
Vfunction..
p5689
sI5729
Vfunctioning
p5690
sI5730
Vfurafylline
p5691
sI5731
Vgain
p5692
sI5732
Vgained
p5693
sI5733
Vgait
p5694
sI5734
Vgallamine
p5695
sI5735
Vgallbladder
p5696
sI5736
Vgamma
p5697
sI5737
Vgammaherpes
p5698
sI5738
Vganglion
p5699
sI5739
Vgarlic
p5700
sI5740
Vgas
p5701
sI5741
Vgastroduodenal
p5702
sI5742
Vgavage
p5703
sI5743
Vgemifloxacin
p5704
sI5744
Vgeneralized
p5705
sI5745
Vgeneric9
p5706
sI5746
Vgenitourinary
p5707
sI5747
Vgerminal
p5708
sI5748
Vgestation
p5709
sI5749
Vgets
p5710
sI5750
Vgirdle
p5711
sI5751
Vglasses
p5712
sI5752
Vglobulinemias
p5713
sI5753
Vglucagon
p5714
sI5754
Vglucosidase
p5715
sI5755
Vglutamyl
p5716
sI5756
Vgly
p5717
sI5757
Vglycopyrrolate
p5718
sI5758
Vglycoside
p5719
sI5759
Vglycosuria
p5720
sI5760
Vgonadotropins
p5721
sI5761
Vgraft
p5722
sI5762
Vgranisetron
p5723
sI5763
Vgranulosa
p5724
sI5764
Vgreatly
p5725
sI5765
Vgreen
p5726
sI5766
Vgrens
p5727
sI5767
Vgritty
p5728
sI5768
Vgrouped
p5729
sI5769
Vguafacine
p5730
sI5770
Vguanadrel
p5731
sI5771
Vguanethidine_od.htm
p5732
sI5772
Vguardians
p5733
sI5773
Vguide
p5734
sI5774
Vguidelines
p5735
sI5775
Vhaemorrhagic
p5736
sI5776
Vhallucinations
p5737
sI5777
Vhard
p5738
sI5778
Vhazardous
p5739
sI5779
Vhaze
p5740
sI5780
Vheadaches
p5741
sI5781
Vheartbeat
p5742
sI5782
Vheavy
p5743
sI5783
Vhelpful
p5744
sI5784
Vhematocrit
p5745
sI5785
Vhematopoiesis
p5746
sI5786
Vhematuria
p5747
sI5787
Vhemodynamic
p5748
sI5788
Vhemoglobin
p5749
sI5789
Vhemolysis
p5750
sI5790
Vhemorrhages
p5751
sI5791
Vhemostatic
p5752
sI5792
Vheparinized
p5753
sI5793
Vheparins
p5754
sI5794
Vherbs
p5755
sI5795
Vhighintersubject
p5756
sI5796
Vhind
p5757
sI5797
Vhistorical
p5758
sI5798
Vhistoricalcontrol
p5759
sI5799
Vhormonalmethods
p5760
sI5800
Vhospital
p5761
sI5801
Vhospitals
p5762
sI5802
Vhost
p5763
sI5803
Vhttp
p5764
sI5804
Vhumidity
p5765
sI5805
Vhundredth
p5766
sI5806
Vhydantoin
p5767
sI5807
Vhydatid
p5768
sI5808
Vhydoxide
p5769
sI5809
Vhydralazines
p5770
sI5810
Vhydrobromide
p5771
sI5811
Vhydrochloroquine
p5772
sI5812
Vhydroflumethiazide
p5773
sI5813
Vhydrogen
p5774
sI5814
Vhydroxides
p5775
sI5815
Vhydroxyatomoxetine
p5776
sI5816
Vhydroxydesloratadine
p5777
sI5817
Vhydroxylamine
p5778
sI5818
Vhydroxylase
p5779
sI5819
Vhydroxylated
p5780
sI5820
Vhyper
p5781
sI5821
Vhyperbilirubinemia
p5782
sI5822
Vhypercholesterolemia
p5783
sI5823
Vhyperglycemic
p5784
sI5824
Vhypericum
p5785
sI5825
Vhyperlactatemia
p5786
sI5826
Vhyperlipidemia
p5787
sI5827
Vhyperreninemia
p5788
sI5828
Vhypersensitive
p5789
sI5829
Vhypertensives
p5790
sI5830
Vhypokinesia
p5791
sI5831
Vhypomagnesemia
p5792
sI5832
Vhypoplasia
p5793
sI5833
Vhypopro
p5794
sI5834
Vhypotension.Cimetidine
p5795
sI5835
Vhypotensite
p5796
sI5836
Vhypothalamic
p5797
sI5837
Vhysterectomy
p5798
sI5838
Vi.e
p5799
sI5839
ViPTH
p5800
sI5840
Vicodextrin
p5801
sI5841
Videntical
p5802
sI5842
Vidiosyncrasy
p5803
sI5843
Vii
p5804
sI5844
Vill
p5805
sI5845
Villustrated
p5806
sI5846
Vimaging
p5807
sI5847
Vimbalance
p5808
sI5848
Vimiglucerase
p5809
sI5849
Vimmature
p5810
sI5850
Vimmunization
p5811
sI5851
Vimmuno
p5812
sI5852
Vimmunodeficiencies
p5813
sI5853
Vimmunomodulating
p5814
sI5854
Vimmunoreactive
p5815
sI5855
Vimmunosuppressant
p5816
sI5856
Vimpact
p5817
sI5857
Vimpacted
p5818
sI5858
Vimpairs
p5819
sI5859
Vimplant
p5820
sI5860
Vimplantable
p5821
sI5861
Vimplications
p5822
sI5862
Vimproved
p5823
sI5863
VinTables
p5824
sI5864
Vinaccurate
p5825
sI5865
Vinaccurately
p5826
sI5866
Vinactivated
p5827
sI5867
Vinactivity
p5828
sI5868
Vinadvisable
p5829
sI5869
Vincidences
p5830
sI5870
Vincomplete
p5831
sI5871
Vinconcomitant
p5832
sI5872
Vinconsistent
p5833
sI5873
Vincrease9
p5834
sI5874
Vincreased.Because
p5835
sI5875
Vincremental
p5836
sI5876
Vincrements
p5837
sI5877
Vindandione
p5838
sI5878
Vindications
p5839
sI5879
Vindirect
p5840
sI5880
Vindistinguishable
p5841
sI5881
Vindividualized
p5842
sI5882
Vindoleacetic
p5843
sI5883
Vinducible
p5844
sI5884
Vinduration
p5845
sI5885
Vineffectiveness
p5846
sI5886
Vinfectious
p5847
sI5887
Vinfective
p5848
sI5888
Vinfectives
p5849
sI5889
Vinfiltration
p5850
sI5890
Vinfliximab
p5851
sI5891
Vinfrequent
p5852
sI5892
Vinfusional
p5853
sI5893
Vingredients
p5854
sI5894
Vinherent
p5855
sI5895
Vinitiates
p5856
sI5896
Vinjuries
p5857
sI5897
Vinotropes
p5858
sI5898
Vinsect
p5859
sI5899
Vinsertable
p5860
sI5900
Vinsertion
p5861
sI5901
Vinserts
p5862
sI5902
Vinsomnia
p5863
sI5903
Vinstability
p5864
sI5904
Vinstead
p5865
sI5905
Vinstituted
p5866
sI5906
Vinstitutionalized
p5867
sI5907
Vintense
p5868
sI5908
Vintentional
p5869
sI5909
Vinteracts
p5870
sI5910
Vintercourse
p5871
sI5911
Vintercurrent
p5872
sI5912
Vinterferons
p5873
sI5913
Vinterindividual
p5874
sI5914
Vinterpretation
p5875
sI5915
Vinterpreting
p5876
sI5916
Vinterrupt
p5877
sI5917
Vintervention
p5878
sI5918
Vintracellulare
p5879
sI5919
Vintraconazole
p5880
sI5920
Vintranasal
p5881
sI5921
Vintraocular
p5882
sI5922
Vintraperitoneal
p5883
sI5923
Vintraperitoneally
p5884
sI5924
Vintravascular
p5885
sI5925
Vintrinsic
p5886
sI5926
Vintroducing
p5887
sI5927
Vinvalidate
p5888
sI5928
Vinvestigate
p5889
sI5929
Vinvestigating
p5890
sI5930
Vinvestigations
p5891
sI5931
Vinvestigator
p5892
sI5932
Vinvolvement
p5893
sI5933
Vinwomen
p5894
sI5934
Viodide
p5895
sI5935
Virrational
p5896
sI5936
Virregular
p5897
sI5937
Virrespective
p5898
sI5938
Virreversible
p5899
sI5939
Virreversibly
p5900
sI5940
Virritating
p5901
sI5941
Virritation
p5902
sI5942
Viso
p5903
sI5943
Visoen
p5904
sI5944
Visomer
p5905
sI5945
Visomers
p5906
sI5946
Visotretinoin
p5907
sI5947
Vitching
p5908
sI5948
Vjoint
p5909
sI5949
Vjudgement
p5910
sI5950
Vjudgment
p5911
sI5951
Vkaliuresis
p5912
sI5952
Vkanamycin
p5913
sI5953
Vkeratoses
p5914
sI5954
Vketoacidosis
p5915
sI5955
Vketogenic
p5916
sI5956
Vketone
p5917
sI5957
Vketosteroids
p5918
sI5958
Vkill
p5919
sI5959
Vkind
p5920
sI5960
Vknow
p5921
sI5961
Vl9
p5922
sI5962
Vlab
p5923
sI5963
Vlabel
p5924
sI5964
Vlactams
p5925
sI5965
Vlactamtype
p5926
sI5966
Vlactating
p5927
sI5967
Vlactic
p5928
sI5968
Vlactulose
p5929
sI5969
Vlargely
p5930
sI5970
Vlasma
p5931
sI5971
Vlatamoxef
p5932
sI5972
Vlatanoprost
p5933
sI5973
Vlaxative
p5934
sI5974
Vlearned
p5935
sI5975
Vlengthening
p5936
sI5976
Vlengths
p5937
sI5977
Vleprosy
p5938
sI5978
Vleukemia
p5939
sI5979
Vleukocytosis
p5940
sI5980
Vleukopenic
p5941
sI5981
Vlevonorgesterol
p5942
sI5982
Vlevonorgestrol
p5943
sI5983
Vlight
p5944
sI5984
Vlignocaine
p5945
sI5985
Vlikelyhood
p5946
sI5986
Vlimb
p5947
sI5987
Vlime
p5948
sI5988
Vlinear
p5949
sI5989
Vlines
p5950
sI5990
Vlinked
p5951
sI5991
Vlipids
p5952
sI5992
Vlofexidine
p5953
sI5993
Vlosses
p5954
sI5994
Vlotions
p5955
sI5995
Vlowers
p5956
sI5996
Vlying
p5957
sI5997
Vlymecycline
p5958
sI5998
Vlymph
p5959
sI5999
Vlymphocryptovirus
p5960
sI6000
Vlymphocytopenia
p5961
sI6001
Vlymphomas
p5962
sI6002
Vlymphopenia
p5963
sI6003
VmIU
p5964
sI6004
VmMol
p5965
sI6005
Vmachinery
p5966
sI6006
Vmaking
p5967
sI6007
Vmalabsorption
p5968
sI6008
Vmalarial
p5969
sI6009
Vmalignancies
p5970
sI6010
Vmanifest
p5971
sI6011
Vmanifestation
p5972
sI6012
Vmanifestations
p5973
sI6013
Vmannitol
p5974
sI6014
Vmanufacturer
p5975
sI6015
Vmanufacturers
p5976
sI6016
Vmaprotiline
p5977
sI6017
Vmargin
p5978
sI6018
Vmarker
p5979
sI6019
Vmarketed
p5980
sI6020
Vmass
p5981
sI6021
Vmassively
p5982
sI6022
Vmatched
p5983
sI6023
Vmatching
p5984
sI6024
Vmating
p5985
sI6025
Vmatrix
p5986
sI6026
Vmaximally
p5987
sI6027
Vmaximize
p5988
sI6028
Vmayuse
p5989
sI6029
Vmeal..
p5990
sI6030
Vmeals
p5991
sI6031
Vmeaning
p5992
sI6032
Vmeaningfully
p5993
sI6033
Vmeant
p5994
sI6034
Vmeasures
p5995
sI6035
Vmechlorethamine
p5996
sI6036
Vmeclofenamic
p5997
sI6037
Vmedicated
p5998
sI6038
Vmefloquine
p5999
sI6039
Vmelena
p6000
sI6040
Vmesalamine
p6001
sI6041
Vmesalazine
p6002
sI6042
Vmesoridazine
p6003
sI6043
Vmet
p6004
sI6044
Vmetabolised
p6005
sI6045
Vmetabolize
p6006
sI6046
Vmetaclopramide
p6007
sI6047
Vmetals
p6008
sI6048
Vmetanephrine
p6009
sI6049
Vmethaemoglobinaemia
p6010
sI6050
Vmethandrostenolone
p6011
sI6051
Vmethazolamide
p6012
sI6052
Vmethemoglobinemia
p6013
sI6053
Vmethimazole
p6014
sI6054
Vmethodology
p6015
sI6055
Vmethoxyflurane
p6016
sI6056
Vmethylthiadiazole
p6017
sI6057
Vmethylthiotetrazole
p6018
sI6058
Vmethyltransferase
p6019
sI6059
Vmethyprylon
p6020
sI6060
Vmetrizamide
p6021
sI6061
Vmicroalbuminuria
p6022
sI6062
Vmicrobial
p6023
sI6063
Vmicroflora
p6024
sI6064
Vmicroorganisms
p6025
sI6065
Vmigraines
p6026
sI6066
Vmimic
p6027
sI6067
Vminimize
p6028
sI6068
Vminimizes
p6029
sI6069
Vminipills
p6030
sI6070
Vminus
p6031
sI6071
Vminute
p6032
sI6072
Vmiotic
p6033
sI6073
Vmisoprostol
p6034
sI6074
Vmisuse
p6035
sI6075
Vmmol
p6036
sI6076
Vmoclobemide
p6037
sI6077
Vmodafinil
p6038
sI6078
Vmodifications
p6039
sI6079
Vmodifies
p6040
sI6080
Vmodify
p6041
sI6081
Vmodulation
p6042
sI6082
Vmoexpril
p6043
sI6083
Vmolecular
p6044
sI6084
Vmonoclonal
p6045
sI6085
Vmononitrate
p6046
sI6086
Vmoribund
p6047
sI6087
Vmorning
p6048
sI6088
Vmortality
p6049
sI6089
Vmother
p6050
sI6090
Vmotion
p6051
sI6091
Vmsec
p6052
sI6092
Vmucositis
p6053
sI6093
Vmulti
p6054
sI6094
Vmultidose
p6055
sI6095
Vmultipledose
p6056
sI6096
Vmultivitamin
p6057
sI6097
Vmurine
p6058
sI6098
Vmuromonab
p6059
sI6099
Vmuscular
p6060
sI6100
Vmusculoskeletal
p6061
sI6101
Vmustard
p6062
sI6102
Vmutual
p6063
sI6103
Vmy
p6064
sI6104
Vmyalgia
p6065
sI6105
Vmyeloproliferative
p6066
sI6106
Vmyelotoxic
p6067
sI6107
Vmyocarditis
p6068
sI6108
Vmyoclonus
p6069
sI6109
Vnafcillin
p6070
sI6110
Vnaftate
p6071
sI6111
Vnaive
p6072
sI6112
Vnaltrexone
p6073
sI6113
Vnandrolone
p6074
sI6114
Vnaphthol
p6075
sI6115
Vnateglinide
p6076
sI6116
Vnational
p6077
sI6117
Vnature
p6078
sI6118
Vnc
p6079
sI6119
Vnecessitated
p6080
sI6120
Vnecrosis
p6081
sI6121
Vneeding
p6082
sI6122
Vneeds
p6083
sI6123
Vnegatively
p6084
sI6124
Vneglect
p6085
sI6125
Vnegligible
p6086
sI6126
Vneoplastic
p6087
sI6127
Vneostgmine
p6088
sI6128
Vnephropathy
p6089
sI6129
Vnephrosis
p6090
sI6130
Vnetilmicin
p6091
sI6131
Vneurocysticercosis
p6092
sI6132
Vneuropsychiatric
p6093
sI6133
Vneurotoxicity
p6094
sI6134
Vneurotoxin
p6095
sI6135
Vneutropenic
p6096
sI6136
Vnevirapinemay
p6097
sI6137
Vnewborns
p6098
sI6138
Vnewly
p6099
sI6139
Vng*hr
p6100
sI6140
Vniacinamide
p6101
sI6141
Vnicotinamide
p6102
sI6142
Vnine
p6103
sI6143
Vnitric
p6104
sI6144
Vnitrites
p6105
sI6145
Vnitrobluetetrazolium
p6106
sI6146
Vnitrogen
p6107
sI6147
Vnitrosamine
p6108
sI6148
Vnizatidine
p6109
sI6149
Vnodes
p6110
sI6150
Vnodular
p6111
sI6151
Vnonabsorbable
p6112
sI6152
Vnonbarbiturate
p6113
sI6153
Vnonfunctioning
p6114
sI6154
Vnonopioid
p6115
sI6155
Vnonprescription
p6116
sI6156
Vnonrenal
p6117
sI6157
Vnonsedating
p6118
sI6158
Vnonsignificant
p6119
sI6159
Vnonsmokers
p6120
sI6160
Vnonsmoking
p6121
sI6161
Vnorethandrolone
p6122
sI6162
Vnormetanephrine
p6123
sI6163
Vnormovolemic
p6124
sI6164
Vnostrils
p6125
sI6165
Vnoticeably
p6126
sI6166
Vnumbers
p6127
sI6167
Vnutrient
p6128
sI6168
Vnutrients
p6129
sI6169
Vnutrition
p6130
sI6170
Vnutritionally
p6131
sI6171
Vobjective
p6132
sI6172
Vobstruction
p6133
sI6173
Vobstructive
p6134
sI6174
Vobtain
p6135
sI6175
Voccasion
p6136
sI6176
Voccurrences
p6137
sI6177
Voccurring
p6138
sI6178
Voctreotide
p6139
sI6179
Vodontoid
p6140
sI6180
Vofthe
p6141
sI6181
Voil
p6142
sI6182
Volprinone
p6143
sI6183
Volsalazine
p6144
sI6184
Voncogenic
p6145
sI6185
Vongoing
p6146
sI6186
Vonto
p6147
sI6187
Vonwards
p6148
sI6188
Voperating
p6149
sI6189
Vopiate
p6150
sI6190
Vopportunistic
p6151
sI6191
Vopposite
p6152
sI6192
Voptic
p6153
sI6193
Voptimum
p6154
sI6194
Vorange
p6155
sI6195
Vorganism
p6156
sI6196
Vorganisms
p6157
sI6197
Vorganophosphate
p6158
sI6198
Voriginal
p6159
sI6199
Vorphan
p6160
sI6200
Vossification
p6161
sI6201
Votthostatic
p6162
sI6202
Voutset
p6163
sI6203
Voutside
p6164
sI6204
Voverallactivity
p6165
sI6205
Voverlapping
p6166
sI6206
Voveruse
p6167
sI6207
Vovulation
p6168
sI6208
Vown
p6169
sI6209
Voxacillin
p6170
sI6210
Voxaprozin
p6171
sI6211
Voxi
p6172
sI6212
Voxidative
p6173
sI6213
Voxidized
p6174
sI6214
Voxybutynin
p6175
sI6215
Voxycodone
p6176
sI6216
Voxymetazoline
p6177
sI6217
Voxymorphone
p6178
sI6218
Voxypurines
p6179
sI6219
Voz
p6180
sI6220
Vpains
p6181
sI6221
Vpair
p6182
sI6222
Vpalpitations
p6183
sI6223
Vpancreatic
p6184
sI6224
Vpancreatin
p6185
sI6225
Vpara
p6186
sI6226
Vparacetamol
p6187
sI6227
Vparameter
p6188
sI6228
Vparaxanthine
p6189
sI6229
Vpargyline
p6190
sI6230
Vpartially
p6191
sI6231
Vpartner
p6192
sI6232
Vparts
p6193
sI6233
Vparturition
p6194
sI6234
Vpathogen
p6195
sI6235
Vpattern
p6196
sI6236
Vpaw
p6197
sI6237
Vpeginterferon
p6198
sI6238
Vpegvisomant
p6199
sI6239
Vpemoline
p6200
sI6240
Vpentostatin
p6201
sI6241
Vpentoxifylline
p6202
sI6242
Vpeople
p6203
sI6243
Vperchlorate
p6204
sI6244
Vperhaps
p6205
sI6245
Vperiodically
p6206
sI6246
Vperioperatively
p6207
sI6247
Vperitoneal
p6208
sI6248
Vpersist
p6209
sI6249
Vpersistence
p6210
sI6250
Vperspiration
p6211
sI6251
Vpertechnetate
p6212
sI6252
Vpharmacoktnetics
p6213
sI6253
Vphenolic
p6214
sI6254
Vphenomena
p6215
sI6255
Vphenotype
p6216
sI6256
Vphenprocoumon
p6217
sI6257
Vphentermine
p6218
sI6258
Vphenylalkylamine
p6219
sI6259
Vphenylpropanolamine
p6220
sI6260
Vphlebitis
p6221
sI6261
Vphosphatases
p6222
sI6262
Vphosphokinase
p6223
sI6263
Vphospholipid
p6224
sI6264
Vphosphorylated
p6225
sI6265
Vphosphotungstate
p6226
sI6266
Vphotometric
p6227
sI6267
Vphotosensitivity
p6228
sI6268
Vphotosensitizing
p6229
sI6269
Vphysiological
p6230
sI6270
Vphysostigmine
p6231
sI6271
Vpicrate
p6232
sI6272
Vpill
p6233
sI6273
Vpindolol
p6234
sI6274
Vplace
p6235
sI6275
Vplacenta
p6236
sI6276
Vplanned
p6237
sI6277
Vplasmaconcentration
p6238
sI6278
Vplasmacytic
p6239
sI6279
Vplatinum
p6240
sI6280
Vplay
p6241
sI6281
Vpointe
p6242
sI6282
Vpolymorphic
p6243
sI6283
Vpolymyxin
p6244
sI6284
Vpolystyrene
p6245
sI6285
Vpoorly
p6246
sI6286
Vporpranolol
p6247
sI6287
Vposed
p6248
sI6288
Vposing
p6249
sI6289
Vposition
p6250
sI6290
Vpositively
p6251
sI6291
Vpossibilities
p6252
sI6292
Vpostdose
p6253
sI6293
Vpostmenopausal
p6254
sI6294
Vpostnatal
p6255
sI6295
Vpractices
p6256
sI6296
Vpractitioners
p6257
sI6297
Vprealbumin
p6258
sI6298
Vprecede
p6259
sI6299
Vprecipitated
p6260
sI6300
Vprecipitating
p6261
sI6301
Vpredictable
p6262
sI6302
Vpredicted
p6263
sI6303
Vpredictive
p6264
sI6304
Vpredispose
p6265
sI6305
Vpredisposing
p6266
sI6306
Vpredisposition
p6267
sI6307
Vpredominant
p6268
sI6308
Vpreferably
p6269
sI6309
Vpregnancies
p6270
sI6310
Vpremenopausal
p6271
sI6311
Vpremixed
p6272
sI6312
Vprescribing
p6273
sI6313
Vpreservative
p6274
sI6314
Vpressures
p6275
sI6315
Vpresyncope
p6276
sI6316
Vpreventing
p6277
sI6317
Vprevious
p6278
sI6318
Vprilocaine
p6279
sI6319
Vprincipal
p6280
sI6320
Vprincipally
p6281
sI6321
Vproarrhythmic
p6282
sI6322
Vprobable
p6283
sI6323
Vprobe
p6284
sI6324
Vproblem
p6285
sI6325
Vproconvertin
p6286
sI6326
Vproducing
p6287
sI6327
Vprofessional
p6288
sI6328
Vprogram
p6289
sI6329
Vprogressing
p6290
sI6330
Vprohibited
p6291
sI6331
Vproliferating
p6292
sI6332
Vpromazine
p6293
sI6333
Vpromptly
p6294
sI6334
Vpropatenone
p6295
sI6335
Vproperly
p6296
sI6336
Vprophylactic
p6297
sI6337
Vpropranolols
p6298
sI6338
Vproprietary
p6299
sI6339
Vprostacyclin
p6300
sI6340
Vprostate
p6301
sI6341
Vprostatic
p6302
sI6342
Vprotective
p6303
sI6343
Vprothrom
p6304
sI6344
Vprothrombinemic
p6305
sI6345
Vprotriptyline
p6306
sI6346
Vprovide
p6307
sI6347
Vprudent
p6308
sI6348
Vpsoriatic
p6309
sI6349
Vpsychiatric
p6310
sI6350
Vpsychoactive
p6311
sI6351
Vpumps
p6312
sI6352
Vpuncture
p6313
sI6353
Vpupil
p6314
sI6354
Vpure
p6315
sI6355
Vpurpura
p6316
sI6356
Vpursue
p6317
sI6357
Vpyrroloquinolinequinone
p6318
sI6358
Vq.i.d
p6319
sI6359
Vquai
p6320
sI6360
Vqualification
p6321
sI6361
Vquantities
p6322
sI6362
Vquart
p6323
sI6363
Vquery
p6324
sI6364
Vquetiapine
p6325
sI6365
Vquickens
p6326
sI6366
Vquinupristin
p6327
sI6367
Vquit
p6328
sI6368
Vradiographic
p6329
sI6369
Vradioimmunoassays
p6330
sI6370
Vramipril
p6331
sI6371
Vrather
p6332
sI6372
Vratios
p6333
sI6373
Vrauwolfia
p6334
sI6374
Vre
p6335
sI6375
Vreaching
p6336
sI6376
Vreact
p6337
sI6377
Vreally
p6338
sI6378
Vreason
p6339
sI6379
Vreassess
p6340
sI6380
Vrecalcitrant
p6341
sI6381
Vrecall
p6342
sI6382
Vrechallenged
p6343
sI6383
Vrecipients
p6344
sI6384
Vrecognize
p6345
sI6385
Vrecombinant
p6346
sI6386
Vrecommend
p6347
sI6387
Vrecommendation
p6348
sI6388
Vrecommended.Levetiracetam
p6349
sI6389
Vrecurrence
p6350
sI6390
Vrecurrent
p6351
sI6391
Vreddish
p6352
sI6392
Vreduced..
p6353
sI6393
Vreflects
p6354
sI6394
Vregression
p6355
sI6395
Vreinfarction
p6356
sI6396
Vrejection
p6357
sI6397
Vrelate
p6358
sI6398
Vrelation
p6359
sI6399
Vrelatively
p6360
sI6400
Vrelaxing
p6361
sI6401
Vreleaser
p6362
sI6402
Vreleases
p6363
sI6403
Vreleasing
p6364
sI6404
Vrelief
p6365
sI6405
Vrelieve
p6366
sI6406
Vremainder
p6367
sI6407
Vremains
p6368
sI6408
Vrepellent
p6369
sI6409
Vreplicate
p6370
sI6410
Vrepresent
p6371
sI6411
Vrepresentative
p6372
sI6412
Vrepresenting
p6373
sI6413
Vrepresents
p6374
sI6414
Vreproduction
p6375
sI6415
Vresedation
p6376
sI6416
Vreserve
p6377
sI6417
Vreserved
p6378
sI6418
Vresidual
p6379
sI6419
Vresistant
p6380
sI6420
Vresists
p6381
sI6421
Vresolution
p6382
sI6422
Vresolve
p6383
sI6423
Vresorptive
p6384
sI6424
Vrespond
p6385
sI6425
Vrestlessness
p6386
sI6426
Vrestored
p6387
sI6427
Vrestricted
p6388
sI6428
Vresultant
p6389
sI6429
Vretaining
p6390
sI6430
Vretinal
p6391
sI6431
Vretinoid
p6392
sI6432
Vretinoids
p6393
sI6433
Vreversal
p6394
sI6434
Vreversed
p6395
sI6435
Vreverses
p6396
sI6436
Vreview
p6397
sI6437
Vrheumatic
p6398
sI6438
Vrhythm
p6399
sI6439
Vriboflavin
p6400
sI6440
Vrich
p6401
sI6441
Vrifadin
p6402
sI6442
Vrifamipicin
p6403
sI6443
Vrifamycin
p6404
sI6444
Vrifamycins
p6405
sI6445
Vrifapentin
p6406
sI6446
Vrifapentine
p6407
sI6447
Vrigidity
p6408
sI6448
Vripe
p6409
sI6449
Vrising
p6410
sI6450
Vriskfor
p6411
sI6451
Vritanovir
p6412
sI6452
Vrosiglitazone
p6413
sI6453
Vrosuvastatin
p6414
sI6454
Vroutes
p6415
sI6455
Vs.c
p6416
sI6456
Vsacral
p6417
sI6457
Vsacrificed
p6418
sI6458
Vsafe
p6419
sI6459
Vsalbutamol
p6420
sI6460
Vsaline
p6421
sI6461
Vsalsalate
p6422
sI6462
Vsample
p6423
sI6463
Vsarcoma
p6424
sI6464
Vsaturable
p6425
sI6465
Vsc
p6426
sI6466
Vscientists
p6427
sI6467
Vsclerosis
p6428
sI6468
Vsecobarbital
p6429
sI6469
Vsecobarbitone
p6430
sI6470
Vsecreting
p6431
sI6471
Vsections
p6432
sI6472
Vselect
p6433
sI6473
Vselection
p6434
sI6474
Vself
p6435
sI6475
Vsepsis
p6436
sI6476
Vsequelae
p6437
sI6477
Vsequence
p6438
sI6478
Vsequestrant
p6439
sI6479
Vsequestrates
p6440
sI6480
Vsera
p6441
sI6481
Vseriously
p6442
sI6482
Vseriraline
p6443
sI6483
Vserotypes
p6444
sI6484
Vseverely
p6445
sI6485
Vsevoflurane
p6446
sI6486
Vsex
p6447
sI6487
Vsexual
p6448
sI6488
Vshampoos
p6449
sI6489
Vsharing
p6450
sI6490
Vshock
p6451
sI6491
Vshortened
p6452
sI6492
Vshortness
p6453
sI6493
Vshows
p6454
sI6494
Vsickness
p6455
sI6495
Vsign
p6456
sI6496
Vsimethicone
p6457
sI6497
Vsitagliptin
p6458
sI6498
Vsitosterolemia
p6459
sI6499
Vsitu
p6460
sI6500
Vsixth
p6461
sI6501
Vsixty
p6462
sI6502
Vsize
p6463
sI6503
Vsleep
p6464
sI6504
Vsodation
p6465
sI6505
Vsoft
p6466
sI6506
Vsolid
p6467
sI6507
Vsomatic
p6468
sI6508
Vsomatrem
p6469
sI6509
Vsomepatients
p6470
sI6510
Vsomnolence
p6471
sI6511
Vsores
p6472
sI6512
Vsotalol
p6473
sI6513
Vsource
p6474
sI6514
Vsoybean
p6475
sI6515
Vspaces
p6476
sI6516
Vsparfloxacin
p6477
sI6517
Vspectrometer
p6478
sI6518
Vspectrophotometric
p6479
sI6519
Vspermatozoa
p6480
sI6520
Vspices
p6481
sI6521
Vspite
p6482
sI6522
Vsplitting
p6483
sI6523
Vsprain
p6484
sI6524
Vstanozolol
p6485
sI6525
Vstasis
p6486
sI6526
Vstatements
p6487
sI6527
Vstered
p6488
sI6528
Vsterilize
p6489
sI6529
Vstick
p6490
sI6530
Vstimulantes
p6491
sI6531
Vstimulator
p6492
sI6532
Vstool
p6493
sI6533
Vstore
p6494
sI6534
Vstrains
p6495
sI6535
Vstrength
p6496
sI6536
Vstreptomycin
p6497
sI6537
Vstriking
p6498
sI6538
Vstrips
p6499
sI6539
Vstroke
p6500
sI6540
Vstrongly
p6501
sI6541
Vstructurally
p6502
sI6542
Vstupor
p6503
sI6543
Vsubgroup
p6504
sI6544
Vsubjected
p6505
sI6545
Vsublingual
p6506
sI6546
Vsubmaximal
p6507
sI6547
Vsubpopulation
p6508
sI6548
Vsubsections
p6509
sI6549
Vsubsequentcourses
p6510
sI6550
Vsubstance
p6511
sI6551
Vsubstitution
p6512
sI6552
Vsuccinimides
p6513
sI6553
Vsuffer
p6514
sI6554
Vsuggestive
p6515
sI6555
Vsulfa
p6516
sI6556
Vsulfadoxine
p6517
sI6557
Vsulfamethizole
p6518
sI6558
Vsulfide
p6519
sI6559
Vsulfisoxazole
p6520
sI6560
Vsulfobromophthalein
p6521
sI6561
Vsulfonate
p6522
sI6562
Vsulfur
p6523
sI6563
Vsulphenazole
p6524
sI6564
Vsulphonylureas
p6525
sI6565
Vsum
p6526
sI6566
Vsummarized
p6527
sI6567
Vsupplementation
p6528
sI6568
Vsupplemented
p6529
sI6569
Vsupplied
p6530
sI6570
Vsuppressant
p6531
sI6571
Vsuppressed
p6532
sI6572
Vsuppresses
p6533
sI6573
Vsuppressing
p6534
sI6574
Vsuprofen
p6535
sI6575
Vsurfactant
p6536
sI6576
Vsurgical
p6537
sI6577
Vsurveillance
p6538
sI6578
Vsusceptibility
p6539
sI6579
Vsuspending
p6540
sI6580
Vswelling
p6541
sI6581
Vswine
p6542
sI6582
Vswitched
p6543
sI6583
Vsymptomatology
p6544
sI6584
Vsynergistically
p6545
sI6585
Vsynthase
p6546
sI6586
Vsystematic
p6547
sI6587
Vtacrine
p6548
sI6588
Vtadalafil
p6549
sI6589
Vtamponades
p6550
sI6590
Vtapering
p6551
sI6591
Vtardive
p6552
sI6592
Vtarsal
p6553
sI6593
Vtartrate
p6554
sI6594
Vtazobactam
p6555
sI6595
Vtears
p6556
sI6596
Vtechniques
p6557
sI6597
Vtemozolomide
p6558
sI6598
Vtemperature
p6559
sI6599
Vten
p6560
sI6600
Vtenderness
p6561
sI6601
Vtermed
p6562
sI6602
Vterminate
p6563
sI6603
Vtestosterone
p6564
sI6604
Vtetracyclic
p6565
sI6605
Vtetrahydrocannabinol
p6566
sI6606
Vthedosage
p6567
sI6607
Vthemselves
p6568
sI6608
Vtherapeutically
p6569
sI6609
Vthesemedications
p6570
sI6610
Vthiabendazole
p6571
sI6611
Vthiazolesulfone
p6572
sI6612
Vthimerosal
p6573
sI6613
Vthiocyanate
p6574
sI6614
Vthioguanine
p6575
sI6615
Vthiopental
p6576
sI6616
Vthiothixene
p6577
sI6617
Vthiouric
p6578
sI6618
Vthioxanthene
p6579
sI6619
Vthirst
p6580
sI6620
Vthoroughly
p6581
sI6621
Vthought
p6582
sI6622
Vthousandth
p6583
sI6623
Vthreefold
p6584
sI6624
Vthreohydrobupropion
p6585
sI6625
Vthrombinemia
p6586
sI6626
Vthrombocyte
p6587
sI6627
Vthrombolytic
p6588
sI6628
Vthrombopenia
p6589
sI6629
Vthrombus
p6590
sI6630
Vthroughout
p6591
sI6631
Vthyroidal
p6592
sI6632
Vtidine
p6593
sI6633
Vtiming
p6594
sI6634
Vtimolol
p6595
sI6635
Vtiters
p6596
sI6636
Vtizoxanide
p6597
sI6637
Vtobramycin
p6598
sI6638
Vtolazamide
p6599
sI6639
Vtolazoline
p6600
sI6640
Vtolerant
p6601
sI6641
Vtolterodine
p6602
sI6642
Vtoluamide
p6603
sI6643
Vtonic
p6604
sI6644
Vtook
p6605
sI6645
Vtotally
p6606
sI6646
Vtowards
p6607
sI6647
Vtoxicokinetic
p6608
sI6648
Vtoxicologic
p6609
sI6649
Vtoxoids
p6610
sI6650
Vtraction
p6611
sI6651
Vtrademark
p6612
sI6652
Vtranquillisers
p6613
sI6653
Vtrans
p6614
sI6654
Vtransfer
p6615
sI6655
Vtransiently
p6616
sI6656
Vtransit
p6617
sI6657
Vtranslates
p6618
sI6658
Vtranspeptidase
p6619
sI6659
Vtreatments
p6620
sI6660
Vtreatpatients
p6621
sI6661
Vtremulousness
p6622
sI6662
Vtriacetyloleandomycin
p6623
sI6663
Vtriazolo
p6624
sI6664
Vtriazolobenzodiazepines
p6625
sI6665
Vtried
p6626
sI6666
Vtrifluoperazine
p6627
sI6667
Vtriflupromazine
p6628
sI6668
Vtriglycerides
p6629
sI6669
Vtrihexyphenidyl
p6630
sI6670
Vtriiodothyronine
p6631
sI6671
Vtrimeprazine
p6632
sI6672
Vtrimoxazole
p6633
sI6673
Vtriphosphate
p6634
sI6674
Vtrisilicate
p6635
sI6675
Vtromethamine
p6636
sI6676
Vtruly
p6637
sI6677
Vtryptophan
p6638
sI6678
Vtubercle
p6639
sI6679
Vtubules
p6640
sI6680
Vtumor
p6641
sI6681
Vtumorigenic
p6642
sI6682
Vturn
p6643
sI6683
Vtxt
p6644
sI6684
Vtyphoid
p6645
sI6685
Vtypical
p6646
sI6686
Vtypically
p6647
sI6687
Vtyramine
p6648
sI6688
Vulcer
p6649
sI6689
Vulcerogenic
p6650
sI6690
Vulcers
p6651
sI6691
Vultimate
p6652
sI6692
Vunavailable
p6653
sI6693
Vuncomplicated
p6654
sI6694
Vunderdosage
p6655
sI6695
Vundergone
p6656
sI6696
Vunderstand
p6657
sI6697
Vunderstood
p6658
sI6698
Vunexpectedly
p6659
sI6699
Vunimportant
p6660
sI6700
Vunintentional
p6661
sI6701
Vunnecessary
p6662
sI6702
Vunossified
p6663
sI6703
Vunpredictably
p6664
sI6704
Vunrecognized
p6665
sI6705
Vunsatisfactory
p6666
sI6706
Vunsteady
p6667
sI6707
Vunusually
p6668
sI6708
Vurea
p6669
sI6709
Vuremic
p6670
sI6710
Vurobilin
p6671
sI6711
Vurticaria
p6672
sI6712
Vusedas
p6673
sI6713
Vuseof
p6674
sI6714
Vutero
p6675
sI6715
Vutilization
p6676
sI6716
Vutilize
p6677
sI6717
Vutilizing
p6678
sI6718
Vuveitis
p6679
sI6719
Vv
sI6720
Vvaccinations
p6680
sI6721
Vvacuolation
p6681
sI6722
Vvaiproic
p6682
sI6723
Vvalid
p6683
sI6724
Vvalsartan
p6684
sI6725
Vvanillylmandelic
p6685
sI6726
Vvarapamil
p6686
sI6727
Vvariably
p6687
sI6728
Vvariation
p6688
sI6729
Vvariations
p6689
sI6730
Vvasculitis
p6690
sI6731
Vvasoactive
p6691
sI6732
Vvasodilator
p6692
sI6733
Vvenous
p6693
sI6734
Vventilation
p6694
sI6735
Vventral
p6695
sI6736
Vverified
p6696
sI6737
Vverify
p6697
sI6738
Vversa
p6698
sI6739
Vversus
p6699
sI6740
Vvertebra
p6700
sI6741
Vvertebrae
p6701
sI6742
Vvertebral
p6702
sI6743
Vvi
p6703
sI6744
Vvice
p6704
sI6745
Vview
p6705
sI6746
Vvigorous
p6706
sI6747
Vviomycin
p6707
sI6748
Vvoiding
p6708
sI6749
Vvolunteer
p6709
sI6750
Vvoriconizole
p6710
sI6751
Vvs.
p6711
sI6752
Vwait
p6712
sI6753
Vwall
p6713
sI6754
Vwant
p6714
sI6755
Vwarrants
p6715
sI6756
Vwashout
p6716
sI6757
Vwave
p6717
sI6758
Vwax
p6718
sI6759
Vweaker
p6719
sI6760
Vwear
p6720
sI6761
Vwedge
p6721
sI6762
Vwhereas
p6722
sI6763
Vwhite
p6723
sI6764
Vwish
p6724
sI6765
Vwishing
p6725
sI6766
Vwithhold
p6726
sI6767
Vwithin9
p6727
sI6768
Vwork
p6728
sI6769
Vworking
p6729
sI6770
Vwthionamide
p6730
sI6771
Vwww.rxlist.com
p6731
sI6772
Vxenobiotic
p6732
sI6773
Vyielded
p6733
sI6774
Vyogurt
p6734
sI6775
Vyoung
p6735
sI6776
Vyounger
p6736
sI6777
Vzafirlukast
p6737
sI6778
Vziprasidone
p6738
sI6779
Vzonisamide
p6739
sI6780
Vzopiclone
p6740
sI6781
Vzymes
p6741
ss.